
bin/dcacheTest.riscv：     文件格式 elf64-littleriscv


Disassembly of section .text:

00000000000100b0 <register_fini>:
   100b0:	ffff0797          	auipc	a5,0xffff0
   100b4:	f5078793          	addi	a5,a5,-176 # 0 <register_fini-0x100b0>
   100b8:	c799                	beqz	a5,100c6 <register_fini+0x16>
   100ba:	00003517          	auipc	a0,0x3
   100be:	8aa50513          	addi	a0,a0,-1878 # 12964 <__libc_fini_array>
   100c2:	0f30906f          	j	199b4 <atexit>
   100c6:	8082                	ret

00000000000100c8 <_start>:
   100c8:	00010197          	auipc	gp,0x10
   100cc:	9a018193          	addi	gp,gp,-1632 # 1fa68 <__global_pointer$>
   100d0:	85818513          	addi	a0,gp,-1960 # 1f2c0 <_edata>
   100d4:	00027617          	auipc	a2,0x27
   100d8:	27c60613          	addi	a2,a2,636 # 37350 <__BSS_END__>
   100dc:	8e09                	sub	a2,a2,a0
   100de:	4581                	li	a1,0
   100e0:	3a8000ef          	jal	ra,10488 <memset>
   100e4:	0000a517          	auipc	a0,0xa
   100e8:	8d050513          	addi	a0,a0,-1840 # 199b4 <atexit>
   100ec:	c519                	beqz	a0,100fa <_start+0x32>
   100ee:	00003517          	auipc	a0,0x3
   100f2:	87650513          	addi	a0,a0,-1930 # 12964 <__libc_fini_array>
   100f6:	0bf090ef          	jal	ra,199b4 <atexit>
   100fa:	324000ef          	jal	ra,1041e <__libc_init_array>
   100fe:	4502                	lw	a0,0(sp)
   10100:	002c                	addi	a1,sp,8
   10102:	4601                	li	a2,0
   10104:	132000ef          	jal	ra,10236 <main>
   10108:	ace5                	j	10400 <exit>

000000000001010a <__do_global_dtors_aux>:
   1010a:	88018793          	addi	a5,gp,-1920 # 1f2e8 <completed.5527>
   1010e:	0007c703          	lbu	a4,0(a5)
   10112:	eb0d                	bnez	a4,10144 <__do_global_dtors_aux+0x3a>
   10114:	1141                	addi	sp,sp,-16
   10116:	e022                	sd	s0,0(sp)
   10118:	e406                	sd	ra,8(sp)
   1011a:	843e                	mv	s0,a5
   1011c:	ffff0797          	auipc	a5,0xffff0
   10120:	ee478793          	addi	a5,a5,-284 # 0 <register_fini-0x100b0>
   10124:	cb89                	beqz	a5,10136 <__do_global_dtors_aux+0x2c>
   10126:	0000e517          	auipc	a0,0xe
   1012a:	02250513          	addi	a0,a0,34 # 1e148 <__FRAME_END__>
   1012e:	00000097          	auipc	ra,0x0
   10132:	000000e7          	jalr	zero # 0 <register_fini-0x100b0>
   10136:	4785                	li	a5,1
   10138:	60a2                	ld	ra,8(sp)
   1013a:	00f40023          	sb	a5,0(s0)
   1013e:	6402                	ld	s0,0(sp)
   10140:	0141                	addi	sp,sp,16
   10142:	8082                	ret
   10144:	8082                	ret

0000000000010146 <frame_dummy>:
   10146:	ffff0797          	auipc	a5,0xffff0
   1014a:	eba78793          	addi	a5,a5,-326 # 0 <register_fini-0x100b0>
   1014e:	cb99                	beqz	a5,10164 <frame_dummy+0x1e>
   10150:	88818593          	addi	a1,gp,-1912 # 1f2f0 <object.5532>
   10154:	0000e517          	auipc	a0,0xe
   10158:	ff450513          	addi	a0,a0,-12 # 1e148 <__FRAME_END__>
   1015c:	00000317          	auipc	t1,0x0
   10160:	00000067          	jr	zero # 0 <register_fini-0x100b0>
   10164:	8082                	ret

0000000000010166 <flushCache>:
   10166:	711d                	addi	sp,sp,-96
   10168:	eca2                	sd	s0,88(sp)
   1016a:	1080                	addi	s0,sp,96
   1016c:	faa43423          	sd	a0,-88(s0)
   10170:	fab43023          	sd	a1,-96(s0)
   10174:	fa043783          	ld	a5,-96(s0)
   10178:	8399                	srli	a5,a5,0x6
   1017a:	fef43423          	sd	a5,-24(s0)
   1017e:	fa043783          	ld	a5,-96(s0)
   10182:	03f7f793          	andi	a5,a5,63
   10186:	c791                	beqz	a5,10192 <flushCache+0x2c>
   10188:	fe843783          	ld	a5,-24(s0)
   1018c:	0785                	addi	a5,a5,1
   1018e:	fef43423          	sd	a5,-24(s0)
   10192:	fe843703          	ld	a4,-24(s0)
   10196:	04000793          	li	a5,64
   1019a:	00e7f663          	bgeu	a5,a4,101a6 <flushCache+0x40>
   1019e:	04000793          	li	a5,64
   101a2:	fef43423          	sd	a5,-24(s0)
   101a6:	fc040ba3          	sb	zero,-41(s0)
   101aa:	000237b7          	lui	a5,0x23
   101ae:	34878713          	addi	a4,a5,840 # 23348 <dummyMem>
   101b2:	6791                	lui	a5,0x4
   101b4:	973e                	add	a4,a4,a5
   101b6:	77fd                	lui	a5,0xfffff
   101b8:	8ff9                	and	a5,a5,a4
   101ba:	fcf43423          	sd	a5,-56(s0)
   101be:	fe043023          	sd	zero,-32(s0)
   101c2:	a8b9                	j	10220 <flushCache+0xba>
   101c4:	fa843783          	ld	a5,-88(s0)
   101c8:	8399                	srli	a5,a5,0x6
   101ca:	03f7f713          	andi	a4,a5,63
   101ce:	fe043783          	ld	a5,-32(s0)
   101d2:	97ba                	add	a5,a5,a4
   101d4:	079a                	slli	a5,a5,0x6
   101d6:	fcf43023          	sd	a5,-64(s0)
   101da:	fc043c23          	sd	zero,-40(s0)
   101de:	a03d                	j	1020c <flushCache+0xa6>
   101e0:	fd843783          	ld	a5,-40(s0)
   101e4:	07b2                	slli	a5,a5,0xc
   101e6:	faf43c23          	sd	a5,-72(s0)
   101ea:	fc843703          	ld	a4,-56(s0)
   101ee:	fc043783          	ld	a5,-64(s0)
   101f2:	973e                	add	a4,a4,a5
   101f4:	fb843783          	ld	a5,-72(s0)
   101f8:	97ba                	add	a5,a5,a4
   101fa:	0007c783          	lbu	a5,0(a5) # fffffffffffff000 <__BSS_END__+0xfffffffffffc7cb0>
   101fe:	fcf40ba3          	sb	a5,-41(s0)
   10202:	fd843783          	ld	a5,-40(s0)
   10206:	0785                	addi	a5,a5,1
   10208:	fcf43c23          	sd	a5,-40(s0)
   1020c:	fd843703          	ld	a4,-40(s0)
   10210:	47bd                	li	a5,15
   10212:	fce7f7e3          	bgeu	a5,a4,101e0 <flushCache+0x7a>
   10216:	fe043783          	ld	a5,-32(s0)
   1021a:	0785                	addi	a5,a5,1
   1021c:	fef43023          	sd	a5,-32(s0)
   10220:	fe043703          	ld	a4,-32(s0)
   10224:	fe843783          	ld	a5,-24(s0)
   10228:	f8f76ee3          	bltu	a4,a5,101c4 <flushCache+0x5e>
   1022c:	0001                	nop
   1022e:	0001                	nop
   10230:	6466                	ld	s0,88(sp)
   10232:	6125                	addi	sp,sp,96
   10234:	8082                	ret

0000000000010236 <main>:
   10236:	7159                	addi	sp,sp,-112
   10238:	f486                	sd	ra,104(sp)
   1023a:	f0a2                	sd	s0,96(sp)
   1023c:	1880                	addi	s0,sp,112
   1023e:	fe0405a3          	sb	zero,-21(s0)
   10242:	fe043023          	sd	zero,-32(s0)
   10246:	fc043c23          	sd	zero,-40(s0)
   1024a:	67f1                	lui	a5,0x1c
   1024c:	2f078513          	addi	a0,a5,752 # 1c2f0 <__clzdi2+0x38>
   10250:	3b0000ef          	jal	ra,10600 <puts>
   10254:	fe042623          	sw	zero,-20(s0)
   10258:	a279                	j	103e6 <main+0x1b0>
   1025a:	0001f7b7          	lui	a5,0x1f
   1025e:	32078793          	addi	a5,a5,800 # 1f320 <array2>
   10262:	6591                	lui	a1,0x4
   10264:	853e                	mv	a0,a5
   10266:	f01ff0ef          	jal	ra,10166 <flushCache>
   1026a:	c00027f3          	rdcycle	a5
   1026e:	fcf43823          	sd	a5,-48(s0)
   10272:	fd043783          	ld	a5,-48(s0)
   10276:	fef43023          	sd	a5,-32(s0)
   1027a:	0001f7b7          	lui	a5,0x1f
   1027e:	32078793          	addi	a5,a5,800 # 1f320 <array2>
   10282:	0007c783          	lbu	a5,0(a5)
   10286:	fef405a3          	sb	a5,-21(s0)
   1028a:	c00027f3          	rdcycle	a5
   1028e:	fcf43423          	sd	a5,-56(s0)
   10292:	fc843703          	ld	a4,-56(s0)
   10296:	fe043783          	ld	a5,-32(s0)
   1029a:	40f707b3          	sub	a5,a4,a5
   1029e:	fcf43c23          	sd	a5,-40(s0)
   102a2:	fec42783          	lw	a5,-20(s0)
   102a6:	fd843603          	ld	a2,-40(s0)
   102aa:	85be                	mv	a1,a5
   102ac:	67f1                	lui	a5,0x1c
   102ae:	33078513          	addi	a0,a5,816 # 1c330 <__clzdi2+0x78>
   102b2:	2a2000ef          	jal	ra,10554 <printf>
   102b6:	0001f7b7          	lui	a5,0x1f
   102ba:	32078793          	addi	a5,a5,800 # 1f320 <array2>
   102be:	1007c783          	lbu	a5,256(a5)
   102c2:	fef405a3          	sb	a5,-21(s0)
   102c6:	c00027f3          	rdcycle	a5
   102ca:	fcf43023          	sd	a5,-64(s0)
   102ce:	fc043783          	ld	a5,-64(s0)
   102d2:	fef43023          	sd	a5,-32(s0)
   102d6:	0001f7b7          	lui	a5,0x1f
   102da:	32078793          	addi	a5,a5,800 # 1f320 <array2>
   102de:	1007c783          	lbu	a5,256(a5)
   102e2:	fef405a3          	sb	a5,-21(s0)
   102e6:	c00027f3          	rdcycle	a5
   102ea:	faf43c23          	sd	a5,-72(s0)
   102ee:	fb843703          	ld	a4,-72(s0)
   102f2:	fe043783          	ld	a5,-32(s0)
   102f6:	40f707b3          	sub	a5,a4,a5
   102fa:	fcf43c23          	sd	a5,-40(s0)
   102fe:	fec42783          	lw	a5,-20(s0)
   10302:	fd843603          	ld	a2,-40(s0)
   10306:	85be                	mv	a1,a5
   10308:	67f1                	lui	a5,0x1c
   1030a:	36078513          	addi	a0,a5,864 # 1c360 <__clzdi2+0xa8>
   1030e:	246000ef          	jal	ra,10554 <printf>
   10312:	0001f7b7          	lui	a5,0x1f
   10316:	32078793          	addi	a5,a5,800 # 1f320 <array2>
   1031a:	10078793          	addi	a5,a5,256
   1031e:	faf43823          	sd	a5,-80(s0)
   10322:	0001f7b7          	lui	a5,0x1f
   10326:	32078793          	addi	a5,a5,800 # 1f320 <array2>
   1032a:	863e                	mv	a2,a5
   1032c:	fb043583          	ld	a1,-80(s0)
   10330:	67f1                	lui	a5,0x1c
   10332:	39878513          	addi	a0,a5,920 # 1c398 <__clzdi2+0xe0>
   10336:	21e000ef          	jal	ra,10554 <printf>
   1033a:	4585                	li	a1,1
   1033c:	fb043503          	ld	a0,-80(s0)
   10340:	e27ff0ef          	jal	ra,10166 <flushCache>
   10344:	c00027f3          	rdcycle	a5
   10348:	faf43423          	sd	a5,-88(s0)
   1034c:	fa843783          	ld	a5,-88(s0)
   10350:	fef43023          	sd	a5,-32(s0)
   10354:	0001f7b7          	lui	a5,0x1f
   10358:	32078793          	addi	a5,a5,800 # 1f320 <array2>
   1035c:	1007c783          	lbu	a5,256(a5)
   10360:	fef405a3          	sb	a5,-21(s0)
   10364:	c00027f3          	rdcycle	a5
   10368:	faf43023          	sd	a5,-96(s0)
   1036c:	fa043703          	ld	a4,-96(s0)
   10370:	fe043783          	ld	a5,-32(s0)
   10374:	40f707b3          	sub	a5,a4,a5
   10378:	fcf43c23          	sd	a5,-40(s0)
   1037c:	fec42783          	lw	a5,-20(s0)
   10380:	fd843603          	ld	a2,-40(s0)
   10384:	85be                	mv	a1,a5
   10386:	67f1                	lui	a5,0x1c
   10388:	3c078513          	addi	a0,a5,960 # 1c3c0 <__clzdi2+0x108>
   1038c:	1c8000ef          	jal	ra,10554 <printf>
   10390:	c00027f3          	rdcycle	a5
   10394:	f8f43c23          	sd	a5,-104(s0)
   10398:	f9843783          	ld	a5,-104(s0)
   1039c:	fef43023          	sd	a5,-32(s0)
   103a0:	0001f7b7          	lui	a5,0x1f
   103a4:	32078793          	addi	a5,a5,800 # 1f320 <array2>
   103a8:	1007c783          	lbu	a5,256(a5)
   103ac:	fef405a3          	sb	a5,-21(s0)
   103b0:	c00027f3          	rdcycle	a5
   103b4:	f8f43823          	sd	a5,-112(s0)
   103b8:	f9043703          	ld	a4,-112(s0)
   103bc:	fe043783          	ld	a5,-32(s0)
   103c0:	40f707b3          	sub	a5,a4,a5
   103c4:	fcf43c23          	sd	a5,-40(s0)
   103c8:	fec42783          	lw	a5,-20(s0)
   103cc:	fd843603          	ld	a2,-40(s0)
   103d0:	85be                	mv	a1,a5
   103d2:	67f1                	lui	a5,0x1c
   103d4:	40078513          	addi	a0,a5,1024 # 1c400 <__clzdi2+0x148>
   103d8:	17c000ef          	jal	ra,10554 <printf>
   103dc:	fec42783          	lw	a5,-20(s0)
   103e0:	2785                	addiw	a5,a5,1
   103e2:	fef42623          	sw	a5,-20(s0)
   103e6:	fec42783          	lw	a5,-20(s0)
   103ea:	0007871b          	sext.w	a4,a5
   103ee:	4791                	li	a5,4
   103f0:	e6e7d5e3          	bge	a5,a4,1025a <main+0x24>
   103f4:	4781                	li	a5,0
   103f6:	853e                	mv	a0,a5
   103f8:	70a6                	ld	ra,104(sp)
   103fa:	7406                	ld	s0,96(sp)
   103fc:	6165                	addi	sp,sp,112
   103fe:	8082                	ret

0000000000010400 <exit>:
   10400:	1141                	addi	sp,sp,-16
   10402:	4581                	li	a1,0
   10404:	e022                	sd	s0,0(sp)
   10406:	e406                	sd	ra,8(sp)
   10408:	842a                	mv	s0,a0
   1040a:	03c020ef          	jal	ra,12446 <__call_exitprocs>
   1040e:	8301b503          	ld	a0,-2000(gp) # 1f298 <_global_impure_ptr>
   10412:	6d3c                	ld	a5,88(a0)
   10414:	c391                	beqz	a5,10418 <exit+0x18>
   10416:	9782                	jalr	a5
   10418:	8522                	mv	a0,s0
   1041a:	0cf0a0ef          	jal	ra,1ace8 <_exit>

000000000001041e <__libc_init_array>:
   1041e:	1101                	addi	sp,sp,-32
   10420:	e822                	sd	s0,16(sp)
   10422:	e04a                	sd	s2,0(sp)
   10424:	0000e417          	auipc	s0,0xe
   10428:	d2840413          	addi	s0,s0,-728 # 1e14c <__preinit_array_end>
   1042c:	0000e917          	auipc	s2,0xe
   10430:	d2090913          	addi	s2,s2,-736 # 1e14c <__preinit_array_end>
   10434:	40890933          	sub	s2,s2,s0
   10438:	ec06                	sd	ra,24(sp)
   1043a:	e426                	sd	s1,8(sp)
   1043c:	40395913          	srai	s2,s2,0x3
   10440:	00090963          	beqz	s2,10452 <__libc_init_array+0x34>
   10444:	4481                	li	s1,0
   10446:	601c                	ld	a5,0(s0)
   10448:	0485                	addi	s1,s1,1
   1044a:	0421                	addi	s0,s0,8
   1044c:	9782                	jalr	a5
   1044e:	fe991ce3          	bne	s2,s1,10446 <__libc_init_array+0x28>
   10452:	0000e417          	auipc	s0,0xe
   10456:	cfe40413          	addi	s0,s0,-770 # 1e150 <__init_array_start>
   1045a:	0000e917          	auipc	s2,0xe
   1045e:	d0690913          	addi	s2,s2,-762 # 1e160 <__init_array_end>
   10462:	40890933          	sub	s2,s2,s0
   10466:	40395913          	srai	s2,s2,0x3
   1046a:	00090963          	beqz	s2,1047c <__libc_init_array+0x5e>
   1046e:	4481                	li	s1,0
   10470:	601c                	ld	a5,0(s0)
   10472:	0485                	addi	s1,s1,1
   10474:	0421                	addi	s0,s0,8
   10476:	9782                	jalr	a5
   10478:	fe991ce3          	bne	s2,s1,10470 <__libc_init_array+0x52>
   1047c:	60e2                	ld	ra,24(sp)
   1047e:	6442                	ld	s0,16(sp)
   10480:	64a2                	ld	s1,8(sp)
   10482:	6902                	ld	s2,0(sp)
   10484:	6105                	addi	sp,sp,32
   10486:	8082                	ret

0000000000010488 <memset>:
   10488:	433d                	li	t1,15
   1048a:	872a                	mv	a4,a0
   1048c:	02c37163          	bgeu	t1,a2,104ae <memset+0x26>
   10490:	00f77793          	andi	a5,a4,15
   10494:	e3c1                	bnez	a5,10514 <memset+0x8c>
   10496:	e1bd                	bnez	a1,104fc <memset+0x74>
   10498:	ff067693          	andi	a3,a2,-16
   1049c:	8a3d                	andi	a2,a2,15
   1049e:	96ba                	add	a3,a3,a4
   104a0:	e30c                	sd	a1,0(a4)
   104a2:	e70c                	sd	a1,8(a4)
   104a4:	0741                	addi	a4,a4,16
   104a6:	fed76de3          	bltu	a4,a3,104a0 <memset+0x18>
   104aa:	e211                	bnez	a2,104ae <memset+0x26>
   104ac:	8082                	ret
   104ae:	40c306b3          	sub	a3,t1,a2
   104b2:	068a                	slli	a3,a3,0x2
   104b4:	00000297          	auipc	t0,0x0
   104b8:	9696                	add	a3,a3,t0
   104ba:	00a68067          	jr	10(a3)
   104be:	00b70723          	sb	a1,14(a4)
   104c2:	00b706a3          	sb	a1,13(a4)
   104c6:	00b70623          	sb	a1,12(a4)
   104ca:	00b705a3          	sb	a1,11(a4)
   104ce:	00b70523          	sb	a1,10(a4)
   104d2:	00b704a3          	sb	a1,9(a4)
   104d6:	00b70423          	sb	a1,8(a4)
   104da:	00b703a3          	sb	a1,7(a4)
   104de:	00b70323          	sb	a1,6(a4)
   104e2:	00b702a3          	sb	a1,5(a4)
   104e6:	00b70223          	sb	a1,4(a4)
   104ea:	00b701a3          	sb	a1,3(a4)
   104ee:	00b70123          	sb	a1,2(a4)
   104f2:	00b700a3          	sb	a1,1(a4)
   104f6:	00b70023          	sb	a1,0(a4)
   104fa:	8082                	ret
   104fc:	0ff5f593          	andi	a1,a1,255
   10500:	00859693          	slli	a3,a1,0x8
   10504:	8dd5                	or	a1,a1,a3
   10506:	01059693          	slli	a3,a1,0x10
   1050a:	8dd5                	or	a1,a1,a3
   1050c:	02059693          	slli	a3,a1,0x20
   10510:	8dd5                	or	a1,a1,a3
   10512:	b759                	j	10498 <memset+0x10>
   10514:	00279693          	slli	a3,a5,0x2
   10518:	00000297          	auipc	t0,0x0
   1051c:	9696                	add	a3,a3,t0
   1051e:	8286                	mv	t0,ra
   10520:	fa2680e7          	jalr	-94(a3)
   10524:	8096                	mv	ra,t0
   10526:	17c1                	addi	a5,a5,-16
   10528:	8f1d                	sub	a4,a4,a5
   1052a:	963e                	add	a2,a2,a5
   1052c:	f8c371e3          	bgeu	t1,a2,104ae <memset+0x26>
   10530:	b79d                	j	10496 <memset+0xe>

0000000000010532 <_printf_r>:
   10532:	715d                	addi	sp,sp,-80
   10534:	f032                	sd	a2,32(sp)
   10536:	f436                	sd	a3,40(sp)
   10538:	f83a                	sd	a4,48(sp)
   1053a:	fc3e                	sd	a5,56(sp)
   1053c:	e0c2                	sd	a6,64(sp)
   1053e:	e4c6                	sd	a7,72(sp)
   10540:	862e                	mv	a2,a1
   10542:	690c                	ld	a1,16(a0)
   10544:	1014                	addi	a3,sp,32
   10546:	ec06                	sd	ra,24(sp)
   10548:	e436                	sd	a3,8(sp)
   1054a:	152000ef          	jal	ra,1069c <_vfprintf_r>
   1054e:	60e2                	ld	ra,24(sp)
   10550:	6161                	addi	sp,sp,80
   10552:	8082                	ret

0000000000010554 <printf>:
   10554:	711d                	addi	sp,sp,-96
   10556:	f832                	sd	a2,48(sp)
   10558:	fc36                	sd	a3,56(sp)
   1055a:	8401b303          	ld	t1,-1984(gp) # 1f2a8 <_impure_ptr>
   1055e:	f42e                	sd	a1,40(sp)
   10560:	e0ba                	sd	a4,64(sp)
   10562:	e4be                	sd	a5,72(sp)
   10564:	e8c2                	sd	a6,80(sp)
   10566:	ecc6                	sd	a7,88(sp)
   10568:	01033583          	ld	a1,16(t1) # 1016c <flushCache+0x6>
   1056c:	1034                	addi	a3,sp,40
   1056e:	862a                	mv	a2,a0
   10570:	851a                	mv	a0,t1
   10572:	ec06                	sd	ra,24(sp)
   10574:	e436                	sd	a3,8(sp)
   10576:	126000ef          	jal	ra,1069c <_vfprintf_r>
   1057a:	60e2                	ld	ra,24(sp)
   1057c:	6125                	addi	sp,sp,96
   1057e:	8082                	ret

0000000000010580 <_puts_r>:
   10580:	7159                	addi	sp,sp,-112
   10582:	f0a2                	sd	s0,96(sp)
   10584:	842a                	mv	s0,a0
   10586:	852e                	mv	a0,a1
   10588:	eca6                	sd	s1,88(sp)
   1058a:	f486                	sd	ra,104(sp)
   1058c:	84ae                	mv	s1,a1
   1058e:	07a000ef          	jal	ra,10608 <strlen>
   10592:	00150713          	addi	a4,a0,1
   10596:	0000c697          	auipc	a3,0xc
   1059a:	eaa68693          	addi	a3,a3,-342 # 1c440 <__clzdi2+0x188>
   1059e:	f43a                	sd	a4,40(sp)
   105a0:	483c                	lw	a5,80(s0)
   105a2:	1818                	addi	a4,sp,48
   105a4:	e0b6                	sd	a3,64(sp)
   105a6:	ec3a                	sd	a4,24(sp)
   105a8:	4685                	li	a3,1
   105aa:	4709                	li	a4,2
   105ac:	f826                	sd	s1,48(sp)
   105ae:	fc2a                	sd	a0,56(sp)
   105b0:	e4b6                	sd	a3,72(sp)
   105b2:	d03a                	sw	a4,32(sp)
   105b4:	680c                	ld	a1,16(s0)
   105b6:	cf8d                	beqz	a5,105f0 <_puts_r+0x70>
   105b8:	01059783          	lh	a5,16(a1) # 4010 <register_fini-0xc0a0>
   105bc:	03279713          	slli	a4,a5,0x32
   105c0:	00074d63          	bltz	a4,105da <_puts_r+0x5a>
   105c4:	0ac5a703          	lw	a4,172(a1)
   105c8:	6689                	lui	a3,0x2
   105ca:	8fd5                	or	a5,a5,a3
   105cc:	76f9                	lui	a3,0xffffe
   105ce:	16fd                	addi	a3,a3,-1
   105d0:	8f75                	and	a4,a4,a3
   105d2:	00f59823          	sh	a5,16(a1)
   105d6:	0ae5a623          	sw	a4,172(a1)
   105da:	0830                	addi	a2,sp,24
   105dc:	8522                	mv	a0,s0
   105de:	6e4020ef          	jal	ra,12cc2 <__sfvwrite_r>
   105e2:	ed09                	bnez	a0,105fc <_puts_r+0x7c>
   105e4:	4529                	li	a0,10
   105e6:	70a6                	ld	ra,104(sp)
   105e8:	7406                	ld	s0,96(sp)
   105ea:	64e6                	ld	s1,88(sp)
   105ec:	6165                	addi	sp,sp,112
   105ee:	8082                	ret
   105f0:	8522                	mv	a0,s0
   105f2:	e42e                	sd	a1,8(sp)
   105f4:	344020ef          	jal	ra,12938 <__sinit>
   105f8:	65a2                	ld	a1,8(sp)
   105fa:	bf7d                	j	105b8 <_puts_r+0x38>
   105fc:	557d                	li	a0,-1
   105fe:	b7e5                	j	105e6 <_puts_r+0x66>

0000000000010600 <puts>:
   10600:	85aa                	mv	a1,a0
   10602:	8401b503          	ld	a0,-1984(gp) # 1f2a8 <_impure_ptr>
   10606:	bfad                	j	10580 <_puts_r>

0000000000010608 <strlen>:
   10608:	00757793          	andi	a5,a0,7
   1060c:	872a                	mv	a4,a0
   1060e:	ebb9                	bnez	a5,10664 <strlen+0x5c>
   10610:	0000f697          	auipc	a3,0xf
   10614:	c586b683          	ld	a3,-936(a3) # 1f268 <__SDATA_BEGIN__>
   10618:	55fd                	li	a1,-1
   1061a:	6310                	ld	a2,0(a4)
   1061c:	0721                	addi	a4,a4,8
   1061e:	00d677b3          	and	a5,a2,a3
   10622:	97b6                	add	a5,a5,a3
   10624:	8fd1                	or	a5,a5,a2
   10626:	8fd5                	or	a5,a5,a3
   10628:	feb789e3          	beq	a5,a1,1061a <strlen+0x12>
   1062c:	ff874683          	lbu	a3,-8(a4)
   10630:	40a707b3          	sub	a5,a4,a0
   10634:	c6a9                	beqz	a3,1067e <strlen+0x76>
   10636:	ff974683          	lbu	a3,-7(a4)
   1063a:	ce9d                	beqz	a3,10678 <strlen+0x70>
   1063c:	ffa74683          	lbu	a3,-6(a4)
   10640:	c6a9                	beqz	a3,1068a <strlen+0x82>
   10642:	ffb74683          	lbu	a3,-5(a4)
   10646:	ce9d                	beqz	a3,10684 <strlen+0x7c>
   10648:	ffc74683          	lbu	a3,-4(a4)
   1064c:	ffd74603          	lbu	a2,-3(a4)
   10650:	ffe74503          	lbu	a0,-2(a4)
   10654:	ce95                	beqz	a3,10690 <strlen+0x88>
   10656:	c221                	beqz	a2,10696 <strlen+0x8e>
   10658:	00a03533          	snez	a0,a0
   1065c:	953e                	add	a0,a0,a5
   1065e:	1579                	addi	a0,a0,-2
   10660:	8082                	ret
   10662:	d6dd                	beqz	a3,10610 <strlen+0x8>
   10664:	00074783          	lbu	a5,0(a4)
   10668:	0705                	addi	a4,a4,1
   1066a:	00777693          	andi	a3,a4,7
   1066e:	fbf5                	bnez	a5,10662 <strlen+0x5a>
   10670:	8f09                	sub	a4,a4,a0
   10672:	fff70513          	addi	a0,a4,-1
   10676:	8082                	ret
   10678:	ff978513          	addi	a0,a5,-7
   1067c:	8082                	ret
   1067e:	ff878513          	addi	a0,a5,-8
   10682:	8082                	ret
   10684:	ffb78513          	addi	a0,a5,-5
   10688:	8082                	ret
   1068a:	ffa78513          	addi	a0,a5,-6
   1068e:	8082                	ret
   10690:	ffc78513          	addi	a0,a5,-4
   10694:	8082                	ret
   10696:	ffd78513          	addi	a0,a5,-3
   1069a:	8082                	ret

000000000001069c <_vfprintf_r>:
   1069c:	d8010113          	addi	sp,sp,-640
   106a0:	26113c23          	sd	ra,632(sp)
   106a4:	25413823          	sd	s4,592(sp)
   106a8:	25513423          	sd	s5,584(sp)
   106ac:	23913423          	sd	s9,552(sp)
   106b0:	8a2e                	mv	s4,a1
   106b2:	8cb2                	mv	s9,a2
   106b4:	e836                	sd	a3,16(sp)
   106b6:	26813823          	sd	s0,624(sp)
   106ba:	26913423          	sd	s1,616(sp)
   106be:	27213023          	sd	s2,608(sp)
   106c2:	25313c23          	sd	s3,600(sp)
   106c6:	25613023          	sd	s6,576(sp)
   106ca:	23713c23          	sd	s7,568(sp)
   106ce:	23813823          	sd	s8,560(sp)
   106d2:	23a13023          	sd	s10,544(sp)
   106d6:	21b13c23          	sd	s11,536(sp)
   106da:	8aaa                	mv	s5,a0
   106dc:	2cd040ef          	jal	ra,151a8 <_localeconv_r>
   106e0:	611c                	ld	a5,0(a0)
   106e2:	853e                	mv	a0,a5
   106e4:	fcbe                	sd	a5,120(sp)
   106e6:	f23ff0ef          	jal	ra,10608 <strlen>
   106ea:	f8aa                	sd	a0,112(sp)
   106ec:	e202                	sd	zero,256(sp)
   106ee:	e602                	sd	zero,264(sp)
   106f0:	000a8663          	beqz	s5,106fc <_vfprintf_r+0x60>
   106f4:	050aa783          	lw	a5,80(s5)
   106f8:	70078063          	beqz	a5,10df8 <_vfprintf_r+0x75c>
   106fc:	010a1703          	lh	a4,16(s4)
   10700:	03071793          	slli	a5,a4,0x30
   10704:	03271693          	slli	a3,a4,0x32
   10708:	93c1                	srli	a5,a5,0x30
   1070a:	0006cf63          	bltz	a3,10728 <_vfprintf_r+0x8c>
   1070e:	0aca2683          	lw	a3,172(s4)
   10712:	6789                	lui	a5,0x2
   10714:	8fd9                	or	a5,a5,a4
   10716:	7779                	lui	a4,0xffffe
   10718:	177d                	addi	a4,a4,-1
   1071a:	8f75                	and	a4,a4,a3
   1071c:	00fa1823          	sh	a5,16(s4)
   10720:	17c2                	slli	a5,a5,0x30
   10722:	0aea2623          	sw	a4,172(s4)
   10726:	93c1                	srli	a5,a5,0x30
   10728:	0087f713          	andi	a4,a5,8
   1072c:	26070463          	beqz	a4,10994 <_vfprintf_r+0x2f8>
   10730:	018a3703          	ld	a4,24(s4)
   10734:	26070063          	beqz	a4,10994 <_vfprintf_r+0x2f8>
   10738:	8be9                	andi	a5,a5,26
   1073a:	4729                	li	a4,10
   1073c:	26e78963          	beq	a5,a4,109ae <_vfprintf_r+0x312>
   10740:	000cc783          	lbu	a5,0(s9)
   10744:	19010b93          	addi	s7,sp,400
   10748:	ea5e                	sd	s7,272(sp)
   1074a:	f202                	sd	zero,288(sp)
   1074c:	10012c23          	sw	zero,280(sp)
   10750:	f002                	sd	zero,32(sp)
   10752:	f402                	sd	zero,40(sp)
   10754:	e102                	sd	zero,128(sp)
   10756:	f482                	sd	zero,104(sp)
   10758:	e502                	sd	zero,136(sp)
   1075a:	e902                	sd	zero,144(sp)
   1075c:	e002                	sd	zero,0(sp)
   1075e:	835e                	mv	t1,s7
   10760:	4d41                	li	s10,16
   10762:	0000c917          	auipc	s2,0xc
   10766:	ec690913          	addi	s2,s2,-314 # 1c628 <zeroes.4521>
   1076a:	1c078663          	beqz	a5,10936 <_vfprintf_r+0x29a>
   1076e:	8466                	mv	s0,s9
   10770:	02500713          	li	a4,37
   10774:	30e78463          	beq	a5,a4,10a7c <_vfprintf_r+0x3e0>
   10778:	00144783          	lbu	a5,1(s0)
   1077c:	0405                	addi	s0,s0,1
   1077e:	fbfd                	bnez	a5,10774 <_vfprintf_r+0xd8>
   10780:	419404bb          	subw	s1,s0,s9
   10784:	1a048963          	beqz	s1,10936 <_vfprintf_r+0x29a>
   10788:	7712                	ld	a4,288(sp)
   1078a:	11812783          	lw	a5,280(sp)
   1078e:	01933023          	sd	s9,0(t1)
   10792:	9726                	add	a4,a4,s1
   10794:	2785                	addiw	a5,a5,1
   10796:	00933423          	sd	s1,8(t1)
   1079a:	f23a                	sd	a4,288(sp)
   1079c:	10f12c23          	sw	a5,280(sp)
   107a0:	0007871b          	sext.w	a4,a5
   107a4:	479d                	li	a5,7
   107a6:	0341                	addi	t1,t1,16
   107a8:	2ee7c163          	blt	a5,a4,10a8a <_vfprintf_r+0x3ee>
   107ac:	6702                	ld	a4,0(sp)
   107ae:	00044783          	lbu	a5,0(s0)
   107b2:	9f25                	addw	a4,a4,s1
   107b4:	e03a                	sd	a4,0(sp)
   107b6:	18078063          	beqz	a5,10936 <_vfprintf_r+0x29a>
   107ba:	00144f03          	lbu	t5,1(s0)
   107be:	0c010fa3          	sb	zero,223(sp)
   107c2:	0405                	addi	s0,s0,1
   107c4:	5efd                	li	t4,-1
   107c6:	4b01                	li	s6,0
   107c8:	4481                	li	s1,0
   107ca:	49a5                	li	s3,9
   107cc:	02a00c13          	li	s8,42
   107d0:	0405                	addi	s0,s0,1
   107d2:	000f0d9b          	sext.w	s11,t5
   107d6:	05a00693          	li	a3,90
   107da:	fe0d879b          	addiw	a5,s11,-32
   107de:	0007871b          	sext.w	a4,a5
   107e2:	04e6e663          	bltu	a3,a4,1082e <_vfprintf_r+0x192>
   107e6:	1782                	slli	a5,a5,0x20
   107e8:	0000c717          	auipc	a4,0xc
   107ec:	cc070713          	addi	a4,a4,-832 # 1c4a8 <__clzdi2+0x1f0>
   107f0:	83f9                	srli	a5,a5,0x1e
   107f2:	97ba                	add	a5,a5,a4
   107f4:	439c                	lw	a5,0(a5)
   107f6:	97ba                	add	a5,a5,a4
   107f8:	8782                	jr	a5
   107fa:	4b01                	li	s6,0
   107fc:	00044703          	lbu	a4,0(s0)
   10800:	002b179b          	slliw	a5,s6,0x2
   10804:	01678b3b          	addw	s6,a5,s6
   10808:	fd0d8f1b          	addiw	t5,s11,-48
   1080c:	001b1b1b          	slliw	s6,s6,0x1
   10810:	fd07079b          	addiw	a5,a4,-48
   10814:	0405                	addi	s0,s0,1
   10816:	016f0b3b          	addw	s6,t5,s6
   1081a:	00070d9b          	sext.w	s11,a4
   1081e:	fcf9ffe3          	bgeu	s3,a5,107fc <_vfprintf_r+0x160>
   10822:	fe0d879b          	addiw	a5,s11,-32
   10826:	0007871b          	sext.w	a4,a5
   1082a:	fae6fee3          	bgeu	a3,a4,107e6 <_vfprintf_r+0x14a>
   1082e:	100d8463          	beqz	s11,10936 <_vfprintf_r+0x29a>
   10832:	13b10423          	sb	s11,296(sp)
   10836:	0c010fa3          	sb	zero,223(sp)
   1083a:	4985                	li	s3,1
   1083c:	4c05                	li	s8,1
   1083e:	12810c93          	addi	s9,sp,296
   10842:	ec02                	sd	zero,24(sp)
   10844:	4e81                	li	t4,0
   10846:	e882                	sd	zero,80(sp)
   10848:	f082                	sd	zero,96(sp)
   1084a:	ec82                	sd	zero,88(sp)
   1084c:	0024f793          	andi	a5,s1,2
   10850:	0007829b          	sext.w	t0,a5
   10854:	c391                	beqz	a5,10858 <_vfprintf_r+0x1bc>
   10856:	2989                	addiw	s3,s3,2
   10858:	0844ff93          	andi	t6,s1,132
   1085c:	7792                	ld	a5,288(sp)
   1085e:	000f9663          	bnez	t6,1086a <_vfprintf_r+0x1ce>
   10862:	413b06bb          	subw	a3,s6,s3
   10866:	2cd046e3          	bgtz	a3,11332 <_vfprintf_r+0xc96>
   1086a:	0df14703          	lbu	a4,223(sp)
   1086e:	c70d                	beqz	a4,10898 <_vfprintf_r+0x1fc>
   10870:	11812703          	lw	a4,280(sp)
   10874:	0df10693          	addi	a3,sp,223
   10878:	00d33023          	sd	a3,0(t1)
   1087c:	2705                	addiw	a4,a4,1
   1087e:	4685                	li	a3,1
   10880:	0785                	addi	a5,a5,1
   10882:	00d33423          	sd	a3,8(t1)
   10886:	10e12c23          	sw	a4,280(sp)
   1088a:	0007069b          	sext.w	a3,a4
   1088e:	f23e                	sd	a5,288(sp)
   10890:	471d                	li	a4,7
   10892:	0341                	addi	t1,t1,16
   10894:	42d74863          	blt	a4,a3,10cc4 <_vfprintf_r+0x628>
   10898:	02028563          	beqz	t0,108c2 <_vfprintf_r+0x226>
   1089c:	11812703          	lw	a4,280(sp)
   108a0:	1194                	addi	a3,sp,224
   108a2:	00d33023          	sd	a3,0(t1)
   108a6:	2705                	addiw	a4,a4,1
   108a8:	4689                	li	a3,2
   108aa:	0789                	addi	a5,a5,2
   108ac:	00d33423          	sd	a3,8(t1)
   108b0:	10e12c23          	sw	a4,280(sp)
   108b4:	0007069b          	sext.w	a3,a4
   108b8:	f23e                	sd	a5,288(sp)
   108ba:	471d                	li	a4,7
   108bc:	0341                	addi	t1,t1,16
   108be:	30d74ce3          	blt	a4,a3,113d6 <_vfprintf_r+0xd3a>
   108c2:	08000713          	li	a4,128
   108c6:	06ef81e3          	beq	t6,a4,11128 <_vfprintf_r+0xa8c>
   108ca:	418e8ebb          	subw	t4,t4,s8
   108ce:	0fd043e3          	bgtz	t4,111b4 <_vfprintf_r+0xb18>
   108d2:	1004f713          	andi	a4,s1,256
   108d6:	78071663          	bnez	a4,11062 <_vfprintf_r+0x9c6>
   108da:	11812703          	lw	a4,280(sp)
   108de:	97e2                	add	a5,a5,s8
   108e0:	01933023          	sd	s9,0(t1)
   108e4:	0017069b          	addiw	a3,a4,1
   108e8:	8736                	mv	a4,a3
   108ea:	01833423          	sd	s8,8(t1)
   108ee:	10e12c23          	sw	a4,280(sp)
   108f2:	f23e                	sd	a5,288(sp)
   108f4:	471d                	li	a4,7
   108f6:	44d74963          	blt	a4,a3,10d48 <_vfprintf_r+0x6ac>
   108fa:	0341                	addi	t1,t1,16
   108fc:	8891                	andi	s1,s1,4
   108fe:	c489                	beqz	s1,10908 <_vfprintf_r+0x26c>
   10900:	413b04bb          	subw	s1,s6,s3
   10904:	2e9048e3          	bgtz	s1,113f4 <_vfprintf_r+0xd58>
   10908:	875a                	mv	a4,s6
   1090a:	013b5363          	bge	s6,s3,10910 <_vfprintf_r+0x274>
   1090e:	874e                	mv	a4,s3
   10910:	6682                	ld	a3,0(sp)
   10912:	9f35                	addw	a4,a4,a3
   10914:	e03a                	sd	a4,0(sp)
   10916:	10079ce3          	bnez	a5,1122e <_vfprintf_r+0xb92>
   1091a:	67e2                	ld	a5,24(sp)
   1091c:	10012c23          	sw	zero,280(sp)
   10920:	c789                	beqz	a5,1092a <_vfprintf_r+0x28e>
   10922:	65e2                	ld	a1,24(sp)
   10924:	8556                	mv	a0,s5
   10926:	14c020ef          	jal	ra,12a72 <_free_r>
   1092a:	835e                	mv	t1,s7
   1092c:	8ca2                	mv	s9,s0
   1092e:	000cc783          	lbu	a5,0(s9)
   10932:	e2079ee3          	bnez	a5,1076e <_vfprintf_r+0xd2>
   10936:	7792                	ld	a5,288(sp)
   10938:	c399                	beqz	a5,1093e <_vfprintf_r+0x2a2>
   1093a:	2de0106f          	j	11c18 <_vfprintf_r+0x157c>
   1093e:	010a5783          	lhu	a5,16(s4)
   10942:	0407f793          	andi	a5,a5,64
   10946:	c399                	beqz	a5,1094c <_vfprintf_r+0x2b0>
   10948:	67c0106f          	j	11fc4 <_vfprintf_r+0x1928>
   1094c:	27813083          	ld	ra,632(sp)
   10950:	27013403          	ld	s0,624(sp)
   10954:	6502                	ld	a0,0(sp)
   10956:	26813483          	ld	s1,616(sp)
   1095a:	26013903          	ld	s2,608(sp)
   1095e:	25813983          	ld	s3,600(sp)
   10962:	25013a03          	ld	s4,592(sp)
   10966:	24813a83          	ld	s5,584(sp)
   1096a:	24013b03          	ld	s6,576(sp)
   1096e:	23813b83          	ld	s7,568(sp)
   10972:	23013c03          	ld	s8,560(sp)
   10976:	22813c83          	ld	s9,552(sp)
   1097a:	22013d03          	ld	s10,544(sp)
   1097e:	21813d83          	ld	s11,536(sp)
   10982:	28010113          	addi	sp,sp,640
   10986:	8082                	ret
   10988:	0104e493          	ori	s1,s1,16
   1098c:	00044f03          	lbu	t5,0(s0)
   10990:	2481                	sext.w	s1,s1
   10992:	bd3d                	j	107d0 <_vfprintf_r+0x134>
   10994:	85d2                	mv	a1,s4
   10996:	8556                	mv	a0,s5
   10998:	1c1010ef          	jal	ra,12358 <__swsetup_r>
   1099c:	c119                	beqz	a0,109a2 <_vfprintf_r+0x306>
   1099e:	6260106f          	j	11fc4 <_vfprintf_r+0x1928>
   109a2:	010a5783          	lhu	a5,16(s4)
   109a6:	4729                	li	a4,10
   109a8:	8be9                	andi	a5,a5,26
   109aa:	d8e79be3          	bne	a5,a4,10740 <_vfprintf_r+0xa4>
   109ae:	012a1783          	lh	a5,18(s4)
   109b2:	d807c7e3          	bltz	a5,10740 <_vfprintf_r+0xa4>
   109b6:	66c2                	ld	a3,16(sp)
   109b8:	8666                	mv	a2,s9
   109ba:	85d2                	mv	a1,s4
   109bc:	8556                	mv	a0,s5
   109be:	107010ef          	jal	ra,122c4 <__sbprintf>
   109c2:	e02a                	sd	a0,0(sp)
   109c4:	b761                	j	1094c <_vfprintf_r+0x2b0>
   109c6:	0104e493          	ori	s1,s1,16
   109ca:	2481                	sext.w	s1,s1
   109cc:	66c2                	ld	a3,16(sp)
   109ce:	0204f793          	andi	a5,s1,32
   109d2:	00868713          	addi	a4,a3,8
   109d6:	3a078263          	beqz	a5,10d7a <_vfprintf_r+0x6de>
   109da:	629c                	ld	a5,0(a3)
   109dc:	89be                	mv	s3,a5
   109de:	3a07cc63          	bltz	a5,10d96 <_vfprintf_r+0x6fa>
   109e2:	57fd                	li	a5,-1
   109e4:	48fe87e3          	beq	t4,a5,11672 <_vfprintf_r+0xfd6>
   109e8:	f7f4f493          	andi	s1,s1,-129
   109ec:	e83a                	sd	a4,16(sp)
   109ee:	0004881b          	sext.w	a6,s1
   109f2:	120993e3          	bnez	s3,11318 <_vfprintf_r+0xc7c>
   109f6:	120e94e3          	bnez	t4,1131e <_vfprintf_r+0xc82>
   109fa:	84c2                	mv	s1,a6
   109fc:	4e81                	li	t4,0
   109fe:	4c01                	li	s8,0
   10a00:	18c10c93          	addi	s9,sp,396
   10a04:	000c099b          	sext.w	s3,s8
   10a08:	01dc5463          	bge	s8,t4,10a10 <_vfprintf_r+0x374>
   10a0c:	000e899b          	sext.w	s3,t4
   10a10:	0df14783          	lbu	a5,223(sp)
   10a14:	ec02                	sd	zero,24(sp)
   10a16:	e882                	sd	zero,80(sp)
   10a18:	f082                	sd	zero,96(sp)
   10a1a:	ec82                	sd	zero,88(sp)
   10a1c:	e20788e3          	beqz	a5,1084c <_vfprintf_r+0x1b0>
   10a20:	2985                	addiw	s3,s3,1
   10a22:	b52d                	j	1084c <_vfprintf_r+0x1b0>
   10a24:	0104e493          	ori	s1,s1,16
   10a28:	2481                	sext.w	s1,s1
   10a2a:	66c2                	ld	a3,16(sp)
   10a2c:	0204f793          	andi	a5,s1,32
   10a30:	00868713          	addi	a4,a3,8
   10a34:	32078463          	beqz	a5,10d5c <_vfprintf_r+0x6c0>
   10a38:	0006b983          	ld	s3,0(a3)
   10a3c:	bff4f493          	andi	s1,s1,-1025
   10a40:	0004881b          	sext.w	a6,s1
   10a44:	e83a                	sd	a4,16(sp)
   10a46:	4781                	li	a5,0
   10a48:	0c010fa3          	sb	zero,223(sp)
   10a4c:	577d                	li	a4,-1
   10a4e:	36ee8063          	beq	t4,a4,10dae <_vfprintf_r+0x712>
   10a52:	f7f87493          	andi	s1,a6,-129
   10a56:	2481                	sext.w	s1,s1
   10a58:	0a099ce3          	bnez	s3,11310 <_vfprintf_r+0xc74>
   10a5c:	5c0e9663          	bnez	t4,11028 <_vfprintf_r+0x98c>
   10a60:	ffd1                	bnez	a5,109fc <_vfprintf_r+0x360>
   10a62:	00187c13          	andi	s8,a6,1
   10a66:	18c10c93          	addi	s9,sp,396
   10a6a:	f80c0de3          	beqz	s8,10a04 <_vfprintf_r+0x368>
   10a6e:	03000793          	li	a5,48
   10a72:	18f105a3          	sb	a5,395(sp)
   10a76:	18b10c93          	addi	s9,sp,395
   10a7a:	b769                	j	10a04 <_vfprintf_r+0x368>
   10a7c:	419404bb          	subw	s1,s0,s9
   10a80:	d00494e3          	bnez	s1,10788 <_vfprintf_r+0xec>
   10a84:	00044783          	lbu	a5,0(s0)
   10a88:	b33d                	j	107b6 <_vfprintf_r+0x11a>
   10a8a:	0a10                	addi	a2,sp,272
   10a8c:	85d2                	mv	a1,s4
   10a8e:	8556                	mv	a0,s5
   10a90:	1da080ef          	jal	ra,18c6a <__sprint_r>
   10a94:	ea0515e3          	bnez	a0,1093e <_vfprintf_r+0x2a2>
   10a98:	835e                	mv	t1,s7
   10a9a:	bb09                	j	107ac <_vfprintf_r+0x110>
   10a9c:	0084f793          	andi	a5,s1,8
   10aa0:	3a079ee3          	bnez	a5,1165c <_vfprintf_r+0xfc0>
   10aa4:	67c2                	ld	a5,16(sp)
   10aa6:	ec1a                	sd	t1,24(sp)
   10aa8:	e476                	sd	t4,8(sp)
   10aaa:	2388                	fld	fa0,0(a5)
   10aac:	00878693          	addi	a3,a5,8 # 2008 <register_fini-0xe0a8>
   10ab0:	e836                	sd	a3,16(sp)
   10ab2:	5140b0ef          	jal	ra,1bfc6 <__extenddftf2>
   10ab6:	6362                	ld	t1,24(sp)
   10ab8:	6ea2                	ld	t4,8(sp)
   10aba:	e22a                	sd	a0,256(sp)
   10abc:	e62e                	sd	a1,264(sp)
   10abe:	0208                	addi	a0,sp,256
   10ac0:	ec1a                	sd	t1,24(sp)
   10ac2:	e476                	sd	t4,8(sp)
   10ac4:	6a8040ef          	jal	ra,1516c <_ldcheck>
   10ac8:	d5aa                	sw	a0,232(sp)
   10aca:	4789                	li	a5,2
   10acc:	6ea2                	ld	t4,8(sp)
   10ace:	6362                	ld	t1,24(sp)
   10ad0:	64f502e3          	beq	a0,a5,11914 <_vfprintf_r+0x1278>
   10ad4:	4785                	li	a5,1
   10ad6:	6ef50ee3          	beq	a0,a5,119d2 <_vfprintf_r+0x1336>
   10ada:	06100793          	li	a5,97
   10ade:	00fd9463          	bne	s11,a5,10ae6 <_vfprintf_r+0x44a>
   10ae2:	5740106f          	j	12056 <_vfprintf_r+0x19ba>
   10ae6:	04100793          	li	a5,65
   10aea:	00fd9463          	bne	s11,a5,10af2 <_vfprintf_r+0x456>
   10aee:	1380106f          	j	11c26 <_vfprintf_r+0x158a>
   10af2:	fdfdf713          	andi	a4,s11,-33
   10af6:	57fd                	li	a5,-1
   10af8:	f0ba                	sd	a4,96(sp)
   10afa:	00fe9463          	bne	t4,a5,10b02 <_vfprintf_r+0x466>
   10afe:	6140106f          	j	12112 <_vfprintf_r+0x1a76>
   10b02:	04700793          	li	a5,71
   10b06:	00f71463          	bne	a4,a5,10b0e <_vfprintf_r+0x472>
   10b0a:	5c40106f          	j	120ce <_vfprintf_r+0x1a32>
   10b0e:	69b2                	ld	s3,264(sp)
   10b10:	1004e793          	ori	a5,s1,256
   10b14:	ed26                	sd	s1,152(sp)
   10b16:	6c12                	ld	s8,256(sp)
   10b18:	2781                	sext.w	a5,a5
   10b1a:	0009d463          	bgez	s3,10b22 <_vfprintf_r+0x486>
   10b1e:	67a0106f          	j	12198 <_vfprintf_r+0x1afc>
   10b22:	e582                	sd	zero,200(sp)
   10b24:	84be                	mv	s1,a5
   10b26:	ec02                	sd	zero,24(sp)
   10b28:	2701                	sext.w	a4,a4
   10b2a:	04600793          	li	a5,70
   10b2e:	00f71463          	bne	a4,a5,10b36 <_vfprintf_r+0x49a>
   10b32:	38a0106f          	j	11ebc <_vfprintf_r+0x1820>
   10b36:	7706                	ld	a4,96(sp)
   10b38:	04500793          	li	a5,69
   10b3c:	00f70463          	beq	a4,a5,10b44 <_vfprintf_r+0x4a8>
   10b40:	33c0106f          	j	11e7c <_vfprintf_r+0x17e0>
   10b44:	001e871b          	addiw	a4,t4,1
   10b48:	0f810893          	addi	a7,sp,248
   10b4c:	0ec10813          	addi	a6,sp,236
   10b50:	11bc                	addi	a5,sp,232
   10b52:	4689                	li	a3,2
   10b54:	85e2                	mv	a1,s8
   10b56:	864e                	mv	a2,s3
   10b58:	8556                	mv	a0,s5
   10b5a:	f81a                	sd	t1,48(sp)
   10b5c:	f076                	sd	t4,32(sp)
   10b5e:	e43a                	sd	a4,8(sp)
   10b60:	794030ef          	jal	ra,142f4 <_ldtoa_r>
   10b64:	6722                	ld	a4,8(sp)
   10b66:	7e82                	ld	t4,32(sp)
   10b68:	7342                	ld	t1,48(sp)
   10b6a:	8caa                	mv	s9,a0
   10b6c:	00e508b3          	add	a7,a0,a4
   10b70:	4601                	li	a2,0
   10b72:	4681                	li	a3,0
   10b74:	8562                	mv	a0,s8
   10b76:	85ce                	mv	a1,s3
   10b78:	f846                	sd	a7,48(sp)
   10b7a:	f01a                	sd	t1,32(sp)
   10b7c:	e476                	sd	t4,8(sp)
   10b7e:	3640a0ef          	jal	ra,1aee2 <__eqtf2>
   10b82:	78c2                	ld	a7,48(sp)
   10b84:	6ea2                	ld	t4,8(sp)
   10b86:	7302                	ld	t1,32(sp)
   10b88:	87c6                	mv	a5,a7
   10b8a:	cd11                	beqz	a0,10ba6 <_vfprintf_r+0x50a>
   10b8c:	77ee                	ld	a5,248(sp)
   10b8e:	0117fc63          	bgeu	a5,a7,10ba6 <_vfprintf_r+0x50a>
   10b92:	03000693          	li	a3,48
   10b96:	00178713          	addi	a4,a5,1
   10b9a:	fdba                	sd	a4,248(sp)
   10b9c:	00d78023          	sb	a3,0(a5)
   10ba0:	77ee                	ld	a5,248(sp)
   10ba2:	ff17eae3          	bltu	a5,a7,10b96 <_vfprintf_r+0x4fa>
   10ba6:	419787bb          	subw	a5,a5,s9
   10baa:	f03e                	sd	a5,32(sp)
   10bac:	572e                	lw	a4,232(sp)
   10bae:	04700793          	li	a5,71
   10bb2:	ecba                	sd	a4,88(sp)
   10bb4:	7706                	ld	a4,96(sp)
   10bb6:	00f71463          	bne	a4,a5,10bbe <_vfprintf_r+0x522>
   10bba:	2200106f          	j	11dda <_vfprintf_r+0x173e>
   10bbe:	7706                	ld	a4,96(sp)
   10bc0:	04600793          	li	a5,70
   10bc4:	00f71463          	bne	a4,a5,10bcc <_vfprintf_r+0x530>
   10bc8:	3c40106f          	j	11f8c <_vfprintf_r+0x18f0>
   10bcc:	67e6                	ld	a5,88(sp)
   10bce:	7586                	ld	a1,96(sp)
   10bd0:	04100613          	li	a2,65
   10bd4:	37fd                	addiw	a5,a5,-1
   10bd6:	d5be                	sw	a5,232(sp)
   10bd8:	0ffdf713          	andi	a4,s11,255
   10bdc:	4681                	li	a3,0
   10bde:	00c59663          	bne	a1,a2,10bea <_vfprintf_r+0x54e>
   10be2:	273d                	addiw	a4,a4,15
   10be4:	0ff77713          	andi	a4,a4,255
   10be8:	4685                	li	a3,1
   10bea:	0ee10823          	sb	a4,240(sp)
   10bee:	02b00713          	li	a4,43
   10bf2:	0007d763          	bgez	a5,10c00 <_vfprintf_r+0x564>
   10bf6:	6766                	ld	a4,88(sp)
   10bf8:	4785                	li	a5,1
   10bfa:	9f99                	subw	a5,a5,a4
   10bfc:	02d00713          	li	a4,45
   10c00:	0ee108a3          	sb	a4,241(sp)
   10c04:	4725                	li	a4,9
   10c06:	00f74463          	blt	a4,a5,10c0e <_vfprintf_r+0x572>
   10c0a:	5e00106f          	j	121ea <_vfprintf_r+0x1b4e>
   10c0e:	0ff10513          	addi	a0,sp,255
   10c12:	85aa                	mv	a1,a0
   10c14:	46a9                	li	a3,10
   10c16:	06300e93          	li	t4,99
   10c1a:	02d7e73b          	remw	a4,a5,a3
   10c1e:	862e                	mv	a2,a1
   10c20:	88be                	mv	a7,a5
   10c22:	15fd                	addi	a1,a1,-1
   10c24:	0307071b          	addiw	a4,a4,48
   10c28:	fee60fa3          	sb	a4,-1(a2)
   10c2c:	02d7c7bb          	divw	a5,a5,a3
   10c30:	ff1ec5e3          	blt	t4,a7,10c1a <_vfprintf_r+0x57e>
   10c34:	0307879b          	addiw	a5,a5,48
   10c38:	0ff7f693          	andi	a3,a5,255
   10c3c:	fed58fa3          	sb	a3,-1(a1)
   10c40:	ffe60793          	addi	a5,a2,-2
   10c44:	00a7e463          	bltu	a5,a0,10c4c <_vfprintf_r+0x5b0>
   10c48:	6560106f          	j	1229e <_vfprintf_r+0x1c02>
   10c4c:	0f210713          	addi	a4,sp,242
   10c50:	a019                	j	10c56 <_vfprintf_r+0x5ba>
   10c52:	0007c683          	lbu	a3,0(a5)
   10c56:	00d70023          	sb	a3,0(a4)
   10c5a:	0785                	addi	a5,a5,1
   10c5c:	0705                	addi	a4,a4,1
   10c5e:	fea79ae3          	bne	a5,a0,10c52 <_vfprintf_r+0x5b6>
   10c62:	10110793          	addi	a5,sp,257
   10c66:	0f210713          	addi	a4,sp,242
   10c6a:	8f91                	sub	a5,a5,a2
   10c6c:	97ba                	add	a5,a5,a4
   10c6e:	1998                	addi	a4,sp,240
   10c70:	9f99                	subw	a5,a5,a4
   10c72:	e13e                	sd	a5,128(sp)
   10c74:	678a                	ld	a5,128(sp)
   10c76:	7682                	ld	a3,32(sp)
   10c78:	4705                	li	a4,1
   10c7a:	00f68c3b          	addw	s8,a3,a5
   10c7e:	87e2                	mv	a5,s8
   10c80:	00d74463          	blt	a4,a3,10c88 <_vfprintf_r+0x5ec>
   10c84:	5a00106f          	j	12224 <_vfprintf_r+0x1b88>
   10c88:	7746                	ld	a4,112(sp)
   10c8a:	00e78c3b          	addw	s8,a5,a4
   10c8e:	67ea                	ld	a5,152(sp)
   10c90:	fffc4993          	not	s3,s8
   10c94:	43f9d993          	srai	s3,s3,0x3f
   10c98:	bff7f493          	andi	s1,a5,-1025
   10c9c:	2481                	sext.w	s1,s1
   10c9e:	013c79b3          	and	s3,s8,s3
   10ca2:	1004e493          	ori	s1,s1,256
   10ca6:	2981                	sext.w	s3,s3
   10ca8:	e882                	sd	zero,80(sp)
   10caa:	f082                	sd	zero,96(sp)
   10cac:	ec82                	sd	zero,88(sp)
   10cae:	67ae                	ld	a5,200(sp)
   10cb0:	e399                	bnez	a5,10cb6 <_vfprintf_r+0x61a>
   10cb2:	17e0106f          	j	11e30 <_vfprintf_r+0x1794>
   10cb6:	02d00793          	li	a5,45
   10cba:	0cf10fa3          	sb	a5,223(sp)
   10cbe:	4e81                	li	t4,0
   10cc0:	2985                	addiw	s3,s3,1
   10cc2:	b669                	j	1084c <_vfprintf_r+0x1b0>
   10cc4:	0a10                	addi	a2,sp,272
   10cc6:	85d2                	mv	a1,s4
   10cc8:	8556                	mv	a0,s5
   10cca:	fc76                	sd	t4,56(sp)
   10ccc:	f87e                	sd	t6,48(sp)
   10cce:	e416                	sd	t0,8(sp)
   10cd0:	79b070ef          	jal	ra,18c6a <__sprint_r>
   10cd4:	56051463          	bnez	a0,1123c <_vfprintf_r+0xba0>
   10cd8:	7792                	ld	a5,288(sp)
   10cda:	7ee2                	ld	t4,56(sp)
   10cdc:	7fc2                	ld	t6,48(sp)
   10cde:	62a2                	ld	t0,8(sp)
   10ce0:	835e                	mv	t1,s7
   10ce2:	be5d                	j	10898 <_vfprintf_r+0x1fc>
   10ce4:	76e6                	ld	a3,120(sp)
   10ce6:	7746                	ld	a4,112(sp)
   10ce8:	0341                	addi	t1,t1,16
   10cea:	fed33823          	sd	a3,-16(t1)
   10cee:	11812683          	lw	a3,280(sp)
   10cf2:	97ba                	add	a5,a5,a4
   10cf4:	fee33c23          	sd	a4,-8(t1)
   10cf8:	2685                	addiw	a3,a3,1
   10cfa:	0006871b          	sext.w	a4,a3
   10cfe:	10d12c23          	sw	a3,280(sp)
   10d02:	f23e                	sd	a5,288(sp)
   10d04:	469d                	li	a3,7
   10d06:	00e6de63          	bge	a3,a4,10d22 <_vfprintf_r+0x686>
   10d0a:	0a10                	addi	a2,sp,272
   10d0c:	85d2                	mv	a1,s4
   10d0e:	8556                	mv	a0,s5
   10d10:	75b070ef          	jal	ra,18c6a <__sprint_r>
   10d14:	52051463          	bnez	a0,1123c <_vfprintf_r+0xba0>
   10d18:	562e                	lw	a2,232(sp)
   10d1a:	7792                	ld	a5,288(sp)
   10d1c:	11812703          	lw	a4,280(sp)
   10d20:	835e                	mv	t1,s7
   10d22:	00065463          	bgez	a2,10d2a <_vfprintf_r+0x68e>
   10d26:	2a60106f          	j	11fcc <_vfprintf_r+0x1930>
   10d2a:	7682                	ld	a3,32(sp)
   10d2c:	2705                	addiw	a4,a4,1
   10d2e:	10e12c23          	sw	a4,280(sp)
   10d32:	97b6                	add	a5,a5,a3
   10d34:	00d33423          	sd	a3,8(t1)
   10d38:	01933023          	sd	s9,0(t1)
   10d3c:	0007069b          	sext.w	a3,a4
   10d40:	f23e                	sd	a5,288(sp)
   10d42:	471d                	li	a4,7
   10d44:	bad75be3          	bge	a4,a3,108fa <_vfprintf_r+0x25e>
   10d48:	0a10                	addi	a2,sp,272
   10d4a:	85d2                	mv	a1,s4
   10d4c:	8556                	mv	a0,s5
   10d4e:	71d070ef          	jal	ra,18c6a <__sprint_r>
   10d52:	4e051563          	bnez	a0,1123c <_vfprintf_r+0xba0>
   10d56:	7792                	ld	a5,288(sp)
   10d58:	835e                	mv	t1,s7
   10d5a:	b64d                	j	108fc <_vfprintf_r+0x260>
   10d5c:	0104f793          	andi	a5,s1,16
   10d60:	0e0799e3          	bnez	a5,11652 <_vfprintf_r+0xfb6>
   10d64:	66c2                	ld	a3,16(sp)
   10d66:	0404f793          	andi	a5,s1,64
   10d6a:	0006a983          	lw	s3,0(a3)
   10d6e:	44078ae3          	beqz	a5,119c2 <_vfprintf_r+0x1326>
   10d72:	19c2                	slli	s3,s3,0x30
   10d74:	0309d993          	srli	s3,s3,0x30
   10d78:	b1d1                	j	10a3c <_vfprintf_r+0x3a0>
   10d7a:	0104f793          	andi	a5,s1,16
   10d7e:	0c0795e3          	bnez	a5,11648 <_vfprintf_r+0xfac>
   10d82:	0404f793          	andi	a5,s1,64
   10d86:	40078de3          	beqz	a5,119a0 <_vfprintf_r+0x1304>
   10d8a:	67c2                	ld	a5,16(sp)
   10d8c:	00079983          	lh	s3,0(a5)
   10d90:	87ce                	mv	a5,s3
   10d92:	c407d8e3          	bgez	a5,109e2 <_vfprintf_r+0x346>
   10d96:	02d00793          	li	a5,45
   10d9a:	0cf10fa3          	sb	a5,223(sp)
   10d9e:	e83a                	sd	a4,16(sp)
   10da0:	577d                	li	a4,-1
   10da2:	413009b3          	neg	s3,s3
   10da6:	8826                	mv	a6,s1
   10da8:	4785                	li	a5,1
   10daa:	caee94e3          	bne	t4,a4,10a52 <_vfprintf_r+0x3b6>
   10dae:	4705                	li	a4,1
   10db0:	56e78463          	beq	a5,a4,11318 <_vfprintf_r+0xc7c>
   10db4:	4709                	li	a4,2
   10db6:	28e78263          	beq	a5,a4,1103a <_vfprintf_r+0x99e>
   10dba:	18c10c13          	addi	s8,sp,396
   10dbe:	8ce2                	mv	s9,s8
   10dc0:	0079f793          	andi	a5,s3,7
   10dc4:	03078793          	addi	a5,a5,48
   10dc8:	fefc8fa3          	sb	a5,-1(s9)
   10dcc:	0039d993          	srli	s3,s3,0x3
   10dd0:	8766                	mv	a4,s9
   10dd2:	1cfd                	addi	s9,s9,-1
   10dd4:	fe0996e3          	bnez	s3,10dc0 <_vfprintf_r+0x724>
   10dd8:	00187693          	andi	a3,a6,1
   10ddc:	26068f63          	beqz	a3,1105a <_vfprintf_r+0x9be>
   10de0:	03000693          	li	a3,48
   10de4:	26d78b63          	beq	a5,a3,1105a <_vfprintf_r+0x9be>
   10de8:	1779                	addi	a4,a4,-2
   10dea:	fedc8fa3          	sb	a3,-1(s9)
   10dee:	40ec0c3b          	subw	s8,s8,a4
   10df2:	84c2                	mv	s1,a6
   10df4:	8cba                	mv	s9,a4
   10df6:	b139                	j	10a04 <_vfprintf_r+0x368>
   10df8:	8556                	mv	a0,s5
   10dfa:	33f010ef          	jal	ra,12938 <__sinit>
   10dfe:	b8fd                	j	106fc <_vfprintf_r+0x60>
   10e00:	67c2                	ld	a5,16(sp)
   10e02:	0c010fa3          	sb	zero,223(sp)
   10e06:	0007bc83          	ld	s9,0(a5)
   10e0a:	00878693          	addi	a3,a5,8
   10e0e:	1c0c85e3          	beqz	s9,117d8 <_vfprintf_r+0x113c>
   10e12:	57fd                	li	a5,-1
   10e14:	34fe82e3          	beq	t4,a5,11958 <_vfprintf_r+0x12bc>
   10e18:	8676                	mv	a2,t4
   10e1a:	4581                	li	a1,0
   10e1c:	8566                	mv	a0,s9
   10e1e:	f836                	sd	a3,48(sp)
   10e20:	e81a                	sd	t1,16(sp)
   10e22:	e476                	sd	t4,8(sp)
   10e24:	3bb040ef          	jal	ra,159de <memchr>
   10e28:	ec2a                	sd	a0,24(sp)
   10e2a:	6ea2                	ld	t4,8(sp)
   10e2c:	6342                	ld	t1,16(sp)
   10e2e:	76c2                	ld	a3,48(sp)
   10e30:	e119                	bnez	a0,10e36 <_vfprintf_r+0x79a>
   10e32:	1120106f          	j	11f44 <_vfprintf_r+0x18a8>
   10e36:	67e2                	ld	a5,24(sp)
   10e38:	e836                	sd	a3,16(sp)
   10e3a:	ec02                	sd	zero,24(sp)
   10e3c:	41978c3b          	subw	s8,a5,s9
   10e40:	fffc4993          	not	s3,s8
   10e44:	0df14783          	lbu	a5,223(sp)
   10e48:	43f9d993          	srai	s3,s3,0x3f
   10e4c:	013c79b3          	and	s3,s8,s3
   10e50:	e882                	sd	zero,80(sp)
   10e52:	f082                	sd	zero,96(sp)
   10e54:	ec82                	sd	zero,88(sp)
   10e56:	2981                	sext.w	s3,s3
   10e58:	4e81                	li	t4,0
   10e5a:	bc0793e3          	bnez	a5,10a20 <_vfprintf_r+0x384>
   10e5e:	b2fd                	j	1084c <_vfprintf_r+0x1b0>
   10e60:	6742                	ld	a4,16(sp)
   10e62:	0c010fa3          	sb	zero,223(sp)
   10e66:	4985                	li	s3,1
   10e68:	431c                	lw	a5,0(a4)
   10e6a:	0721                	addi	a4,a4,8
   10e6c:	e83a                	sd	a4,16(sp)
   10e6e:	12f10423          	sb	a5,296(sp)
   10e72:	4c05                	li	s8,1
   10e74:	12810c93          	addi	s9,sp,296
   10e78:	b2e9                	j	10842 <_vfprintf_r+0x1a6>
   10e7a:	00044f03          	lbu	t5,0(s0)
   10e7e:	0044e493          	ori	s1,s1,4
   10e82:	2481                	sext.w	s1,s1
   10e84:	b2b1                	j	107d0 <_vfprintf_r+0x134>
   10e86:	02b00793          	li	a5,43
   10e8a:	00044f03          	lbu	t5,0(s0)
   10e8e:	0cf10fa3          	sb	a5,223(sp)
   10e92:	ba3d                	j	107d0 <_vfprintf_r+0x134>
   10e94:	0804e493          	ori	s1,s1,128
   10e98:	00044f03          	lbu	t5,0(s0)
   10e9c:	2481                	sext.w	s1,s1
   10e9e:	ba0d                	j	107d0 <_vfprintf_r+0x134>
   10ea0:	00044703          	lbu	a4,0(s0)
   10ea4:	00140793          	addi	a5,s0,1
   10ea8:	00070d9b          	sext.w	s11,a4
   10eac:	00ec1463          	bne	s8,a4,10eb4 <_vfprintf_r+0x818>
   10eb0:	3d20106f          	j	12282 <_vfprintf_r+0x1be6>
   10eb4:	fd07071b          	addiw	a4,a4,-48
   10eb8:	843e                	mv	s0,a5
   10eba:	4e81                	li	t4,0
   10ebc:	90e9efe3          	bltu	s3,a4,107da <_vfprintf_r+0x13e>
   10ec0:	00044d83          	lbu	s11,0(s0)
   10ec4:	002e979b          	slliw	a5,t4,0x2
   10ec8:	01d78ebb          	addw	t4,a5,t4
   10ecc:	001e9e9b          	slliw	t4,t4,0x1
   10ed0:	00ee8ebb          	addw	t4,t4,a4
   10ed4:	fd0d871b          	addiw	a4,s11,-48
   10ed8:	0405                	addi	s0,s0,1
   10eda:	fee9f3e3          	bgeu	s3,a4,10ec0 <_vfprintf_r+0x824>
   10ede:	b8f5                	j	107da <_vfprintf_r+0x13e>
   10ee0:	67c2                	ld	a5,16(sp)
   10ee2:	00044f03          	lbu	t5,0(s0)
   10ee6:	0007ab03          	lw	s6,0(a5)
   10eea:	07a1                	addi	a5,a5,8
   10eec:	e83e                	sd	a5,16(sp)
   10eee:	8e0b51e3          	bgez	s6,107d0 <_vfprintf_r+0x134>
   10ef2:	41600b3b          	negw	s6,s6
   10ef6:	b761                	j	10e7e <_vfprintf_r+0x7e2>
   10ef8:	8556                	mv	a0,s5
   10efa:	ec1a                	sd	t1,24(sp)
   10efc:	e476                	sd	t4,8(sp)
   10efe:	2aa040ef          	jal	ra,151a8 <_localeconv_r>
   10f02:	651c                	ld	a5,8(a0)
   10f04:	853e                	mv	a0,a5
   10f06:	e93e                	sd	a5,144(sp)
   10f08:	f00ff0ef          	jal	ra,10608 <strlen>
   10f0c:	87aa                	mv	a5,a0
   10f0e:	8556                	mv	a0,s5
   10f10:	8dbe                	mv	s11,a5
   10f12:	e53e                	sd	a5,136(sp)
   10f14:	294040ef          	jal	ra,151a8 <_localeconv_r>
   10f18:	6918                	ld	a4,16(a0)
   10f1a:	6ea2                	ld	t4,8(sp)
   10f1c:	6362                	ld	t1,24(sp)
   10f1e:	f4ba                	sd	a4,104(sp)
   10f20:	00044f03          	lbu	t5,0(s0)
   10f24:	8a0d86e3          	beqz	s11,107d0 <_vfprintf_r+0x134>
   10f28:	8a0704e3          	beqz	a4,107d0 <_vfprintf_r+0x134>
   10f2c:	00074783          	lbu	a5,0(a4)
   10f30:	8a0780e3          	beqz	a5,107d0 <_vfprintf_r+0x134>
   10f34:	4004e493          	ori	s1,s1,1024
   10f38:	2481                	sext.w	s1,s1
   10f3a:	b859                	j	107d0 <_vfprintf_r+0x134>
   10f3c:	0014e493          	ori	s1,s1,1
   10f40:	00044f03          	lbu	t5,0(s0)
   10f44:	2481                	sext.w	s1,s1
   10f46:	b069                	j	107d0 <_vfprintf_r+0x134>
   10f48:	0df14783          	lbu	a5,223(sp)
   10f4c:	00044f03          	lbu	t5,0(s0)
   10f50:	880790e3          	bnez	a5,107d0 <_vfprintf_r+0x134>
   10f54:	02000793          	li	a5,32
   10f58:	0cf10fa3          	sb	a5,223(sp)
   10f5c:	b895                	j	107d0 <_vfprintf_r+0x134>
   10f5e:	0084e493          	ori	s1,s1,8
   10f62:	00044f03          	lbu	t5,0(s0)
   10f66:	2481                	sext.w	s1,s1
   10f68:	b0a5                	j	107d0 <_vfprintf_r+0x134>
   10f6a:	0104e493          	ori	s1,s1,16
   10f6e:	0004881b          	sext.w	a6,s1
   10f72:	66c2                	ld	a3,16(sp)
   10f74:	02087793          	andi	a5,a6,32
   10f78:	00868713          	addi	a4,a3,8
   10f7c:	68078463          	beqz	a5,11604 <_vfprintf_r+0xf68>
   10f80:	0006b983          	ld	s3,0(a3)
   10f84:	4785                	li	a5,1
   10f86:	e83a                	sd	a4,16(sp)
   10f88:	b4c1                	j	10a48 <_vfprintf_r+0x3ac>
   10f8a:	0204e493          	ori	s1,s1,32
   10f8e:	00044f03          	lbu	t5,0(s0)
   10f92:	2481                	sext.w	s1,s1
   10f94:	83dff06f          	j	107d0 <_vfprintf_r+0x134>
   10f98:	6742                	ld	a4,16(sp)
   10f9a:	77e1                	lui	a5,0xffff8
   10f9c:	8307c793          	xori	a5,a5,-2000
   10fa0:	0ef11023          	sh	a5,224(sp)
   10fa4:	00870793          	addi	a5,a4,8
   10fa8:	0024e493          	ori	s1,s1,2
   10fac:	e83e                	sd	a5,16(sp)
   10fae:	0000b797          	auipc	a5,0xb
   10fb2:	4d278793          	addi	a5,a5,1234 # 1c480 <__clzdi2+0x1c8>
   10fb6:	f43e                	sd	a5,40(sp)
   10fb8:	00073983          	ld	s3,0(a4)
   10fbc:	0004881b          	sext.w	a6,s1
   10fc0:	4789                	li	a5,2
   10fc2:	07800d93          	li	s11,120
   10fc6:	b449                	j	10a48 <_vfprintf_r+0x3ac>
   10fc8:	66c2                	ld	a3,16(sp)
   10fca:	0204f793          	andi	a5,s1,32
   10fce:	6298                	ld	a4,0(a3)
   10fd0:	06a1                	addi	a3,a3,8
   10fd2:	e836                	sd	a3,16(sp)
   10fd4:	64079e63          	bnez	a5,11630 <_vfprintf_r+0xf94>
   10fd8:	0104f793          	andi	a5,s1,16
   10fdc:	64079a63          	bnez	a5,11630 <_vfprintf_r+0xf94>
   10fe0:	0404f793          	andi	a5,s1,64
   10fe4:	3e0799e3          	bnez	a5,11bd6 <_vfprintf_r+0x153a>
   10fe8:	2004f493          	andi	s1,s1,512
   10fec:	6782                	ld	a5,0(sp)
   10fee:	e099                	bnez	s1,10ff4 <_vfprintf_r+0x958>
   10ff0:	1280106f          	j	12118 <_vfprintf_r+0x1a7c>
   10ff4:	00f70023          	sb	a5,0(a4)
   10ff8:	8ca2                	mv	s9,s0
   10ffa:	ba15                	j	1092e <_vfprintf_r+0x292>
   10ffc:	00044f03          	lbu	t5,0(s0)
   11000:	06c00793          	li	a5,108
   11004:	7aff0263          	beq	t5,a5,117a8 <_vfprintf_r+0x110c>
   11008:	0104e493          	ori	s1,s1,16
   1100c:	2481                	sext.w	s1,s1
   1100e:	fc2ff06f          	j	107d0 <_vfprintf_r+0x134>
   11012:	00044f03          	lbu	t5,0(s0)
   11016:	06800793          	li	a5,104
   1101a:	76ff0f63          	beq	t5,a5,11798 <_vfprintf_r+0x10fc>
   1101e:	0404e493          	ori	s1,s1,64
   11022:	2481                	sext.w	s1,s1
   11024:	facff06f          	j	107d0 <_vfprintf_r+0x134>
   11028:	4705                	li	a4,1
   1102a:	00e79463          	bne	a5,a4,11032 <_vfprintf_r+0x996>
   1102e:	0220106f          	j	12050 <_vfprintf_r+0x19b4>
   11032:	4709                	li	a4,2
   11034:	8826                	mv	a6,s1
   11036:	d8e792e3          	bne	a5,a4,10dba <_vfprintf_r+0x71e>
   1103a:	18c10c13          	addi	s8,sp,396
   1103e:	8ce2                	mv	s9,s8
   11040:	7722                	ld	a4,40(sp)
   11042:	00f9f793          	andi	a5,s3,15
   11046:	1cfd                	addi	s9,s9,-1
   11048:	97ba                	add	a5,a5,a4
   1104a:	0007c783          	lbu	a5,0(a5)
   1104e:	0049d993          	srli	s3,s3,0x4
   11052:	00fc8023          	sb	a5,0(s9)
   11056:	fe0995e3          	bnez	s3,11040 <_vfprintf_r+0x9a4>
   1105a:	419c0c3b          	subw	s8,s8,s9
   1105e:	84c2                	mv	s1,a6
   11060:	b255                	j	10a04 <_vfprintf_r+0x368>
   11062:	06500713          	li	a4,101
   11066:	1fb75463          	bge	a4,s11,1124e <_vfprintf_r+0xbb2>
   1106a:	6512                	ld	a0,256(sp)
   1106c:	65b2                	ld	a1,264(sp)
   1106e:	4601                	li	a2,0
   11070:	4681                	li	a3,0
   11072:	f83e                	sd	a5,48(sp)
   11074:	e41a                	sd	t1,8(sp)
   11076:	66d090ef          	jal	ra,1aee2 <__eqtf2>
   1107a:	6322                	ld	t1,8(sp)
   1107c:	77c2                	ld	a5,48(sp)
   1107e:	3e051b63          	bnez	a0,11474 <_vfprintf_r+0xdd8>
   11082:	11812703          	lw	a4,280(sp)
   11086:	0000b697          	auipc	a3,0xb
   1108a:	41a68693          	addi	a3,a3,1050 # 1c4a0 <__clzdi2+0x1e8>
   1108e:	00d33023          	sd	a3,0(t1)
   11092:	2705                	addiw	a4,a4,1
   11094:	4685                	li	a3,1
   11096:	0785                	addi	a5,a5,1
   11098:	00d33423          	sd	a3,8(t1)
   1109c:	10e12c23          	sw	a4,280(sp)
   110a0:	0007069b          	sext.w	a3,a4
   110a4:	f23e                	sd	a5,288(sp)
   110a6:	471d                	li	a4,7
   110a8:	0341                	addi	t1,t1,16
   110aa:	04d742e3          	blt	a4,a3,118ee <_vfprintf_r+0x1252>
   110ae:	572e                	lw	a4,232(sp)
   110b0:	7682                	ld	a3,32(sp)
   110b2:	56d75a63          	bge	a4,a3,11626 <_vfprintf_r+0xf8a>
   110b6:	7766                	ld	a4,120(sp)
   110b8:	76c6                	ld	a3,112(sp)
   110ba:	0341                	addi	t1,t1,16
   110bc:	fee33823          	sd	a4,-16(t1)
   110c0:	11812703          	lw	a4,280(sp)
   110c4:	97b6                	add	a5,a5,a3
   110c6:	fed33c23          	sd	a3,-8(t1)
   110ca:	2705                	addiw	a4,a4,1
   110cc:	0007069b          	sext.w	a3,a4
   110d0:	10e12c23          	sw	a4,280(sp)
   110d4:	f23e                	sd	a5,288(sp)
   110d6:	471d                	li	a4,7
   110d8:	6ed74063          	blt	a4,a3,117b8 <_vfprintf_r+0x111c>
   110dc:	7702                	ld	a4,32(sp)
   110de:	fff70c1b          	addiw	s8,a4,-1
   110e2:	81805de3          	blez	s8,108fc <_vfprintf_r+0x260>
   110e6:	11812703          	lw	a4,280(sp)
   110ea:	018d5de3          	bge	s10,s8,11904 <_vfprintf_r+0x1268>
   110ee:	4c9d                	li	s9,7
   110f0:	a021                	j	110f8 <_vfprintf_r+0xa5c>
   110f2:	3c41                	addiw	s8,s8,-16
   110f4:	018d58e3          	bge	s10,s8,11904 <_vfprintf_r+0x1268>
   110f8:	2705                	addiw	a4,a4,1
   110fa:	07c1                	addi	a5,a5,16
   110fc:	01233023          	sd	s2,0(t1)
   11100:	01a33423          	sd	s10,8(t1)
   11104:	f23e                	sd	a5,288(sp)
   11106:	10e12c23          	sw	a4,280(sp)
   1110a:	0341                	addi	t1,t1,16
   1110c:	feecd3e3          	bge	s9,a4,110f2 <_vfprintf_r+0xa56>
   11110:	0a10                	addi	a2,sp,272
   11112:	85d2                	mv	a1,s4
   11114:	8556                	mv	a0,s5
   11116:	355070ef          	jal	ra,18c6a <__sprint_r>
   1111a:	12051163          	bnez	a0,1123c <_vfprintf_r+0xba0>
   1111e:	7792                	ld	a5,288(sp)
   11120:	11812703          	lw	a4,280(sp)
   11124:	835e                	mv	t1,s7
   11126:	b7f1                	j	110f2 <_vfprintf_r+0xa56>
   11128:	413b06bb          	subw	a3,s6,s3
   1112c:	f8d05f63          	blez	a3,108ca <_vfprintf_r+0x22e>
   11130:	11812703          	lw	a4,280(sp)
   11134:	04dd5563          	bge	s10,a3,1117e <_vfprintf_r+0xae2>
   11138:	489d                	li	a7,7
   1113a:	a021                	j	11142 <_vfprintf_r+0xaa6>
   1113c:	36c1                	addiw	a3,a3,-16
   1113e:	04dd5063          	bge	s10,a3,1117e <_vfprintf_r+0xae2>
   11142:	2705                	addiw	a4,a4,1
   11144:	07c1                	addi	a5,a5,16
   11146:	01233023          	sd	s2,0(t1)
   1114a:	01a33423          	sd	s10,8(t1)
   1114e:	f23e                	sd	a5,288(sp)
   11150:	10e12c23          	sw	a4,280(sp)
   11154:	0341                	addi	t1,t1,16
   11156:	fee8d3e3          	bge	a7,a4,1113c <_vfprintf_r+0xaa0>
   1115a:	0a10                	addi	a2,sp,272
   1115c:	85d2                	mv	a1,s4
   1115e:	8556                	mv	a0,s5
   11160:	f836                	sd	a3,48(sp)
   11162:	e476                	sd	t4,8(sp)
   11164:	307070ef          	jal	ra,18c6a <__sprint_r>
   11168:	e971                	bnez	a0,1123c <_vfprintf_r+0xba0>
   1116a:	76c2                	ld	a3,48(sp)
   1116c:	7792                	ld	a5,288(sp)
   1116e:	11812703          	lw	a4,280(sp)
   11172:	36c1                	addiw	a3,a3,-16
   11174:	6ea2                	ld	t4,8(sp)
   11176:	835e                	mv	t1,s7
   11178:	489d                	li	a7,7
   1117a:	fcdd44e3          	blt	s10,a3,11142 <_vfprintf_r+0xaa6>
   1117e:	2705                	addiw	a4,a4,1
   11180:	97b6                	add	a5,a5,a3
   11182:	00d33423          	sd	a3,8(t1)
   11186:	01233023          	sd	s2,0(t1)
   1118a:	0007069b          	sext.w	a3,a4
   1118e:	10e12c23          	sw	a4,280(sp)
   11192:	f23e                	sd	a5,288(sp)
   11194:	471d                	li	a4,7
   11196:	0341                	addi	t1,t1,16
   11198:	f2d75963          	bge	a4,a3,108ca <_vfprintf_r+0x22e>
   1119c:	0a10                	addi	a2,sp,272
   1119e:	85d2                	mv	a1,s4
   111a0:	8556                	mv	a0,s5
   111a2:	e476                	sd	t4,8(sp)
   111a4:	2c7070ef          	jal	ra,18c6a <__sprint_r>
   111a8:	e951                	bnez	a0,1123c <_vfprintf_r+0xba0>
   111aa:	7792                	ld	a5,288(sp)
   111ac:	6ea2                	ld	t4,8(sp)
   111ae:	835e                	mv	t1,s7
   111b0:	f1aff06f          	j	108ca <_vfprintf_r+0x22e>
   111b4:	11812703          	lw	a4,280(sp)
   111b8:	05dd5363          	bge	s10,t4,111fe <_vfprintf_r+0xb62>
   111bc:	489d                	li	a7,7
   111be:	a021                	j	111c6 <_vfprintf_r+0xb2a>
   111c0:	3ec1                	addiw	t4,t4,-16
   111c2:	03dd5e63          	bge	s10,t4,111fe <_vfprintf_r+0xb62>
   111c6:	2705                	addiw	a4,a4,1
   111c8:	07c1                	addi	a5,a5,16
   111ca:	01233023          	sd	s2,0(t1)
   111ce:	01a33423          	sd	s10,8(t1)
   111d2:	f23e                	sd	a5,288(sp)
   111d4:	10e12c23          	sw	a4,280(sp)
   111d8:	0341                	addi	t1,t1,16
   111da:	fee8d3e3          	bge	a7,a4,111c0 <_vfprintf_r+0xb24>
   111de:	0a10                	addi	a2,sp,272
   111e0:	85d2                	mv	a1,s4
   111e2:	8556                	mv	a0,s5
   111e4:	e476                	sd	t4,8(sp)
   111e6:	285070ef          	jal	ra,18c6a <__sprint_r>
   111ea:	e929                	bnez	a0,1123c <_vfprintf_r+0xba0>
   111ec:	6ea2                	ld	t4,8(sp)
   111ee:	7792                	ld	a5,288(sp)
   111f0:	11812703          	lw	a4,280(sp)
   111f4:	3ec1                	addiw	t4,t4,-16
   111f6:	835e                	mv	t1,s7
   111f8:	489d                	li	a7,7
   111fa:	fddd46e3          	blt	s10,t4,111c6 <_vfprintf_r+0xb2a>
   111fe:	0017069b          	addiw	a3,a4,1
   11202:	97f6                	add	a5,a5,t4
   11204:	01233023          	sd	s2,0(t1)
   11208:	01d33423          	sd	t4,8(t1)
   1120c:	f23e                	sd	a5,288(sp)
   1120e:	10d12c23          	sw	a3,280(sp)
   11212:	471d                	li	a4,7
   11214:	0341                	addi	t1,t1,16
   11216:	ead75e63          	bge	a4,a3,108d2 <_vfprintf_r+0x236>
   1121a:	0a10                	addi	a2,sp,272
   1121c:	85d2                	mv	a1,s4
   1121e:	8556                	mv	a0,s5
   11220:	24b070ef          	jal	ra,18c6a <__sprint_r>
   11224:	ed01                	bnez	a0,1123c <_vfprintf_r+0xba0>
   11226:	7792                	ld	a5,288(sp)
   11228:	835e                	mv	t1,s7
   1122a:	ea8ff06f          	j	108d2 <_vfprintf_r+0x236>
   1122e:	0a10                	addi	a2,sp,272
   11230:	85d2                	mv	a1,s4
   11232:	8556                	mv	a0,s5
   11234:	237070ef          	jal	ra,18c6a <__sprint_r>
   11238:	ee050163          	beqz	a0,1091a <_vfprintf_r+0x27e>
   1123c:	67e2                	ld	a5,24(sp)
   1123e:	f0078063          	beqz	a5,1093e <_vfprintf_r+0x2a2>
   11242:	85be                	mv	a1,a5
   11244:	8556                	mv	a0,s5
   11246:	02d010ef          	jal	ra,12a72 <_free_r>
   1124a:	ef4ff06f          	j	1093e <_vfprintf_r+0x2a2>
   1124e:	11812603          	lw	a2,280(sp)
   11252:	00178d93          	addi	s11,a5,1
   11256:	7782                	ld	a5,32(sp)
   11258:	0016071b          	addiw	a4,a2,1
   1125c:	4585                	li	a1,1
   1125e:	01933023          	sd	s9,0(t1)
   11262:	86ba                	mv	a3,a4
   11264:	01030c13          	addi	s8,t1,16
   11268:	32f5d863          	bge	a1,a5,11598 <_vfprintf_r+0xefc>
   1126c:	4605                	li	a2,1
   1126e:	10d12c23          	sw	a3,280(sp)
   11272:	00c33423          	sd	a2,8(t1)
   11276:	f26e                	sd	s11,288(sp)
   11278:	469d                	li	a3,7
   1127a:	5ce6c463          	blt	a3,a4,11842 <_vfprintf_r+0x11a6>
   1127e:	77c6                	ld	a5,112(sp)
   11280:	0017069b          	addiw	a3,a4,1
   11284:	7766                	ld	a4,120(sp)
   11286:	9dbe                	add	s11,s11,a5
   11288:	00fc3423          	sd	a5,8(s8)
   1128c:	00ec3023          	sd	a4,0(s8)
   11290:	10d12c23          	sw	a3,280(sp)
   11294:	0006871b          	sext.w	a4,a3
   11298:	f26e                	sd	s11,288(sp)
   1129a:	469d                	li	a3,7
   1129c:	0c41                	addi	s8,s8,16
   1129e:	5ae6ce63          	blt	a3,a4,1185a <_vfprintf_r+0x11be>
   112a2:	6512                	ld	a0,256(sp)
   112a4:	65b2                	ld	a1,264(sp)
   112a6:	0017089b          	addiw	a7,a4,1
   112aa:	4601                	li	a2,0
   112ac:	4681                	li	a3,0
   112ae:	e446                	sd	a7,8(sp)
   112b0:	f83a                	sd	a4,48(sp)
   112b2:	431090ef          	jal	ra,1aee2 <__eqtf2>
   112b6:	68a2                	ld	a7,8(sp)
   112b8:	7782                	ld	a5,32(sp)
   112ba:	010c0313          	addi	t1,s8,16
   112be:	0008861b          	sext.w	a2,a7
   112c2:	fff7869b          	addiw	a3,a5,-1
   112c6:	2e050963          	beqz	a0,115b8 <_vfprintf_r+0xf1c>
   112ca:	9db6                	add	s11,s11,a3
   112cc:	001c8813          	addi	a6,s9,1
   112d0:	00dc3423          	sd	a3,8(s8)
   112d4:	010c3023          	sd	a6,0(s8)
   112d8:	f26e                	sd	s11,288(sp)
   112da:	11112c23          	sw	a7,280(sp)
   112de:	469d                	li	a3,7
   112e0:	44c6c763          	blt	a3,a2,1172e <_vfprintf_r+0x1092>
   112e4:	7742                	ld	a4,48(sp)
   112e6:	020c0693          	addi	a3,s8,32
   112ea:	8c1a                	mv	s8,t1
   112ec:	0027061b          	addiw	a2,a4,2
   112f0:	8336                	mv	t1,a3
   112f2:	668a                	ld	a3,128(sp)
   112f4:	1998                	addi	a4,sp,240
   112f6:	00ec3023          	sd	a4,0(s8)
   112fa:	00dd87b3          	add	a5,s11,a3
   112fe:	00dc3423          	sd	a3,8(s8)
   11302:	f23e                	sd	a5,288(sp)
   11304:	10c12c23          	sw	a2,280(sp)
   11308:	471d                	li	a4,7
   1130a:	dec75963          	bge	a4,a2,108fc <_vfprintf_r+0x260>
   1130e:	bc2d                	j	10d48 <_vfprintf_r+0x6ac>
   11310:	4705                	li	a4,1
   11312:	8826                	mv	a6,s1
   11314:	aae790e3          	bne	a5,a4,10db4 <_vfprintf_r+0x718>
   11318:	47a5                	li	a5,9
   1131a:	3737e163          	bltu	a5,s3,1167c <_vfprintf_r+0xfe0>
   1131e:	0309899b          	addiw	s3,s3,48
   11322:	193105a3          	sb	s3,395(sp)
   11326:	84c2                	mv	s1,a6
   11328:	4c05                	li	s8,1
   1132a:	18b10c93          	addi	s9,sp,395
   1132e:	ed6ff06f          	j	10a04 <_vfprintf_r+0x368>
   11332:	11812703          	lw	a4,280(sp)
   11336:	0000b897          	auipc	a7,0xb
   1133a:	2e288893          	addi	a7,a7,738 # 1c618 <blanks.4520>
   1133e:	439d                	li	t2,7
   11340:	00dd4663          	blt	s10,a3,1134c <_vfprintf_r+0xcb0>
   11344:	a889                	j	11396 <_vfprintf_r+0xcfa>
   11346:	36c1                	addiw	a3,a3,-16
   11348:	04dd5763          	bge	s10,a3,11396 <_vfprintf_r+0xcfa>
   1134c:	2705                	addiw	a4,a4,1
   1134e:	07c1                	addi	a5,a5,16
   11350:	01133023          	sd	a7,0(t1)
   11354:	01a33423          	sd	s10,8(t1)
   11358:	f23e                	sd	a5,288(sp)
   1135a:	10e12c23          	sw	a4,280(sp)
   1135e:	0341                	addi	t1,t1,16
   11360:	fee3d3e3          	bge	t2,a4,11346 <_vfprintf_r+0xcaa>
   11364:	0a10                	addi	a2,sp,272
   11366:	85d2                	mv	a1,s4
   11368:	8556                	mv	a0,s5
   1136a:	e4c6                	sd	a7,72(sp)
   1136c:	e0f6                	sd	t4,64(sp)
   1136e:	fc7e                	sd	t6,56(sp)
   11370:	f816                	sd	t0,48(sp)
   11372:	e436                	sd	a3,8(sp)
   11374:	0f7070ef          	jal	ra,18c6a <__sprint_r>
   11378:	ec0512e3          	bnez	a0,1123c <_vfprintf_r+0xba0>
   1137c:	66a2                	ld	a3,8(sp)
   1137e:	7792                	ld	a5,288(sp)
   11380:	11812703          	lw	a4,280(sp)
   11384:	36c1                	addiw	a3,a3,-16
   11386:	68a6                	ld	a7,72(sp)
   11388:	6e86                	ld	t4,64(sp)
   1138a:	7fe2                	ld	t6,56(sp)
   1138c:	72c2                	ld	t0,48(sp)
   1138e:	835e                	mv	t1,s7
   11390:	439d                	li	t2,7
   11392:	fadd4de3          	blt	s10,a3,1134c <_vfprintf_r+0xcb0>
   11396:	2705                	addiw	a4,a4,1
   11398:	97b6                	add	a5,a5,a3
   1139a:	00d33423          	sd	a3,8(t1)
   1139e:	01133023          	sd	a7,0(t1)
   113a2:	0007069b          	sext.w	a3,a4
   113a6:	10e12c23          	sw	a4,280(sp)
   113aa:	f23e                	sd	a5,288(sp)
   113ac:	471d                	li	a4,7
   113ae:	0341                	addi	t1,t1,16
   113b0:	cad75d63          	bge	a4,a3,1086a <_vfprintf_r+0x1ce>
   113b4:	0a10                	addi	a2,sp,272
   113b6:	85d2                	mv	a1,s4
   113b8:	8556                	mv	a0,s5
   113ba:	fc76                	sd	t4,56(sp)
   113bc:	f87e                	sd	t6,48(sp)
   113be:	e416                	sd	t0,8(sp)
   113c0:	0ab070ef          	jal	ra,18c6a <__sprint_r>
   113c4:	e6051ce3          	bnez	a0,1123c <_vfprintf_r+0xba0>
   113c8:	7792                	ld	a5,288(sp)
   113ca:	7ee2                	ld	t4,56(sp)
   113cc:	7fc2                	ld	t6,48(sp)
   113ce:	62a2                	ld	t0,8(sp)
   113d0:	835e                	mv	t1,s7
   113d2:	c98ff06f          	j	1086a <_vfprintf_r+0x1ce>
   113d6:	0a10                	addi	a2,sp,272
   113d8:	85d2                	mv	a1,s4
   113da:	8556                	mv	a0,s5
   113dc:	f876                	sd	t4,48(sp)
   113de:	e47e                	sd	t6,8(sp)
   113e0:	08b070ef          	jal	ra,18c6a <__sprint_r>
   113e4:	e4051ce3          	bnez	a0,1123c <_vfprintf_r+0xba0>
   113e8:	7792                	ld	a5,288(sp)
   113ea:	7ec2                	ld	t4,48(sp)
   113ec:	6fa2                	ld	t6,8(sp)
   113ee:	835e                	mv	t1,s7
   113f0:	cd2ff06f          	j	108c2 <_vfprintf_r+0x226>
   113f4:	11812703          	lw	a4,280(sp)
   113f8:	0000b897          	auipc	a7,0xb
   113fc:	22088893          	addi	a7,a7,544 # 1c618 <blanks.4520>
   11400:	4c1d                	li	s8,7
   11402:	009d4663          	blt	s10,s1,1140e <_vfprintf_r+0xd72>
   11406:	a081                	j	11446 <_vfprintf_r+0xdaa>
   11408:	34c1                	addiw	s1,s1,-16
   1140a:	029d5e63          	bge	s10,s1,11446 <_vfprintf_r+0xdaa>
   1140e:	2705                	addiw	a4,a4,1
   11410:	07c1                	addi	a5,a5,16
   11412:	01133023          	sd	a7,0(t1)
   11416:	01a33423          	sd	s10,8(t1)
   1141a:	f23e                	sd	a5,288(sp)
   1141c:	10e12c23          	sw	a4,280(sp)
   11420:	0341                	addi	t1,t1,16
   11422:	feec53e3          	bge	s8,a4,11408 <_vfprintf_r+0xd6c>
   11426:	0a10                	addi	a2,sp,272
   11428:	85d2                	mv	a1,s4
   1142a:	8556                	mv	a0,s5
   1142c:	e446                	sd	a7,8(sp)
   1142e:	03d070ef          	jal	ra,18c6a <__sprint_r>
   11432:	e00515e3          	bnez	a0,1123c <_vfprintf_r+0xba0>
   11436:	34c1                	addiw	s1,s1,-16
   11438:	7792                	ld	a5,288(sp)
   1143a:	11812703          	lw	a4,280(sp)
   1143e:	68a2                	ld	a7,8(sp)
   11440:	835e                	mv	t1,s7
   11442:	fc9d46e3          	blt	s10,s1,1140e <_vfprintf_r+0xd72>
   11446:	0017069b          	addiw	a3,a4,1
   1144a:	97a6                	add	a5,a5,s1
   1144c:	01133023          	sd	a7,0(t1)
   11450:	00933423          	sd	s1,8(t1)
   11454:	f23e                	sd	a5,288(sp)
   11456:	10d12c23          	sw	a3,280(sp)
   1145a:	471d                	li	a4,7
   1145c:	cad75663          	bge	a4,a3,10908 <_vfprintf_r+0x26c>
   11460:	0a10                	addi	a2,sp,272
   11462:	85d2                	mv	a1,s4
   11464:	8556                	mv	a0,s5
   11466:	005070ef          	jal	ra,18c6a <__sprint_r>
   1146a:	dc0519e3          	bnez	a0,1123c <_vfprintf_r+0xba0>
   1146e:	7792                	ld	a5,288(sp)
   11470:	c98ff06f          	j	10908 <_vfprintf_r+0x26c>
   11474:	562e                	lw	a2,232(sp)
   11476:	3ec05e63          	blez	a2,11872 <_vfprintf_r+0x11d6>
   1147a:	6766                	ld	a4,88(sp)
   1147c:	7682                	ld	a3,32(sp)
   1147e:	00070c1b          	sext.w	s8,a4
   11482:	28e6c263          	blt	a3,a4,11706 <_vfprintf_r+0x106a>
   11486:	03805263          	blez	s8,114aa <_vfprintf_r+0xe0e>
   1148a:	11812703          	lw	a4,280(sp)
   1148e:	97e2                	add	a5,a5,s8
   11490:	01933023          	sd	s9,0(t1)
   11494:	0017069b          	addiw	a3,a4,1
   11498:	01833423          	sd	s8,8(t1)
   1149c:	f23e                	sd	a5,288(sp)
   1149e:	10d12c23          	sw	a3,280(sp)
   114a2:	471d                	li	a4,7
   114a4:	0341                	addi	t1,t1,16
   114a6:	6ed74d63          	blt	a4,a3,11ba0 <_vfprintf_r+0x1504>
   114aa:	fffc4713          	not	a4,s8
   114ae:	977d                	srai	a4,a4,0x3f
   114b0:	00ec7c33          	and	s8,s8,a4
   114b4:	6766                	ld	a4,88(sp)
   114b6:	41870c3b          	subw	s8,a4,s8
   114ba:	33804c63          	bgtz	s8,117f2 <_vfprintf_r+0x1156>
   114be:	66e6                	ld	a3,88(sp)
   114c0:	4004f713          	andi	a4,s1,1024
   114c4:	00dc8db3          	add	s11,s9,a3
   114c8:	54071f63          	bnez	a4,11a26 <_vfprintf_r+0x138a>
   114cc:	572e                	lw	a4,232(sp)
   114ce:	7682                	ld	a3,32(sp)
   114d0:	00d74663          	blt	a4,a3,114dc <_vfprintf_r+0xe40>
   114d4:	0014f693          	andi	a3,s1,1
   114d8:	6e068063          	beqz	a3,11bb8 <_vfprintf_r+0x151c>
   114dc:	76e6                	ld	a3,120(sp)
   114de:	7646                	ld	a2,112(sp)
   114e0:	0341                	addi	t1,t1,16
   114e2:	fed33823          	sd	a3,-16(t1)
   114e6:	11812683          	lw	a3,280(sp)
   114ea:	97b2                	add	a5,a5,a2
   114ec:	fec33c23          	sd	a2,-8(t1)
   114f0:	2685                	addiw	a3,a3,1
   114f2:	0006861b          	sext.w	a2,a3
   114f6:	10d12c23          	sw	a3,280(sp)
   114fa:	f23e                	sd	a5,288(sp)
   114fc:	469d                	li	a3,7
   114fe:	22c6c7e3          	blt	a3,a2,11f2c <_vfprintf_r+0x1890>
   11502:	7682                	ld	a3,32(sp)
   11504:	00dc8633          	add	a2,s9,a3
   11508:	40e6873b          	subw	a4,a3,a4
   1150c:	41b6063b          	subw	a2,a2,s11
   11510:	0007069b          	sext.w	a3,a4
   11514:	00d65363          	bge	a2,a3,1151a <_vfprintf_r+0xe7e>
   11518:	8732                	mv	a4,a2
   1151a:	00070c9b          	sext.w	s9,a4
   1151e:	03905263          	blez	s9,11542 <_vfprintf_r+0xea6>
   11522:	11812603          	lw	a2,280(sp)
   11526:	97e6                	add	a5,a5,s9
   11528:	01b33023          	sd	s11,0(t1)
   1152c:	0016059b          	addiw	a1,a2,1
   11530:	01933423          	sd	s9,8(t1)
   11534:	f23e                	sd	a5,288(sp)
   11536:	10b12c23          	sw	a1,280(sp)
   1153a:	461d                	li	a2,7
   1153c:	0341                	addi	t1,t1,16
   1153e:	26b644e3          	blt	a2,a1,11fa6 <_vfprintf_r+0x190a>
   11542:	fffccc13          	not	s8,s9
   11546:	43fc5c13          	srai	s8,s8,0x3f
   1154a:	018cfc33          	and	s8,s9,s8
   1154e:	41868c3b          	subw	s8,a3,s8
   11552:	bb805563          	blez	s8,108fc <_vfprintf_r+0x260>
   11556:	11812703          	lw	a4,280(sp)
   1155a:	3b8d5563          	bge	s10,s8,11904 <_vfprintf_r+0x1268>
   1155e:	4c9d                	li	s9,7
   11560:	a021                	j	11568 <_vfprintf_r+0xecc>
   11562:	3c41                	addiw	s8,s8,-16
   11564:	3b8d5063          	bge	s10,s8,11904 <_vfprintf_r+0x1268>
   11568:	2705                	addiw	a4,a4,1
   1156a:	07c1                	addi	a5,a5,16
   1156c:	01233023          	sd	s2,0(t1)
   11570:	01a33423          	sd	s10,8(t1)
   11574:	f23e                	sd	a5,288(sp)
   11576:	10e12c23          	sw	a4,280(sp)
   1157a:	0341                	addi	t1,t1,16
   1157c:	feecd3e3          	bge	s9,a4,11562 <_vfprintf_r+0xec6>
   11580:	0a10                	addi	a2,sp,272
   11582:	85d2                	mv	a1,s4
   11584:	8556                	mv	a0,s5
   11586:	6e4070ef          	jal	ra,18c6a <__sprint_r>
   1158a:	ca0519e3          	bnez	a0,1123c <_vfprintf_r+0xba0>
   1158e:	7792                	ld	a5,288(sp)
   11590:	11812703          	lw	a4,280(sp)
   11594:	835e                	mv	t1,s7
   11596:	b7f1                	j	11562 <_vfprintf_r+0xec6>
   11598:	0014f513          	andi	a0,s1,1
   1159c:	cc0518e3          	bnez	a0,1126c <_vfprintf_r+0xbd0>
   115a0:	00b33423          	sd	a1,8(t1)
   115a4:	f26e                	sd	s11,288(sp)
   115a6:	10e12c23          	sw	a4,280(sp)
   115aa:	469d                	li	a3,7
   115ac:	18e6c163          	blt	a3,a4,1172e <_vfprintf_r+0x1092>
   115b0:	2609                	addiw	a2,a2,2
   115b2:	02030313          	addi	t1,t1,32
   115b6:	bb35                	j	112f2 <_vfprintf_r+0xc56>
   115b8:	d2d05de3          	blez	a3,112f2 <_vfprintf_r+0xc56>
   115bc:	4cdd50e3          	bge	s10,a3,1227c <_vfprintf_r+0x1be0>
   115c0:	4c9d                	li	s9,7
   115c2:	a031                	j	115ce <_vfprintf_r+0xf32>
   115c4:	36c1                	addiw	a3,a3,-16
   115c6:	14dd5563          	bge	s10,a3,11710 <_vfprintf_r+0x1074>
   115ca:	0017089b          	addiw	a7,a4,1
   115ce:	0dc1                	addi	s11,s11,16
   115d0:	012c3023          	sd	s2,0(s8)
   115d4:	01ac3423          	sd	s10,8(s8)
   115d8:	f26e                	sd	s11,288(sp)
   115da:	0008871b          	sext.w	a4,a7
   115de:	11112c23          	sw	a7,280(sp)
   115e2:	0c41                	addi	s8,s8,16
   115e4:	feecd0e3          	bge	s9,a4,115c4 <_vfprintf_r+0xf28>
   115e8:	0a10                	addi	a2,sp,272
   115ea:	85d2                	mv	a1,s4
   115ec:	8556                	mv	a0,s5
   115ee:	e436                	sd	a3,8(sp)
   115f0:	67a070ef          	jal	ra,18c6a <__sprint_r>
   115f4:	c40514e3          	bnez	a0,1123c <_vfprintf_r+0xba0>
   115f8:	7d92                	ld	s11,288(sp)
   115fa:	11812703          	lw	a4,280(sp)
   115fe:	66a2                	ld	a3,8(sp)
   11600:	8c5e                	mv	s8,s7
   11602:	b7c9                	j	115c4 <_vfprintf_r+0xf28>
   11604:	01087793          	andi	a5,a6,16
   11608:	eb8d                	bnez	a5,1163a <_vfprintf_r+0xf9e>
   1160a:	66c2                	ld	a3,16(sp)
   1160c:	04087793          	andi	a5,a6,64
   11610:	0006a983          	lw	s3,0(a3)
   11614:	36078c63          	beqz	a5,1198c <_vfprintf_r+0x12f0>
   11618:	19c2                	slli	s3,s3,0x30
   1161a:	0309d993          	srli	s3,s3,0x30
   1161e:	e83a                	sd	a4,16(sp)
   11620:	4785                	li	a5,1
   11622:	c26ff06f          	j	10a48 <_vfprintf_r+0x3ac>
   11626:	0014f713          	andi	a4,s1,1
   1162a:	ac070963          	beqz	a4,108fc <_vfprintf_r+0x260>
   1162e:	b461                	j	110b6 <_vfprintf_r+0xa1a>
   11630:	6782                	ld	a5,0(sp)
   11632:	8ca2                	mv	s9,s0
   11634:	e31c                	sd	a5,0(a4)
   11636:	af8ff06f          	j	1092e <_vfprintf_r+0x292>
   1163a:	67c2                	ld	a5,16(sp)
   1163c:	e83a                	sd	a4,16(sp)
   1163e:	0007b983          	ld	s3,0(a5)
   11642:	4785                	li	a5,1
   11644:	c04ff06f          	j	10a48 <_vfprintf_r+0x3ac>
   11648:	67c2                	ld	a5,16(sp)
   1164a:	639c                	ld	a5,0(a5)
   1164c:	89be                	mv	s3,a5
   1164e:	b90ff06f          	j	109de <_vfprintf_r+0x342>
   11652:	67c2                	ld	a5,16(sp)
   11654:	0007b983          	ld	s3,0(a5)
   11658:	be4ff06f          	j	10a3c <_vfprintf_r+0x3a0>
   1165c:	67c2                	ld	a5,16(sp)
   1165e:	07bd                	addi	a5,a5,15
   11660:	9bc1                	andi	a5,a5,-16
   11662:	6394                	ld	a3,0(a5)
   11664:	6798                	ld	a4,8(a5)
   11666:	07c1                	addi	a5,a5,16
   11668:	e83e                	sd	a5,16(sp)
   1166a:	e236                	sd	a3,256(sp)
   1166c:	e63a                	sd	a4,264(sp)
   1166e:	c50ff06f          	j	10abe <_vfprintf_r+0x422>
   11672:	e83a                	sd	a4,16(sp)
   11674:	47a5                	li	a5,9
   11676:	8826                	mv	a6,s1
   11678:	cb37f3e3          	bgeu	a5,s3,1131e <_vfprintf_r+0xc82>
   1167c:	40087793          	andi	a5,a6,1024
   11680:	18c10c13          	addi	s8,sp,396
   11684:	2781                	sext.w	a5,a5
   11686:	f002                	sd	zero,32(sp)
   11688:	85e2                	mv	a1,s8
   1168a:	44a9                	li	s1,10
   1168c:	4725                	li	a4,9
   1168e:	0ff00693          	li	a3,255
   11692:	a039                	j	116a0 <_vfprintf_r+0x1004>
   11694:	0299d633          	divu	a2,s3,s1
   11698:	9d3771e3          	bgeu	a4,s3,1105a <_vfprintf_r+0x9be>
   1169c:	89b2                	mv	s3,a2
   1169e:	85e6                	mv	a1,s9
   116a0:	7502                	ld	a0,32(sp)
   116a2:	fff58c93          	addi	s9,a1,-1
   116a6:	2505                	addiw	a0,a0,1
   116a8:	f02a                	sd	a0,32(sp)
   116aa:	0299f633          	remu	a2,s3,s1
   116ae:	0306061b          	addiw	a2,a2,48
   116b2:	fec58fa3          	sb	a2,-1(a1)
   116b6:	dff9                	beqz	a5,11694 <_vfprintf_r+0xff8>
   116b8:	7626                	ld	a2,104(sp)
   116ba:	00064603          	lbu	a2,0(a2)
   116be:	fcc51be3          	bne	a0,a2,11694 <_vfprintf_r+0xff8>
   116c2:	fcd609e3          	beq	a2,a3,11694 <_vfprintf_r+0xff8>
   116c6:	99377ae3          	bgeu	a4,s3,1105a <_vfprintf_r+0x9be>
   116ca:	fc3e                	sd	a5,56(sp)
   116cc:	67aa                	ld	a5,136(sp)
   116ce:	65ca                	ld	a1,144(sp)
   116d0:	f81a                	sd	t1,48(sp)
   116d2:	40fc8cb3          	sub	s9,s9,a5
   116d6:	863e                	mv	a2,a5
   116d8:	8566                	mv	a0,s9
   116da:	ec76                	sd	t4,24(sp)
   116dc:	e442                	sd	a6,8(sp)
   116de:	08b050ef          	jal	ra,16f68 <strncpy>
   116e2:	77a6                	ld	a5,104(sp)
   116e4:	0299d633          	divu	a2,s3,s1
   116e8:	6822                	ld	a6,8(sp)
   116ea:	0017c583          	lbu	a1,1(a5)
   116ee:	6ee2                	ld	t4,24(sp)
   116f0:	7342                	ld	t1,48(sp)
   116f2:	00b035b3          	snez	a1,a1
   116f6:	97ae                	add	a5,a5,a1
   116f8:	f4be                	sd	a5,104(sp)
   116fa:	f002                	sd	zero,32(sp)
   116fc:	77e2                	ld	a5,56(sp)
   116fe:	4725                	li	a4,9
   11700:	0ff00693          	li	a3,255
   11704:	bf61                	j	1169c <_vfprintf_r+0x1000>
   11706:	00068c1b          	sext.w	s8,a3
   1170a:	d98040e3          	bgtz	s8,1148a <_vfprintf_r+0xdee>
   1170e:	bb71                	j	114aa <_vfprintf_r+0xe0e>
   11710:	0017061b          	addiw	a2,a4,1
   11714:	010c0713          	addi	a4,s8,16
   11718:	9db6                	add	s11,s11,a3
   1171a:	00dc3423          	sd	a3,8(s8)
   1171e:	012c3023          	sd	s2,0(s8)
   11722:	f26e                	sd	s11,288(sp)
   11724:	10c12c23          	sw	a2,280(sp)
   11728:	469d                	li	a3,7
   1172a:	44c6d563          	bge	a3,a2,11b74 <_vfprintf_r+0x14d8>
   1172e:	0a10                	addi	a2,sp,272
   11730:	85d2                	mv	a1,s4
   11732:	8556                	mv	a0,s5
   11734:	536070ef          	jal	ra,18c6a <__sprint_r>
   11738:	b00512e3          	bnez	a0,1123c <_vfprintf_r+0xba0>
   1173c:	11812603          	lw	a2,280(sp)
   11740:	7d92                	ld	s11,288(sp)
   11742:	1a010313          	addi	t1,sp,416
   11746:	2605                	addiw	a2,a2,1
   11748:	8c5e                	mv	s8,s7
   1174a:	b665                	j	112f2 <_vfprintf_r+0xc56>
   1174c:	8826                	mv	a6,s1
   1174e:	825ff06f          	j	10f72 <_vfprintf_r+0x8d6>
   11752:	0000b797          	auipc	a5,0xb
   11756:	d2e78793          	addi	a5,a5,-722 # 1c480 <__clzdi2+0x1c8>
   1175a:	f43e                	sd	a5,40(sp)
   1175c:	66c2                	ld	a3,16(sp)
   1175e:	0204f793          	andi	a5,s1,32
   11762:	00868713          	addi	a4,a3,8
   11766:	c7f9                	beqz	a5,11834 <_vfprintf_r+0x1198>
   11768:	0006b983          	ld	s3,0(a3)
   1176c:	0014f793          	andi	a5,s1,1
   11770:	cf81                	beqz	a5,11788 <_vfprintf_r+0x10ec>
   11772:	00098b63          	beqz	s3,11788 <_vfprintf_r+0x10ec>
   11776:	0024e493          	ori	s1,s1,2
   1177a:	03000793          	li	a5,48
   1177e:	0ef10023          	sb	a5,224(sp)
   11782:	0fb100a3          	sb	s11,225(sp)
   11786:	2481                	sext.w	s1,s1
   11788:	bff4f493          	andi	s1,s1,-1025
   1178c:	0004881b          	sext.w	a6,s1
   11790:	e83a                	sd	a4,16(sp)
   11792:	4789                	li	a5,2
   11794:	ab4ff06f          	j	10a48 <_vfprintf_r+0x3ac>
   11798:	2004e493          	ori	s1,s1,512
   1179c:	00144f03          	lbu	t5,1(s0)
   117a0:	2481                	sext.w	s1,s1
   117a2:	0405                	addi	s0,s0,1
   117a4:	82cff06f          	j	107d0 <_vfprintf_r+0x134>
   117a8:	0204e493          	ori	s1,s1,32
   117ac:	00144f03          	lbu	t5,1(s0)
   117b0:	2481                	sext.w	s1,s1
   117b2:	0405                	addi	s0,s0,1
   117b4:	81cff06f          	j	107d0 <_vfprintf_r+0x134>
   117b8:	0a10                	addi	a2,sp,272
   117ba:	85d2                	mv	a1,s4
   117bc:	8556                	mv	a0,s5
   117be:	4ac070ef          	jal	ra,18c6a <__sprint_r>
   117c2:	a6051de3          	bnez	a0,1123c <_vfprintf_r+0xba0>
   117c6:	7792                	ld	a5,288(sp)
   117c8:	835e                	mv	t1,s7
   117ca:	ba09                	j	110dc <_vfprintf_r+0xa40>
   117cc:	0000b797          	auipc	a5,0xb
   117d0:	c9c78793          	addi	a5,a5,-868 # 1c468 <__clzdi2+0x1b0>
   117d4:	f43e                	sd	a5,40(sp)
   117d6:	b759                	j	1175c <_vfprintf_r+0x10c0>
   117d8:	4799                	li	a5,6
   117da:	000e8c1b          	sext.w	s8,t4
   117de:	3dd7eb63          	bltu	a5,t4,11bb4 <_vfprintf_r+0x1518>
   117e2:	89e2                	mv	s3,s8
   117e4:	e836                	sd	a3,16(sp)
   117e6:	0000bc97          	auipc	s9,0xb
   117ea:	cb2c8c93          	addi	s9,s9,-846 # 1c498 <__clzdi2+0x1e0>
   117ee:	854ff06f          	j	10842 <_vfprintf_r+0x1a6>
   117f2:	11812703          	lw	a4,280(sp)
   117f6:	218d5063          	bge	s10,s8,119f6 <_vfprintf_r+0x135a>
   117fa:	4d9d                	li	s11,7
   117fc:	a021                	j	11804 <_vfprintf_r+0x1168>
   117fe:	3c41                	addiw	s8,s8,-16
   11800:	1f8d5b63          	bge	s10,s8,119f6 <_vfprintf_r+0x135a>
   11804:	2705                	addiw	a4,a4,1
   11806:	07c1                	addi	a5,a5,16
   11808:	01233023          	sd	s2,0(t1)
   1180c:	01a33423          	sd	s10,8(t1)
   11810:	f23e                	sd	a5,288(sp)
   11812:	10e12c23          	sw	a4,280(sp)
   11816:	0341                	addi	t1,t1,16
   11818:	feedd3e3          	bge	s11,a4,117fe <_vfprintf_r+0x1162>
   1181c:	0a10                	addi	a2,sp,272
   1181e:	85d2                	mv	a1,s4
   11820:	8556                	mv	a0,s5
   11822:	448070ef          	jal	ra,18c6a <__sprint_r>
   11826:	a0051be3          	bnez	a0,1123c <_vfprintf_r+0xba0>
   1182a:	7792                	ld	a5,288(sp)
   1182c:	11812703          	lw	a4,280(sp)
   11830:	835e                	mv	t1,s7
   11832:	b7f1                	j	117fe <_vfprintf_r+0x1162>
   11834:	0104f793          	andi	a5,s1,16
   11838:	c3cd                	beqz	a5,118da <_vfprintf_r+0x123e>
   1183a:	67c2                	ld	a5,16(sp)
   1183c:	0007b983          	ld	s3,0(a5)
   11840:	b735                	j	1176c <_vfprintf_r+0x10d0>
   11842:	0a10                	addi	a2,sp,272
   11844:	85d2                	mv	a1,s4
   11846:	8556                	mv	a0,s5
   11848:	422070ef          	jal	ra,18c6a <__sprint_r>
   1184c:	9e0518e3          	bnez	a0,1123c <_vfprintf_r+0xba0>
   11850:	7d92                	ld	s11,288(sp)
   11852:	11812703          	lw	a4,280(sp)
   11856:	8c5e                	mv	s8,s7
   11858:	b41d                	j	1127e <_vfprintf_r+0xbe2>
   1185a:	0a10                	addi	a2,sp,272
   1185c:	85d2                	mv	a1,s4
   1185e:	8556                	mv	a0,s5
   11860:	40a070ef          	jal	ra,18c6a <__sprint_r>
   11864:	9c051ce3          	bnez	a0,1123c <_vfprintf_r+0xba0>
   11868:	7d92                	ld	s11,288(sp)
   1186a:	11812703          	lw	a4,280(sp)
   1186e:	8c5e                	mv	s8,s7
   11870:	bc0d                	j	112a2 <_vfprintf_r+0xc06>
   11872:	11812703          	lw	a4,280(sp)
   11876:	0000b697          	auipc	a3,0xb
   1187a:	c2a68693          	addi	a3,a3,-982 # 1c4a0 <__clzdi2+0x1e8>
   1187e:	00d33023          	sd	a3,0(t1)
   11882:	2705                	addiw	a4,a4,1
   11884:	4685                	li	a3,1
   11886:	0785                	addi	a5,a5,1
   11888:	00d33423          	sd	a3,8(t1)
   1188c:	10e12c23          	sw	a4,280(sp)
   11890:	0007069b          	sext.w	a3,a4
   11894:	f23e                	sd	a5,288(sp)
   11896:	471d                	li	a4,7
   11898:	0341                	addi	t1,t1,16
   1189a:	2ed74363          	blt	a4,a3,11b80 <_vfprintf_r+0x14e4>
   1189e:	c4061363          	bnez	a2,10ce4 <_vfprintf_r+0x648>
   118a2:	7682                	ld	a3,32(sp)
   118a4:	0014f713          	andi	a4,s1,1
   118a8:	8f55                	or	a4,a4,a3
   118aa:	e319                	bnez	a4,118b0 <_vfprintf_r+0x1214>
   118ac:	850ff06f          	j	108fc <_vfprintf_r+0x260>
   118b0:	76e6                	ld	a3,120(sp)
   118b2:	7746                	ld	a4,112(sp)
   118b4:	00d33023          	sd	a3,0(t1)
   118b8:	11812683          	lw	a3,280(sp)
   118bc:	97ba                	add	a5,a5,a4
   118be:	00e33423          	sd	a4,8(t1)
   118c2:	2685                	addiw	a3,a3,1
   118c4:	0006871b          	sext.w	a4,a3
   118c8:	10d12c23          	sw	a3,280(sp)
   118cc:	f23e                	sd	a5,288(sp)
   118ce:	469d                	li	a3,7
   118d0:	c2e6cd63          	blt	a3,a4,10d0a <_vfprintf_r+0x66e>
   118d4:	0341                	addi	t1,t1,16
   118d6:	c54ff06f          	j	10d2a <_vfprintf_r+0x68e>
   118da:	66c2                	ld	a3,16(sp)
   118dc:	0404f793          	andi	a5,s1,64
   118e0:	0006a983          	lw	s3,0(a3)
   118e4:	cbe1                	beqz	a5,119b4 <_vfprintf_r+0x1318>
   118e6:	19c2                	slli	s3,s3,0x30
   118e8:	0309d993          	srli	s3,s3,0x30
   118ec:	b541                	j	1176c <_vfprintf_r+0x10d0>
   118ee:	0a10                	addi	a2,sp,272
   118f0:	85d2                	mv	a1,s4
   118f2:	8556                	mv	a0,s5
   118f4:	376070ef          	jal	ra,18c6a <__sprint_r>
   118f8:	940512e3          	bnez	a0,1123c <_vfprintf_r+0xba0>
   118fc:	7792                	ld	a5,288(sp)
   118fe:	835e                	mv	t1,s7
   11900:	faeff06f          	j	110ae <_vfprintf_r+0xa12>
   11904:	0017069b          	addiw	a3,a4,1
   11908:	8736                	mv	a4,a3
   1190a:	97e2                	add	a5,a5,s8
   1190c:	01233023          	sd	s2,0(t1)
   11910:	fdbfe06f          	j	108ea <_vfprintf_r+0x24e>
   11914:	6512                	ld	a0,256(sp)
   11916:	65b2                	ld	a1,264(sp)
   11918:	4601                	li	a2,0
   1191a:	4681                	li	a3,0
   1191c:	e41a                	sd	t1,8(sp)
   1191e:	700090ef          	jal	ra,1b01e <__letf2>
   11922:	6322                	ld	t1,8(sp)
   11924:	54054763          	bltz	a0,11e72 <_vfprintf_r+0x17d6>
   11928:	0df14783          	lbu	a5,223(sp)
   1192c:	04700713          	li	a4,71
   11930:	0000bc97          	auipc	s9,0xb
   11934:	b18c8c93          	addi	s9,s9,-1256 # 1c448 <__clzdi2+0x190>
   11938:	25b74f63          	blt	a4,s11,11b96 <_vfprintf_r+0x14fa>
   1193c:	f7f4f493          	andi	s1,s1,-129
   11940:	ec02                	sd	zero,24(sp)
   11942:	e882                	sd	zero,80(sp)
   11944:	f082                	sd	zero,96(sp)
   11946:	ec82                	sd	zero,88(sp)
   11948:	2481                	sext.w	s1,s1
   1194a:	498d                	li	s3,3
   1194c:	4c0d                	li	s8,3
   1194e:	4e81                	li	t4,0
   11950:	8c079863          	bnez	a5,10a20 <_vfprintf_r+0x384>
   11954:	ef9fe06f          	j	1084c <_vfprintf_r+0x1b0>
   11958:	8566                	mv	a0,s9
   1195a:	e41a                	sd	t1,8(sp)
   1195c:	e836                	sd	a3,16(sp)
   1195e:	cabfe0ef          	jal	ra,10608 <strlen>
   11962:	00050c1b          	sext.w	s8,a0
   11966:	fffc4993          	not	s3,s8
   1196a:	0df14783          	lbu	a5,223(sp)
   1196e:	43f9d993          	srai	s3,s3,0x3f
   11972:	013c79b3          	and	s3,s8,s3
   11976:	ec02                	sd	zero,24(sp)
   11978:	e882                	sd	zero,80(sp)
   1197a:	f082                	sd	zero,96(sp)
   1197c:	ec82                	sd	zero,88(sp)
   1197e:	6322                	ld	t1,8(sp)
   11980:	2981                	sext.w	s3,s3
   11982:	4e81                	li	t4,0
   11984:	88079e63          	bnez	a5,10a20 <_vfprintf_r+0x384>
   11988:	ec5fe06f          	j	1084c <_vfprintf_r+0x1b0>
   1198c:	20087793          	andi	a5,a6,512
   11990:	26078463          	beqz	a5,11bf8 <_vfprintf_r+0x155c>
   11994:	0ff9f993          	andi	s3,s3,255
   11998:	e83a                	sd	a4,16(sp)
   1199a:	4785                	li	a5,1
   1199c:	8acff06f          	j	10a48 <_vfprintf_r+0x3ac>
   119a0:	2004f793          	andi	a5,s1,512
   119a4:	24078463          	beqz	a5,11bec <_vfprintf_r+0x1550>
   119a8:	67c2                	ld	a5,16(sp)
   119aa:	00078983          	lb	s3,0(a5)
   119ae:	87ce                	mv	a5,s3
   119b0:	82eff06f          	j	109de <_vfprintf_r+0x342>
   119b4:	2004f793          	andi	a5,s1,512
   119b8:	24078763          	beqz	a5,11c06 <_vfprintf_r+0x156a>
   119bc:	0ff9f993          	andi	s3,s3,255
   119c0:	b375                	j	1176c <_vfprintf_r+0x10d0>
   119c2:	2004f793          	andi	a5,s1,512
   119c6:	20078e63          	beqz	a5,11be2 <_vfprintf_r+0x1546>
   119ca:	0ff9f993          	andi	s3,s3,255
   119ce:	86eff06f          	j	10a3c <_vfprintf_r+0x3a0>
   119d2:	67b2                	ld	a5,264(sp)
   119d4:	2207cd63          	bltz	a5,11c0e <_vfprintf_r+0x1572>
   119d8:	0df14783          	lbu	a5,223(sp)
   119dc:	04700713          	li	a4,71
   119e0:	0000bc97          	auipc	s9,0xb
   119e4:	a78c8c93          	addi	s9,s9,-1416 # 1c458 <__clzdi2+0x1a0>
   119e8:	f5b75ae3          	bge	a4,s11,1193c <_vfprintf_r+0x12a0>
   119ec:	0000bc97          	auipc	s9,0xb
   119f0:	a74c8c93          	addi	s9,s9,-1420 # 1c460 <__clzdi2+0x1a8>
   119f4:	b7a1                	j	1193c <_vfprintf_r+0x12a0>
   119f6:	0017069b          	addiw	a3,a4,1
   119fa:	97e2                	add	a5,a5,s8
   119fc:	01233023          	sd	s2,0(t1)
   11a00:	01833423          	sd	s8,8(t1)
   11a04:	f23e                	sd	a5,288(sp)
   11a06:	10d12c23          	sw	a3,280(sp)
   11a0a:	471d                	li	a4,7
   11a0c:	0341                	addi	t1,t1,16
   11a0e:	aad758e3          	bge	a4,a3,114be <_vfprintf_r+0xe22>
   11a12:	0a10                	addi	a2,sp,272
   11a14:	85d2                	mv	a1,s4
   11a16:	8556                	mv	a0,s5
   11a18:	252070ef          	jal	ra,18c6a <__sprint_r>
   11a1c:	820510e3          	bnez	a0,1123c <_vfprintf_r+0xba0>
   11a20:	7792                	ld	a5,288(sp)
   11a22:	835e                	mv	t1,s7
   11a24:	bc69                	j	114be <_vfprintf_r+0xe22>
   11a26:	7702                	ld	a4,32(sp)
   11a28:	4c1d                	li	s8,7
   11a2a:	9766                	add	a4,a4,s9
   11a2c:	f83a                	sd	a4,48(sp)
   11a2e:	7706                	ld	a4,96(sp)
   11a30:	cb49                	beqz	a4,11ac2 <_vfprintf_r+0x1426>
   11a32:	6746                	ld	a4,80(sp)
   11a34:	eb51                	bnez	a4,11ac8 <_vfprintf_r+0x142c>
   11a36:	7726                	ld	a4,104(sp)
   11a38:	177d                	addi	a4,a4,-1
   11a3a:	f4ba                	sd	a4,104(sp)
   11a3c:	7706                	ld	a4,96(sp)
   11a3e:	377d                	addiw	a4,a4,-1
   11a40:	f0ba                	sd	a4,96(sp)
   11a42:	674a                	ld	a4,144(sp)
   11a44:	66aa                	ld	a3,136(sp)
   11a46:	0341                	addi	t1,t1,16
   11a48:	fee33823          	sd	a4,-16(t1)
   11a4c:	11812703          	lw	a4,280(sp)
   11a50:	97b6                	add	a5,a5,a3
   11a52:	fed33c23          	sd	a3,-8(t1)
   11a56:	2705                	addiw	a4,a4,1
   11a58:	f23e                	sd	a5,288(sp)
   11a5a:	0007069b          	sext.w	a3,a4
   11a5e:	10e12c23          	sw	a4,280(sp)
   11a62:	0cdc4e63          	blt	s8,a3,11b3e <_vfprintf_r+0x14a2>
   11a66:	7726                	ld	a4,104(sp)
   11a68:	00074603          	lbu	a2,0(a4)
   11a6c:	7742                	ld	a4,48(sp)
   11a6e:	41b705bb          	subw	a1,a4,s11
   11a72:	0006071b          	sext.w	a4,a2
   11a76:	0007069b          	sext.w	a3,a4
   11a7a:	00e5d463          	bge	a1,a4,11a82 <_vfprintf_r+0x13e6>
   11a7e:	0005869b          	sext.w	a3,a1
   11a82:	02d05663          	blez	a3,11aae <_vfprintf_r+0x1412>
   11a86:	11812703          	lw	a4,280(sp)
   11a8a:	97b6                	add	a5,a5,a3
   11a8c:	01b33023          	sd	s11,0(t1)
   11a90:	0017061b          	addiw	a2,a4,1
   11a94:	00d33423          	sd	a3,8(t1)
   11a98:	f23e                	sd	a5,288(sp)
   11a9a:	10c12c23          	sw	a2,280(sp)
   11a9e:	0acc4a63          	blt	s8,a2,11b52 <_vfprintf_r+0x14b6>
   11aa2:	7726                	ld	a4,104(sp)
   11aa4:	0341                	addi	t1,t1,16
   11aa6:	00074603          	lbu	a2,0(a4)
   11aaa:	0006071b          	sext.w	a4,a2
   11aae:	fff6c593          	not	a1,a3
   11ab2:	95fd                	srai	a1,a1,0x3f
   11ab4:	8eed                	and	a3,a3,a1
   11ab6:	9f15                	subw	a4,a4,a3
   11ab8:	00e04c63          	bgtz	a4,11ad0 <_vfprintf_r+0x1434>
   11abc:	9db2                	add	s11,s11,a2
   11abe:	7706                	ld	a4,96(sp)
   11ac0:	fb2d                	bnez	a4,11a32 <_vfprintf_r+0x1396>
   11ac2:	6746                	ld	a4,80(sp)
   11ac4:	30070463          	beqz	a4,11dcc <_vfprintf_r+0x1730>
   11ac8:	6746                	ld	a4,80(sp)
   11aca:	377d                	addiw	a4,a4,-1
   11acc:	e8ba                	sd	a4,80(sp)
   11ace:	bf95                	j	11a42 <_vfprintf_r+0x13a6>
   11ad0:	11812683          	lw	a3,280(sp)
   11ad4:	00ed4663          	blt	s10,a4,11ae0 <_vfprintf_r+0x1444>
   11ad8:	a081                	j	11b18 <_vfprintf_r+0x147c>
   11ada:	3741                	addiw	a4,a4,-16
   11adc:	02ed5e63          	bge	s10,a4,11b18 <_vfprintf_r+0x147c>
   11ae0:	2685                	addiw	a3,a3,1
   11ae2:	07c1                	addi	a5,a5,16
   11ae4:	01233023          	sd	s2,0(t1)
   11ae8:	01a33423          	sd	s10,8(t1)
   11aec:	f23e                	sd	a5,288(sp)
   11aee:	10d12c23          	sw	a3,280(sp)
   11af2:	0341                	addi	t1,t1,16
   11af4:	fedc53e3          	bge	s8,a3,11ada <_vfprintf_r+0x143e>
   11af8:	0a10                	addi	a2,sp,272
   11afa:	85d2                	mv	a1,s4
   11afc:	8556                	mv	a0,s5
   11afe:	e43a                	sd	a4,8(sp)
   11b00:	16a070ef          	jal	ra,18c6a <__sprint_r>
   11b04:	f2051c63          	bnez	a0,1123c <_vfprintf_r+0xba0>
   11b08:	6722                	ld	a4,8(sp)
   11b0a:	7792                	ld	a5,288(sp)
   11b0c:	11812683          	lw	a3,280(sp)
   11b10:	3741                	addiw	a4,a4,-16
   11b12:	835e                	mv	t1,s7
   11b14:	fced46e3          	blt	s10,a4,11ae0 <_vfprintf_r+0x1444>
   11b18:	2685                	addiw	a3,a3,1
   11b1a:	97ba                	add	a5,a5,a4
   11b1c:	00e33423          	sd	a4,8(t1)
   11b20:	01233023          	sd	s2,0(t1)
   11b24:	f23e                	sd	a5,288(sp)
   11b26:	0006871b          	sext.w	a4,a3
   11b2a:	10d12c23          	sw	a3,280(sp)
   11b2e:	32ec4463          	blt	s8,a4,11e56 <_vfprintf_r+0x17ba>
   11b32:	7726                	ld	a4,104(sp)
   11b34:	0341                	addi	t1,t1,16
   11b36:	00074603          	lbu	a2,0(a4)
   11b3a:	9db2                	add	s11,s11,a2
   11b3c:	b749                	j	11abe <_vfprintf_r+0x1422>
   11b3e:	0a10                	addi	a2,sp,272
   11b40:	85d2                	mv	a1,s4
   11b42:	8556                	mv	a0,s5
   11b44:	126070ef          	jal	ra,18c6a <__sprint_r>
   11b48:	ee051a63          	bnez	a0,1123c <_vfprintf_r+0xba0>
   11b4c:	7792                	ld	a5,288(sp)
   11b4e:	835e                	mv	t1,s7
   11b50:	bf19                	j	11a66 <_vfprintf_r+0x13ca>
   11b52:	0a10                	addi	a2,sp,272
   11b54:	85d2                	mv	a1,s4
   11b56:	8556                	mv	a0,s5
   11b58:	e436                	sd	a3,8(sp)
   11b5a:	110070ef          	jal	ra,18c6a <__sprint_r>
   11b5e:	ec051f63          	bnez	a0,1123c <_vfprintf_r+0xba0>
   11b62:	77a6                	ld	a5,104(sp)
   11b64:	66a2                	ld	a3,8(sp)
   11b66:	835e                	mv	t1,s7
   11b68:	0007c603          	lbu	a2,0(a5)
   11b6c:	7792                	ld	a5,288(sp)
   11b6e:	0006071b          	sext.w	a4,a2
   11b72:	bf35                	j	11aae <_vfprintf_r+0x1412>
   11b74:	2605                	addiw	a2,a2,1
   11b76:	01070313          	addi	t1,a4,16
   11b7a:	8c3a                	mv	s8,a4
   11b7c:	f76ff06f          	j	112f2 <_vfprintf_r+0xc56>
   11b80:	0a10                	addi	a2,sp,272
   11b82:	85d2                	mv	a1,s4
   11b84:	8556                	mv	a0,s5
   11b86:	0e4070ef          	jal	ra,18c6a <__sprint_r>
   11b8a:	ea051963          	bnez	a0,1123c <_vfprintf_r+0xba0>
   11b8e:	562e                	lw	a2,232(sp)
   11b90:	7792                	ld	a5,288(sp)
   11b92:	835e                	mv	t1,s7
   11b94:	b329                	j	1189e <_vfprintf_r+0x1202>
   11b96:	0000bc97          	auipc	s9,0xb
   11b9a:	8bac8c93          	addi	s9,s9,-1862 # 1c450 <__clzdi2+0x198>
   11b9e:	bb79                	j	1193c <_vfprintf_r+0x12a0>
   11ba0:	0a10                	addi	a2,sp,272
   11ba2:	85d2                	mv	a1,s4
   11ba4:	8556                	mv	a0,s5
   11ba6:	0c4070ef          	jal	ra,18c6a <__sprint_r>
   11baa:	e8051963          	bnez	a0,1123c <_vfprintf_r+0xba0>
   11bae:	7792                	ld	a5,288(sp)
   11bb0:	835e                	mv	t1,s7
   11bb2:	b8e5                	j	114aa <_vfprintf_r+0xe0e>
   11bb4:	4c19                	li	s8,6
   11bb6:	b135                	j	117e2 <_vfprintf_r+0x1146>
   11bb8:	7682                	ld	a3,32(sp)
   11bba:	00dc8833          	add	a6,s9,a3
   11bbe:	40e6873b          	subw	a4,a3,a4
   11bc2:	41b80ebb          	subw	t4,a6,s11
   11bc6:	0007069b          	sext.w	a3,a4
   11bca:	00ded363          	bge	t4,a3,11bd0 <_vfprintf_r+0x1534>
   11bce:	8776                	mv	a4,t4
   11bd0:	00070c9b          	sext.w	s9,a4
   11bd4:	b2bd                	j	11542 <_vfprintf_r+0xea6>
   11bd6:	6782                	ld	a5,0(sp)
   11bd8:	8ca2                	mv	s9,s0
   11bda:	00f71023          	sh	a5,0(a4)
   11bde:	d51fe06f          	j	1092e <_vfprintf_r+0x292>
   11be2:	1982                	slli	s3,s3,0x20
   11be4:	0209d993          	srli	s3,s3,0x20
   11be8:	e55fe06f          	j	10a3c <_vfprintf_r+0x3a0>
   11bec:	67c2                	ld	a5,16(sp)
   11bee:	0007a983          	lw	s3,0(a5)
   11bf2:	87ce                	mv	a5,s3
   11bf4:	debfe06f          	j	109de <_vfprintf_r+0x342>
   11bf8:	1982                	slli	s3,s3,0x20
   11bfa:	0209d993          	srli	s3,s3,0x20
   11bfe:	e83a                	sd	a4,16(sp)
   11c00:	4785                	li	a5,1
   11c02:	e47fe06f          	j	10a48 <_vfprintf_r+0x3ac>
   11c06:	1982                	slli	s3,s3,0x20
   11c08:	0209d993          	srli	s3,s3,0x20
   11c0c:	b685                	j	1176c <_vfprintf_r+0x10d0>
   11c0e:	02d00793          	li	a5,45
   11c12:	0cf10fa3          	sb	a5,223(sp)
   11c16:	b3d9                	j	119dc <_vfprintf_r+0x1340>
   11c18:	0a10                	addi	a2,sp,272
   11c1a:	85d2                	mv	a1,s4
   11c1c:	8556                	mv	a0,s5
   11c1e:	04c070ef          	jal	ra,18c6a <__sprint_r>
   11c22:	d1dfe06f          	j	1093e <_vfprintf_r+0x2a2>
   11c26:	03000793          	li	a5,48
   11c2a:	0ef10023          	sb	a5,224(sp)
   11c2e:	05800713          	li	a4,88
   11c32:	0024e793          	ori	a5,s1,2
   11c36:	2781                	sext.w	a5,a5
   11c38:	0ee100a3          	sb	a4,225(sp)
   11c3c:	ed3e                	sd	a5,152(sp)
   11c3e:	06300713          	li	a4,99
   11c42:	ec02                	sd	zero,24(sp)
   11c44:	12810c93          	addi	s9,sp,296
   11c48:	47d74563          	blt	a4,t4,120b2 <_vfprintf_r+0x1a16>
   11c4c:	69b2                	ld	s3,264(sp)
   11c4e:	fdfdf713          	andi	a4,s11,-33
   11c52:	1024e493          	ori	s1,s1,258
   11c56:	f0ba                	sd	a4,96(sp)
   11c58:	e582                	sd	zero,200(sp)
   11c5a:	6c12                	ld	s8,256(sp)
   11c5c:	2481                	sext.w	s1,s1
   11c5e:	1e09c463          	bltz	s3,11e46 <_vfprintf_r+0x17aa>
   11c62:	06100793          	li	a5,97
   11c66:	52fd8c63          	beq	s11,a5,1219e <_vfprintf_r+0x1b02>
   11c6a:	04100793          	li	a5,65
   11c6e:	00fd8463          	beq	s11,a5,11c76 <_vfprintf_r+0x15da>
   11c72:	eb7fe06f          	j	10b28 <_vfprintf_r+0x48c>
   11c76:	85ce                	mv	a1,s3
   11c78:	8562                	mv	a0,s8
   11c7a:	fc1a                	sd	t1,56(sp)
   11c7c:	f876                	sd	t4,48(sp)
   11c7e:	4080a0ef          	jal	ra,1c086 <__trunctfdf2>
   11c82:	11a8                	addi	a0,sp,232
   11c84:	775040ef          	jal	ra,16bf8 <frexp>
   11c88:	33e0a0ef          	jal	ra,1bfc6 <__extenddftf2>
   11c8c:	0000b797          	auipc	a5,0xb
   11c90:	9d478793          	addi	a5,a5,-1580 # 1c660 <zeroes.4521+0x38>
   11c94:	6390                	ld	a2,0(a5)
   11c96:	6794                	ld	a3,8(a5)
   11c98:	42e090ef          	jal	ra,1b0c6 <__multf3>
   11c9c:	4601                	li	a2,0
   11c9e:	4681                	li	a3,0
   11ca0:	f02a                	sd	a0,32(sp)
   11ca2:	e42e                	sd	a1,8(sp)
   11ca4:	23e090ef          	jal	ra,1aee2 <__eqtf2>
   11ca8:	62a2                	ld	t0,8(sp)
   11caa:	7702                	ld	a4,32(sp)
   11cac:	7ec2                	ld	t4,48(sp)
   11cae:	7362                	ld	t1,56(sp)
   11cb0:	e119                	bnez	a0,11cb6 <_vfprintf_r+0x161a>
   11cb2:	4785                	li	a5,1
   11cb4:	d5be                	sw	a5,232(sp)
   11cb6:	0000a797          	auipc	a5,0xa
   11cba:	7b278793          	addi	a5,a5,1970 # 1c468 <__clzdi2+0x1b0>
   11cbe:	e8be                	sd	a5,80(sp)
   11cc0:	020e9793          	slli	a5,t4,0x20
   11cc4:	0000b697          	auipc	a3,0xb
   11cc8:	97c68693          	addi	a3,a3,-1668 # 1c640 <zeroes.4521+0x18>
   11ccc:	9381                	srli	a5,a5,0x20
   11cce:	6290                	ld	a2,0(a3)
   11cd0:	0785                	addi	a5,a5,1
   11cd2:	6694                	ld	a3,8(a3)
   11cd4:	97e6                	add	a5,a5,s9
   11cd6:	f13e                	sd	a5,160(sp)
   11cd8:	01dc87bb          	addw	a5,s9,t4
   11cdc:	fd32                	sd	a2,184(sp)
   11cde:	e1b6                	sd	a3,192(sp)
   11ce0:	8c66                	mv	s8,s9
   11ce2:	db3e                	sw	a5,180(sp)
   11ce4:	a831                	j	11d00 <_vfprintf_r+0x1664>
   11ce6:	4601                	li	a2,0
   11ce8:	4681                	li	a3,0
   11cea:	e4ae                	sd	a1,72(sp)
   11cec:	e0aa                	sd	a0,64(sp)
   11cee:	1f4090ef          	jal	ra,1aee2 <__eqtf2>
   11cf2:	7ec2                	ld	t4,48(sp)
   11cf4:	7362                	ld	t1,56(sp)
   11cf6:	6f86                	ld	t6,64(sp)
   11cf8:	68a6                	ld	a7,72(sp)
   11cfa:	62a2                	ld	t0,8(sp)
   11cfc:	7702                	ld	a4,32(sp)
   11cfe:	c135                	beqz	a0,11d62 <_vfprintf_r+0x16c6>
   11d00:	766a                	ld	a2,184(sp)
   11d02:	668e                	ld	a3,192(sp)
   11d04:	853a                	mv	a0,a4
   11d06:	8596                	mv	a1,t0
   11d08:	fc1a                	sd	t1,56(sp)
   11d0a:	f876                	sd	t4,48(sp)
   11d0c:	3ba090ef          	jal	ra,1b0c6 <__multf3>
   11d10:	e42e                	sd	a1,8(sp)
   11d12:	f02a                	sd	a0,32(sp)
   11d14:	1c00a0ef          	jal	ra,1bed4 <__fixtfsi>
   11d18:	0005099b          	sext.w	s3,a0
   11d1c:	854e                	mv	a0,s3
   11d1e:	24c0a0ef          	jal	ra,1bf6a <__floatsitf>
   11d22:	7882                	ld	a7,32(sp)
   11d24:	6722                	ld	a4,8(sp)
   11d26:	862a                	mv	a2,a0
   11d28:	86ae                	mv	a3,a1
   11d2a:	8546                	mv	a0,a7
   11d2c:	85ba                	mv	a1,a4
   11d2e:	1ab090ef          	jal	ra,1b6d8 <__subtf3>
   11d32:	67c6                	ld	a5,80(sp)
   11d34:	f562                	sd	s8,168(sp)
   11d36:	0c05                	addi	s8,s8,1
   11d38:	01378733          	add	a4,a5,s3
   11d3c:	57da                	lw	a5,180(sp)
   11d3e:	00074703          	lbu	a4,0(a4)
   11d42:	f02a                	sd	a0,32(sp)
   11d44:	418787bb          	subw	a5,a5,s8
   11d48:	ecbe                	sd	a5,88(sp)
   11d4a:	778a                	ld	a5,160(sp)
   11d4c:	feec0fa3          	sb	a4,-1(s8)
   11d50:	e42e                	sd	a1,8(sp)
   11d52:	7ec2                	ld	t4,48(sp)
   11d54:	7362                	ld	t1,56(sp)
   11d56:	8faa                	mv	t6,a0
   11d58:	88ae                	mv	a7,a1
   11d5a:	f98796e3          	bne	a5,s8,11ce6 <_vfprintf_r+0x164a>
   11d5e:	57fd                	li	a5,-1
   11d60:	ecbe                	sd	a5,88(sp)
   11d62:	0000b717          	auipc	a4,0xb
   11d66:	8ee70713          	addi	a4,a4,-1810 # 1c650 <zeroes.4521+0x28>
   11d6a:	6310                	ld	a2,0(a4)
   11d6c:	6714                	ld	a3,8(a4)
   11d6e:	857e                	mv	a0,t6
   11d70:	85c6                	mv	a1,a7
   11d72:	f01a                	sd	t1,32(sp)
   11d74:	e476                	sd	t4,8(sp)
   11d76:	e4fe                	sd	t6,72(sp)
   11d78:	e0b2                	sd	a2,64(sp)
   11d7a:	fc36                	sd	a3,56(sp)
   11d7c:	f846                	sd	a7,48(sp)
   11d7e:	1f8090ef          	jal	ra,1af76 <__getf2>
   11d82:	6ea2                	ld	t4,8(sp)
   11d84:	7302                	ld	t1,32(sp)
   11d86:	2ca04f63          	bgtz	a0,12064 <_vfprintf_r+0x19c8>
   11d8a:	6fa6                	ld	t6,72(sp)
   11d8c:	78c2                	ld	a7,48(sp)
   11d8e:	6606                	ld	a2,64(sp)
   11d90:	76e2                	ld	a3,56(sp)
   11d92:	857e                	mv	a0,t6
   11d94:	85c6                	mv	a1,a7
   11d96:	14c090ef          	jal	ra,1aee2 <__eqtf2>
   11d9a:	6ea2                	ld	t4,8(sp)
   11d9c:	7302                	ld	t1,32(sp)
   11d9e:	e509                	bnez	a0,11da8 <_vfprintf_r+0x170c>
   11da0:	0019f993          	andi	s3,s3,1
   11da4:	2c099063          	bnez	s3,12064 <_vfprintf_r+0x19c8>
   11da8:	67e6                	ld	a5,88(sp)
   11daa:	03000693          	li	a3,48
   11dae:	00178713          	addi	a4,a5,1
   11db2:	9762                	add	a4,a4,s8
   11db4:	0007c763          	bltz	a5,11dc2 <_vfprintf_r+0x1726>
   11db8:	0c05                	addi	s8,s8,1
   11dba:	fedc0fa3          	sb	a3,-1(s8)
   11dbe:	ff871de3          	bne	a4,s8,11db8 <_vfprintf_r+0x171c>
   11dc2:	419c07bb          	subw	a5,s8,s9
   11dc6:	f03e                	sd	a5,32(sp)
   11dc8:	de5fe06f          	j	10bac <_vfprintf_r+0x510>
   11dcc:	7702                	ld	a4,32(sp)
   11dce:	9766                	add	a4,a4,s9
   11dd0:	efb77e63          	bgeu	a4,s11,114cc <_vfprintf_r+0xe30>
   11dd4:	8dba                	mv	s11,a4
   11dd6:	ef6ff06f          	j	114cc <_vfprintf_r+0xe30>
   11dda:	6766                	ld	a4,88(sp)
   11ddc:	57f5                	li	a5,-3
   11dde:	00f74463          	blt	a4,a5,11de6 <_vfprintf_r+0x174a>
   11de2:	00eed863          	bge	t4,a4,11df2 <_vfprintf_r+0x1756>
   11de6:	3df9                	addiw	s11,s11,-2
   11de8:	fdfdf793          	andi	a5,s11,-33
   11dec:	f0be                	sd	a5,96(sp)
   11dee:	ddffe06f          	j	10bcc <_vfprintf_r+0x530>
   11df2:	7782                	ld	a5,32(sp)
   11df4:	6766                	ld	a4,88(sp)
   11df6:	16f74563          	blt	a4,a5,11f60 <_vfprintf_r+0x18c4>
   11dfa:	67ea                	ld	a5,152(sp)
   11dfc:	8c3a                	mv	s8,a4
   11dfe:	8b85                	andi	a5,a5,1
   11e00:	c781                	beqz	a5,11e08 <_vfprintf_r+0x176c>
   11e02:	77c6                	ld	a5,112(sp)
   11e04:	00e78c3b          	addw	s8,a5,a4
   11e08:	67ea                	ld	a5,152(sp)
   11e0a:	4007f793          	andi	a5,a5,1024
   11e0e:	c781                	beqz	a5,11e16 <_vfprintf_r+0x177a>
   11e10:	67e6                	ld	a5,88(sp)
   11e12:	30f04763          	bgtz	a5,12120 <_vfprintf_r+0x1a84>
   11e16:	fffc4993          	not	s3,s8
   11e1a:	43f9d993          	srai	s3,s3,0x3f
   11e1e:	013c79b3          	and	s3,s8,s3
   11e22:	2981                	sext.w	s3,s3
   11e24:	06700d93          	li	s11,103
   11e28:	e882                	sd	zero,80(sp)
   11e2a:	f082                	sd	zero,96(sp)
   11e2c:	e83fe06f          	j	10cae <_vfprintf_r+0x612>
   11e30:	0df14783          	lbu	a5,223(sp)
   11e34:	4e81                	li	t4,0
   11e36:	c399                	beqz	a5,11e3c <_vfprintf_r+0x17a0>
   11e38:	be9fe06f          	j	10a20 <_vfprintf_r+0x384>
   11e3c:	a11fe06f          	j	1084c <_vfprintf_r+0x1b0>
   11e40:	ed26                	sd	s1,152(sp)
   11e42:	ec02                	sd	zero,24(sp)
   11e44:	84fe                	mv	s1,t6
   11e46:	57fd                	li	a5,-1
   11e48:	17fe                	slli	a5,a5,0x3f
   11e4a:	00f9c9b3          	xor	s3,s3,a5
   11e4e:	02d00793          	li	a5,45
   11e52:	e5be                	sd	a5,200(sp)
   11e54:	b539                	j	11c62 <_vfprintf_r+0x15c6>
   11e56:	0a10                	addi	a2,sp,272
   11e58:	85d2                	mv	a1,s4
   11e5a:	8556                	mv	a0,s5
   11e5c:	60f060ef          	jal	ra,18c6a <__sprint_r>
   11e60:	bc051e63          	bnez	a0,1123c <_vfprintf_r+0xba0>
   11e64:	77a6                	ld	a5,104(sp)
   11e66:	835e                	mv	t1,s7
   11e68:	0007c603          	lbu	a2,0(a5)
   11e6c:	7792                	ld	a5,288(sp)
   11e6e:	9db2                	add	s11,s11,a2
   11e70:	b1b9                	j	11abe <_vfprintf_r+0x1422>
   11e72:	02d00793          	li	a5,45
   11e76:	0cf10fa3          	sb	a5,223(sp)
   11e7a:	bc4d                	j	1192c <_vfprintf_r+0x1290>
   11e7c:	8776                	mv	a4,t4
   11e7e:	11bc                	addi	a5,sp,232
   11e80:	0f810893          	addi	a7,sp,248
   11e84:	0ec10813          	addi	a6,sp,236
   11e88:	4689                	li	a3,2
   11e8a:	85e2                	mv	a1,s8
   11e8c:	864e                	mv	a2,s3
   11e8e:	8556                	mv	a0,s5
   11e90:	f01a                	sd	t1,32(sp)
   11e92:	e476                	sd	t4,8(sp)
   11e94:	460020ef          	jal	ra,142f4 <_ldtoa_r>
   11e98:	7706                	ld	a4,96(sp)
   11e9a:	04700793          	li	a5,71
   11e9e:	6ea2                	ld	t4,8(sp)
   11ea0:	7302                	ld	t1,32(sp)
   11ea2:	8caa                	mv	s9,a0
   11ea4:	02f71d63          	bne	a4,a5,11ede <_vfprintf_r+0x1842>
   11ea8:	67ea                	ld	a5,152(sp)
   11eaa:	8b85                	andi	a5,a5,1
   11eac:	18079b63          	bnez	a5,12042 <_vfprintf_r+0x19a6>
   11eb0:	04700713          	li	a4,71
   11eb4:	77ee                	ld	a5,248(sp)
   11eb6:	f0ba                	sd	a4,96(sp)
   11eb8:	ceffe06f          	j	10ba6 <_vfprintf_r+0x50a>
   11ebc:	8776                	mv	a4,t4
   11ebe:	0f810893          	addi	a7,sp,248
   11ec2:	0ec10813          	addi	a6,sp,236
   11ec6:	11bc                	addi	a5,sp,232
   11ec8:	468d                	li	a3,3
   11eca:	85e2                	mv	a1,s8
   11ecc:	864e                	mv	a2,s3
   11ece:	8556                	mv	a0,s5
   11ed0:	f01a                	sd	t1,32(sp)
   11ed2:	e476                	sd	t4,8(sp)
   11ed4:	420020ef          	jal	ra,142f4 <_ldtoa_r>
   11ed8:	6ea2                	ld	t4,8(sp)
   11eda:	7302                	ld	t1,32(sp)
   11edc:	8caa                	mv	s9,a0
   11ede:	7706                	ld	a4,96(sp)
   11ee0:	04600793          	li	a5,70
   11ee4:	01dc88b3          	add	a7,s9,t4
   11ee8:	00f70463          	beq	a4,a5,11ef0 <_vfprintf_r+0x1854>
   11eec:	c85fe06f          	j	10b70 <_vfprintf_r+0x4d4>
   11ef0:	000cc703          	lbu	a4,0(s9)
   11ef4:	03000793          	li	a5,48
   11ef8:	00f70663          	beq	a4,a5,11f04 <_vfprintf_r+0x1868>
   11efc:	572e                	lw	a4,232(sp)
   11efe:	98ba                	add	a7,a7,a4
   11f00:	c71fe06f          	j	10b70 <_vfprintf_r+0x4d4>
   11f04:	4601                	li	a2,0
   11f06:	4681                	li	a3,0
   11f08:	8562                	mv	a0,s8
   11f0a:	85ce                	mv	a1,s3
   11f0c:	f846                	sd	a7,48(sp)
   11f0e:	f01a                	sd	t1,32(sp)
   11f10:	e476                	sd	t4,8(sp)
   11f12:	7d1080ef          	jal	ra,1aee2 <__eqtf2>
   11f16:	6ea2                	ld	t4,8(sp)
   11f18:	7302                	ld	t1,32(sp)
   11f1a:	78c2                	ld	a7,48(sp)
   11f1c:	d165                	beqz	a0,11efc <_vfprintf_r+0x1860>
   11f1e:	4785                	li	a5,1
   11f20:	41d7873b          	subw	a4,a5,t4
   11f24:	d5ba                	sw	a4,232(sp)
   11f26:	98ba                	add	a7,a7,a4
   11f28:	c49fe06f          	j	10b70 <_vfprintf_r+0x4d4>
   11f2c:	0a10                	addi	a2,sp,272
   11f2e:	85d2                	mv	a1,s4
   11f30:	8556                	mv	a0,s5
   11f32:	539060ef          	jal	ra,18c6a <__sprint_r>
   11f36:	b0051363          	bnez	a0,1123c <_vfprintf_r+0xba0>
   11f3a:	572e                	lw	a4,232(sp)
   11f3c:	7792                	ld	a5,288(sp)
   11f3e:	835e                	mv	t1,s7
   11f40:	dc2ff06f          	j	11502 <_vfprintf_r+0xe66>
   11f44:	0df14783          	lbu	a5,223(sp)
   11f48:	e836                	sd	a3,16(sp)
   11f4a:	e882                	sd	zero,80(sp)
   11f4c:	f082                	sd	zero,96(sp)
   11f4e:	ec82                	sd	zero,88(sp)
   11f50:	89f6                	mv	s3,t4
   11f52:	8c76                	mv	s8,t4
   11f54:	4e81                	li	t4,0
   11f56:	c399                	beqz	a5,11f5c <_vfprintf_r+0x18c0>
   11f58:	ac9fe06f          	j	10a20 <_vfprintf_r+0x384>
   11f5c:	8f1fe06f          	j	1084c <_vfprintf_r+0x1b0>
   11f60:	7702                	ld	a4,32(sp)
   11f62:	77c6                	ld	a5,112(sp)
   11f64:	06700d93          	li	s11,103
   11f68:	00e78c3b          	addw	s8,a5,a4
   11f6c:	6766                	ld	a4,88(sp)
   11f6e:	2ce05263          	blez	a4,12232 <_vfprintf_r+0x1b96>
   11f72:	67ea                	ld	a5,152(sp)
   11f74:	4007f793          	andi	a5,a5,1024
   11f78:	1a079663          	bnez	a5,12124 <_vfprintf_r+0x1a88>
   11f7c:	fffc4993          	not	s3,s8
   11f80:	43f9d993          	srai	s3,s3,0x3f
   11f84:	013c79b3          	and	s3,s8,s3
   11f88:	2981                	sext.w	s3,s3
   11f8a:	bd79                	j	11e28 <_vfprintf_r+0x178c>
   11f8c:	67ea                	ld	a5,152(sp)
   11f8e:	6766                	ld	a4,88(sp)
   11f90:	8b85                	andi	a5,a5,1
   11f92:	00fee7b3          	or	a5,t4,a5
   11f96:	2ae05c63          	blez	a4,1224e <_vfprintf_r+0x1bb2>
   11f9a:	26079d63          	bnez	a5,12214 <_vfprintf_r+0x1b78>
   11f9e:	6c66                	ld	s8,88(sp)
   11fa0:	06600d93          	li	s11,102
   11fa4:	b7f9                	j	11f72 <_vfprintf_r+0x18d6>
   11fa6:	0a10                	addi	a2,sp,272
   11fa8:	85d2                	mv	a1,s4
   11faa:	8556                	mv	a0,s5
   11fac:	4bf060ef          	jal	ra,18c6a <__sprint_r>
   11fb0:	a8051663          	bnez	a0,1123c <_vfprintf_r+0xba0>
   11fb4:	56ae                	lw	a3,232(sp)
   11fb6:	7702                	ld	a4,32(sp)
   11fb8:	7792                	ld	a5,288(sp)
   11fba:	835e                	mv	t1,s7
   11fbc:	40d706bb          	subw	a3,a4,a3
   11fc0:	d82ff06f          	j	11542 <_vfprintf_r+0xea6>
   11fc4:	57fd                	li	a5,-1
   11fc6:	e03e                	sd	a5,0(sp)
   11fc8:	985fe06f          	j	1094c <_vfprintf_r+0x2b0>
   11fcc:	56c1                	li	a3,-16
   11fce:	40c00c3b          	negw	s8,a2
   11fd2:	02d65f63          	bge	a2,a3,12010 <_vfprintf_r+0x1974>
   11fd6:	4d9d                	li	s11,7
   11fd8:	a021                	j	11fe0 <_vfprintf_r+0x1944>
   11fda:	3c41                	addiw	s8,s8,-16
   11fdc:	038d5a63          	bge	s10,s8,12010 <_vfprintf_r+0x1974>
   11fe0:	2705                	addiw	a4,a4,1
   11fe2:	07c1                	addi	a5,a5,16
   11fe4:	01233023          	sd	s2,0(t1)
   11fe8:	01a33423          	sd	s10,8(t1)
   11fec:	f23e                	sd	a5,288(sp)
   11fee:	10e12c23          	sw	a4,280(sp)
   11ff2:	0341                	addi	t1,t1,16
   11ff4:	feedd3e3          	bge	s11,a4,11fda <_vfprintf_r+0x193e>
   11ff8:	0a10                	addi	a2,sp,272
   11ffa:	85d2                	mv	a1,s4
   11ffc:	8556                	mv	a0,s5
   11ffe:	46d060ef          	jal	ra,18c6a <__sprint_r>
   12002:	a2051d63          	bnez	a0,1123c <_vfprintf_r+0xba0>
   12006:	7792                	ld	a5,288(sp)
   12008:	11812703          	lw	a4,280(sp)
   1200c:	835e                	mv	t1,s7
   1200e:	b7f1                	j	11fda <_vfprintf_r+0x193e>
   12010:	2705                	addiw	a4,a4,1
   12012:	97e2                	add	a5,a5,s8
   12014:	01233023          	sd	s2,0(t1)
   12018:	01833423          	sd	s8,8(t1)
   1201c:	f23e                	sd	a5,288(sp)
   1201e:	10e12c23          	sw	a4,280(sp)
   12022:	469d                	li	a3,7
   12024:	8ae6d8e3          	bge	a3,a4,118d4 <_vfprintf_r+0x1238>
   12028:	0a10                	addi	a2,sp,272
   1202a:	85d2                	mv	a1,s4
   1202c:	8556                	mv	a0,s5
   1202e:	43d060ef          	jal	ra,18c6a <__sprint_r>
   12032:	a0051563          	bnez	a0,1123c <_vfprintf_r+0xba0>
   12036:	7792                	ld	a5,288(sp)
   12038:	11812703          	lw	a4,280(sp)
   1203c:	835e                	mv	t1,s7
   1203e:	cedfe06f          	j	10d2a <_vfprintf_r+0x68e>
   12042:	04700793          	li	a5,71
   12046:	01dc88b3          	add	a7,s9,t4
   1204a:	f0be                	sd	a5,96(sp)
   1204c:	b25fe06f          	j	10b70 <_vfprintf_r+0x4d4>
   12050:	8826                	mv	a6,s1
   12052:	accff06f          	j	1131e <_vfprintf_r+0xc82>
   12056:	03000793          	li	a5,48
   1205a:	0ef10023          	sb	a5,224(sp)
   1205e:	07800713          	li	a4,120
   12062:	bec1                	j	11c32 <_vfprintf_r+0x1596>
   12064:	77aa                	ld	a5,168(sp)
   12066:	8762                	mv	a4,s8
   12068:	fdbe                	sd	a5,248(sp)
   1206a:	67c6                	ld	a5,80(sp)
   1206c:	fffc4683          	lbu	a3,-1(s8)
   12070:	00f7c603          	lbu	a2,15(a5)
   12074:	00d61e63          	bne	a2,a3,12090 <_vfprintf_r+0x19f4>
   12078:	03000593          	li	a1,48
   1207c:	feb70fa3          	sb	a1,-1(a4)
   12080:	776e                	ld	a4,248(sp)
   12082:	fff70693          	addi	a3,a4,-1
   12086:	fdb6                	sd	a3,248(sp)
   12088:	fff74683          	lbu	a3,-1(a4)
   1208c:	fed608e3          	beq	a2,a3,1207c <_vfprintf_r+0x19e0>
   12090:	0016861b          	addiw	a2,a3,1
   12094:	03900593          	li	a1,57
   12098:	0ff67613          	andi	a2,a2,255
   1209c:	00b68563          	beq	a3,a1,120a6 <_vfprintf_r+0x1a0a>
   120a0:	fec70fa3          	sb	a2,-1(a4)
   120a4:	bb39                	j	11dc2 <_vfprintf_r+0x1726>
   120a6:	67c6                	ld	a5,80(sp)
   120a8:	00a7c603          	lbu	a2,10(a5)
   120ac:	fec70fa3          	sb	a2,-1(a4)
   120b0:	bb09                	j	11dc2 <_vfprintf_r+0x1726>
   120b2:	001e859b          	addiw	a1,t4,1
   120b6:	8556                	mv	a0,s5
   120b8:	ec1a                	sd	t1,24(sp)
   120ba:	e476                	sd	t4,8(sp)
   120bc:	2aa030ef          	jal	ra,15366 <_malloc_r>
   120c0:	6ea2                	ld	t4,8(sp)
   120c2:	6362                	ld	t1,24(sp)
   120c4:	8caa                	mv	s9,a0
   120c6:	1e050063          	beqz	a0,122a6 <_vfprintf_r+0x1c0a>
   120ca:	ec2a                	sd	a0,24(sp)
   120cc:	b641                	j	11c4c <_vfprintf_r+0x15b0>
   120ce:	000e9363          	bnez	t4,120d4 <_vfprintf_r+0x1a38>
   120d2:	4e85                	li	t4,1
   120d4:	69b2                	ld	s3,264(sp)
   120d6:	1004ef93          	ori	t6,s1,256
   120da:	6c12                	ld	s8,256(sp)
   120dc:	2f81                	sext.w	t6,t6
   120de:	d609c1e3          	bltz	s3,11e40 <_vfprintf_r+0x17a4>
   120e2:	8776                	mv	a4,t4
   120e4:	0f810893          	addi	a7,sp,248
   120e8:	0ec10813          	addi	a6,sp,236
   120ec:	11bc                	addi	a5,sp,232
   120ee:	4689                	li	a3,2
   120f0:	85e2                	mv	a1,s8
   120f2:	864e                	mv	a2,s3
   120f4:	8556                	mv	a0,s5
   120f6:	ec7e                	sd	t6,24(sp)
   120f8:	f01a                	sd	t1,32(sp)
   120fa:	e476                	sd	t4,8(sp)
   120fc:	1f8020ef          	jal	ra,142f4 <_ldtoa_r>
   12100:	6fe2                	ld	t6,24(sp)
   12102:	ed26                	sd	s1,152(sp)
   12104:	6ea2                	ld	t4,8(sp)
   12106:	7302                	ld	t1,32(sp)
   12108:	8caa                	mv	s9,a0
   1210a:	84fe                	mv	s1,t6
   1210c:	ec02                	sd	zero,24(sp)
   1210e:	e582                	sd	zero,200(sp)
   12110:	bb61                	j	11ea8 <_vfprintf_r+0x180c>
   12112:	4e99                	li	t4,6
   12114:	9fbfe06f          	j	10b0e <_vfprintf_r+0x472>
   12118:	c31c                	sw	a5,0(a4)
   1211a:	8ca2                	mv	s9,s0
   1211c:	813fe06f          	j	1092e <_vfprintf_r+0x292>
   12120:	06700d93          	li	s11,103
   12124:	77a6                	ld	a5,104(sp)
   12126:	0ff00713          	li	a4,255
   1212a:	e882                	sd	zero,80(sp)
   1212c:	0007c783          	lbu	a5,0(a5)
   12130:	f082                	sd	zero,96(sp)
   12132:	02e78863          	beq	a5,a4,12162 <_vfprintf_r+0x1ac6>
   12136:	0ff00693          	li	a3,255
   1213a:	6666                	ld	a2,88(sp)
   1213c:	0007871b          	sext.w	a4,a5
   12140:	02c7d163          	bge	a5,a2,12162 <_vfprintf_r+0x1ac6>
   12144:	75a6                	ld	a1,104(sp)
   12146:	40e6073b          	subw	a4,a2,a4
   1214a:	ecba                	sd	a4,88(sp)
   1214c:	0015c783          	lbu	a5,1(a1)
   12150:	cf8d                	beqz	a5,1218a <_vfprintf_r+0x1aee>
   12152:	7706                	ld	a4,96(sp)
   12154:	2705                	addiw	a4,a4,1
   12156:	f0ba                	sd	a4,96(sp)
   12158:	00158713          	addi	a4,a1,1
   1215c:	f4ba                	sd	a4,104(sp)
   1215e:	fcd79ee3          	bne	a5,a3,1213a <_vfprintf_r+0x1a9e>
   12162:	7706                	ld	a4,96(sp)
   12164:	67c6                	ld	a5,80(sp)
   12166:	9fb9                	addw	a5,a5,a4
   12168:	672a                	ld	a4,136(sp)
   1216a:	02e787bb          	mulw	a5,a5,a4
   1216e:	018787bb          	addw	a5,a5,s8
   12172:	00078c1b          	sext.w	s8,a5
   12176:	fffc4993          	not	s3,s8
   1217a:	43f9d993          	srai	s3,s3,0x3f
   1217e:	0137f7b3          	and	a5,a5,s3
   12182:	0007899b          	sext.w	s3,a5
   12186:	b29fe06f          	j	10cae <_vfprintf_r+0x612>
   1218a:	6746                	ld	a4,80(sp)
   1218c:	77a6                	ld	a5,104(sp)
   1218e:	2705                	addiw	a4,a4,1
   12190:	0007c783          	lbu	a5,0(a5)
   12194:	e8ba                	sd	a4,80(sp)
   12196:	b7e1                	j	1215e <_vfprintf_r+0x1ac2>
   12198:	ec02                	sd	zero,24(sp)
   1219a:	84be                	mv	s1,a5
   1219c:	b16d                	j	11e46 <_vfprintf_r+0x17aa>
   1219e:	85ce                	mv	a1,s3
   121a0:	8562                	mv	a0,s8
   121a2:	fc1a                	sd	t1,56(sp)
   121a4:	f876                	sd	t4,48(sp)
   121a6:	6e1090ef          	jal	ra,1c086 <__trunctfdf2>
   121aa:	11a8                	addi	a0,sp,232
   121ac:	24d040ef          	jal	ra,16bf8 <frexp>
   121b0:	617090ef          	jal	ra,1bfc6 <__extenddftf2>
   121b4:	0000a797          	auipc	a5,0xa
   121b8:	4ac78793          	addi	a5,a5,1196 # 1c660 <zeroes.4521+0x38>
   121bc:	6390                	ld	a2,0(a5)
   121be:	6794                	ld	a3,8(a5)
   121c0:	707080ef          	jal	ra,1b0c6 <__multf3>
   121c4:	4601                	li	a2,0
   121c6:	4681                	li	a3,0
   121c8:	f02a                	sd	a0,32(sp)
   121ca:	e42e                	sd	a1,8(sp)
   121cc:	517080ef          	jal	ra,1aee2 <__eqtf2>
   121d0:	62a2                	ld	t0,8(sp)
   121d2:	7702                	ld	a4,32(sp)
   121d4:	7ec2                	ld	t4,48(sp)
   121d6:	7362                	ld	t1,56(sp)
   121d8:	e119                	bnez	a0,121de <_vfprintf_r+0x1b42>
   121da:	4785                	li	a5,1
   121dc:	d5be                	sw	a5,232(sp)
   121de:	0000a797          	auipc	a5,0xa
   121e2:	2a278793          	addi	a5,a5,674 # 1c480 <__clzdi2+0x1c8>
   121e6:	e8be                	sd	a5,80(sp)
   121e8:	bce1                	j	11cc0 <_vfprintf_r+0x1624>
   121ea:	0f210713          	addi	a4,sp,242
   121ee:	e699                	bnez	a3,121fc <_vfprintf_r+0x1b60>
   121f0:	03000713          	li	a4,48
   121f4:	0ee10923          	sb	a4,242(sp)
   121f8:	0f310713          	addi	a4,sp,243
   121fc:	0c14                	addi	a3,sp,528
   121fe:	0307879b          	addiw	a5,a5,48
   12202:	40d706b3          	sub	a3,a4,a3
   12206:	00f70023          	sb	a5,0(a4)
   1220a:	1216879b          	addiw	a5,a3,289
   1220e:	e13e                	sd	a5,128(sp)
   12210:	a65fe06f          	j	10c74 <_vfprintf_r+0x5d8>
   12214:	77c6                	ld	a5,112(sp)
   12216:	06600d93          	li	s11,102
   1221a:	00e78c3b          	addw	s8,a5,a4
   1221e:	01dc0c3b          	addw	s8,s8,t4
   12222:	bb81                	j	11f72 <_vfprintf_r+0x18d6>
   12224:	676a                	ld	a4,152(sp)
   12226:	8b05                	andi	a4,a4,1
   12228:	e319                	bnez	a4,1222e <_vfprintf_r+0x1b92>
   1222a:	a65fe06f          	j	10c8e <_vfprintf_r+0x5f2>
   1222e:	a5bfe06f          	j	10c88 <_vfprintf_r+0x5ec>
   12232:	40ec07bb          	subw	a5,s8,a4
   12236:	2785                	addiw	a5,a5,1
   12238:	00078c1b          	sext.w	s8,a5
   1223c:	fffc4993          	not	s3,s8
   12240:	43f9d993          	srai	s3,s3,0x3f
   12244:	0137f7b3          	and	a5,a5,s3
   12248:	0007899b          	sext.w	s3,a5
   1224c:	bef1                	j	11e28 <_vfprintf_r+0x178c>
   1224e:	e791                	bnez	a5,1225a <_vfprintf_r+0x1bbe>
   12250:	4985                	li	s3,1
   12252:	06600d93          	li	s11,102
   12256:	4c05                	li	s8,1
   12258:	bec1                	j	11e28 <_vfprintf_r+0x178c>
   1225a:	77c6                	ld	a5,112(sp)
   1225c:	06600d93          	li	s11,102
   12260:	2785                	addiw	a5,a5,1
   12262:	01d78ebb          	addw	t4,a5,t4
   12266:	000e8c1b          	sext.w	s8,t4
   1226a:	fffc4993          	not	s3,s8
   1226e:	43f9d993          	srai	s3,s3,0x3f
   12272:	013efeb3          	and	t4,t4,s3
   12276:	000e899b          	sext.w	s3,t4
   1227a:	b67d                	j	11e28 <_vfprintf_r+0x178c>
   1227c:	871a                	mv	a4,t1
   1227e:	c9aff06f          	j	11718 <_vfprintf_r+0x107c>
   12282:	66c2                	ld	a3,16(sp)
   12284:	4298                	lw	a4,0(a3)
   12286:	06a1                	addi	a3,a3,8
   12288:	00070e9b          	sext.w	t4,a4
   1228c:	00075363          	bgez	a4,12292 <_vfprintf_r+0x1bf6>
   12290:	5efd                	li	t4,-1
   12292:	00144f03          	lbu	t5,1(s0)
   12296:	e836                	sd	a3,16(sp)
   12298:	843e                	mv	s0,a5
   1229a:	d36fe06f          	j	107d0 <_vfprintf_r+0x134>
   1229e:	4789                	li	a5,2
   122a0:	e13e                	sd	a5,128(sp)
   122a2:	9d3fe06f          	j	10c74 <_vfprintf_r+0x5d8>
   122a6:	010a5783          	lhu	a5,16(s4)
   122aa:	0407e793          	ori	a5,a5,64
   122ae:	00fa1823          	sh	a5,16(s4)
   122b2:	e8cfe06f          	j	1093e <_vfprintf_r+0x2a2>

00000000000122b6 <vfprintf>:
   122b6:	86b2                	mv	a3,a2
   122b8:	862e                	mv	a2,a1
   122ba:	85aa                	mv	a1,a0
   122bc:	8401b503          	ld	a0,-1984(gp) # 1f2a8 <_impure_ptr>
   122c0:	bdcfe06f          	j	1069c <_vfprintf_r>

00000000000122c4 <__sbprintf>:
   122c4:	0105d783          	lhu	a5,16(a1)
   122c8:	0ac5ae03          	lw	t3,172(a1)
   122cc:	0125d303          	lhu	t1,18(a1)
   122d0:	0305b883          	ld	a7,48(a1)
   122d4:	0405b803          	ld	a6,64(a1)
   122d8:	b3010113          	addi	sp,sp,-1232
   122dc:	9bf5                	andi	a5,a5,-3
   122de:	40000713          	li	a4,1024
   122e2:	4c813023          	sd	s0,1216(sp)
   122e6:	00f11823          	sh	a5,16(sp)
   122ea:	842e                	mv	s0,a1
   122ec:	191c                	addi	a5,sp,176
   122ee:	858a                	mv	a1,sp
   122f0:	4a913c23          	sd	s1,1208(sp)
   122f4:	4b213823          	sd	s2,1200(sp)
   122f8:	4c113423          	sd	ra,1224(sp)
   122fc:	892a                	mv	s2,a0
   122fe:	d772                	sw	t3,172(sp)
   12300:	00611923          	sh	t1,18(sp)
   12304:	f846                	sd	a7,48(sp)
   12306:	e0c2                	sd	a6,64(sp)
   12308:	e03e                	sd	a5,0(sp)
   1230a:	ec3e                	sd	a5,24(sp)
   1230c:	c63a                	sw	a4,12(sp)
   1230e:	d03a                	sw	a4,32(sp)
   12310:	d402                	sw	zero,40(sp)
   12312:	b8afe0ef          	jal	ra,1069c <_vfprintf_r>
   12316:	84aa                	mv	s1,a0
   12318:	02055963          	bgez	a0,1234a <__sbprintf+0x86>
   1231c:	01015783          	lhu	a5,16(sp)
   12320:	0407f793          	andi	a5,a5,64
   12324:	c799                	beqz	a5,12332 <__sbprintf+0x6e>
   12326:	01045783          	lhu	a5,16(s0)
   1232a:	0407e793          	ori	a5,a5,64
   1232e:	00f41823          	sh	a5,16(s0)
   12332:	4c813083          	ld	ra,1224(sp)
   12336:	4c013403          	ld	s0,1216(sp)
   1233a:	4b013903          	ld	s2,1200(sp)
   1233e:	8526                	mv	a0,s1
   12340:	4b813483          	ld	s1,1208(sp)
   12344:	4d010113          	addi	sp,sp,1232
   12348:	8082                	ret
   1234a:	858a                	mv	a1,sp
   1234c:	854a                	mv	a0,s2
   1234e:	354000ef          	jal	ra,126a2 <_fflush_r>
   12352:	d569                	beqz	a0,1231c <__sbprintf+0x58>
   12354:	54fd                	li	s1,-1
   12356:	b7d9                	j	1231c <__sbprintf+0x58>

0000000000012358 <__swsetup_r>:
   12358:	1101                	addi	sp,sp,-32
   1235a:	e822                	sd	s0,16(sp)
   1235c:	e426                	sd	s1,8(sp)
   1235e:	ec06                	sd	ra,24(sp)
   12360:	8401b783          	ld	a5,-1984(gp) # 1f2a8 <_impure_ptr>
   12364:	84aa                	mv	s1,a0
   12366:	842e                	mv	s0,a1
   12368:	c399                	beqz	a5,1236e <__swsetup_r+0x16>
   1236a:	4bb8                	lw	a4,80(a5)
   1236c:	cf49                	beqz	a4,12406 <__swsetup_r+0xae>
   1236e:	01041703          	lh	a4,16(s0)
   12372:	03071793          	slli	a5,a4,0x30
   12376:	00877693          	andi	a3,a4,8
   1237a:	93c1                	srli	a5,a5,0x30
   1237c:	c29d                	beqz	a3,123a2 <__swsetup_r+0x4a>
   1237e:	6c14                	ld	a3,24(s0)
   12380:	ce9d                	beqz	a3,123be <__swsetup_r+0x66>
   12382:	0017f613          	andi	a2,a5,1
   12386:	ce39                	beqz	a2,123e4 <__swsetup_r+0x8c>
   12388:	5010                	lw	a2,32(s0)
   1238a:	00042623          	sw	zero,12(s0)
   1238e:	4501                	li	a0,0
   12390:	40c0063b          	negw	a2,a2
   12394:	d410                	sw	a2,40(s0)
   12396:	ceb9                	beqz	a3,123f4 <__swsetup_r+0x9c>
   12398:	60e2                	ld	ra,24(sp)
   1239a:	6442                	ld	s0,16(sp)
   1239c:	64a2                	ld	s1,8(sp)
   1239e:	6105                	addi	sp,sp,32
   123a0:	8082                	ret
   123a2:	0107f693          	andi	a3,a5,16
   123a6:	cac1                	beqz	a3,12436 <__swsetup_r+0xde>
   123a8:	8b91                	andi	a5,a5,4
   123aa:	e3b5                	bnez	a5,1240e <__swsetup_r+0xb6>
   123ac:	6c14                	ld	a3,24(s0)
   123ae:	00876713          	ori	a4,a4,8
   123b2:	03071793          	slli	a5,a4,0x30
   123b6:	00e41823          	sh	a4,16(s0)
   123ba:	93c1                	srli	a5,a5,0x30
   123bc:	f2f9                	bnez	a3,12382 <__swsetup_r+0x2a>
   123be:	2807f613          	andi	a2,a5,640
   123c2:	20000593          	li	a1,512
   123c6:	fab60ee3          	beq	a2,a1,12382 <__swsetup_r+0x2a>
   123ca:	85a2                	mv	a1,s0
   123cc:	8526                	mv	a0,s1
   123ce:	6dd020ef          	jal	ra,152aa <__smakebuf_r>
   123d2:	01041703          	lh	a4,16(s0)
   123d6:	6c14                	ld	a3,24(s0)
   123d8:	03071793          	slli	a5,a4,0x30
   123dc:	93c1                	srli	a5,a5,0x30
   123de:	0017f613          	andi	a2,a5,1
   123e2:	f25d                	bnez	a2,12388 <__swsetup_r+0x30>
   123e4:	0027f613          	andi	a2,a5,2
   123e8:	4581                	li	a1,0
   123ea:	e211                	bnez	a2,123ee <__swsetup_r+0x96>
   123ec:	500c                	lw	a1,32(s0)
   123ee:	c44c                	sw	a1,12(s0)
   123f0:	4501                	li	a0,0
   123f2:	f2dd                	bnez	a3,12398 <__swsetup_r+0x40>
   123f4:	0807f793          	andi	a5,a5,128
   123f8:	d3c5                	beqz	a5,12398 <__swsetup_r+0x40>
   123fa:	04076713          	ori	a4,a4,64
   123fe:	00e41823          	sh	a4,16(s0)
   12402:	557d                	li	a0,-1
   12404:	bf51                	j	12398 <__swsetup_r+0x40>
   12406:	853e                	mv	a0,a5
   12408:	530000ef          	jal	ra,12938 <__sinit>
   1240c:	b78d                	j	1236e <__swsetup_r+0x16>
   1240e:	6c2c                	ld	a1,88(s0)
   12410:	cd81                	beqz	a1,12428 <__swsetup_r+0xd0>
   12412:	07440793          	addi	a5,s0,116
   12416:	00f58763          	beq	a1,a5,12424 <__swsetup_r+0xcc>
   1241a:	8526                	mv	a0,s1
   1241c:	656000ef          	jal	ra,12a72 <_free_r>
   12420:	01041703          	lh	a4,16(s0)
   12424:	04043c23          	sd	zero,88(s0)
   12428:	6c14                	ld	a3,24(s0)
   1242a:	fdb77713          	andi	a4,a4,-37
   1242e:	00042423          	sw	zero,8(s0)
   12432:	e014                	sd	a3,0(s0)
   12434:	bfad                	j	123ae <__swsetup_r+0x56>
   12436:	47a5                	li	a5,9
   12438:	c09c                	sw	a5,0(s1)
   1243a:	04076713          	ori	a4,a4,64
   1243e:	00e41823          	sh	a4,16(s0)
   12442:	557d                	li	a0,-1
   12444:	bf91                	j	12398 <__swsetup_r+0x40>

0000000000012446 <__call_exitprocs>:
   12446:	715d                	addi	sp,sp,-80
   12448:	f052                	sd	s4,32(sp)
   1244a:	8301ba03          	ld	s4,-2000(gp) # 1f298 <_global_impure_ptr>
   1244e:	f84a                	sd	s2,48(sp)
   12450:	1f8a3903          	ld	s2,504(s4)
   12454:	e486                	sd	ra,72(sp)
   12456:	e0a2                	sd	s0,64(sp)
   12458:	fc26                	sd	s1,56(sp)
   1245a:	f44e                	sd	s3,40(sp)
   1245c:	ec56                	sd	s5,24(sp)
   1245e:	e85a                	sd	s6,16(sp)
   12460:	e45e                	sd	s7,8(sp)
   12462:	e062                	sd	s8,0(sp)
   12464:	02090863          	beqz	s2,12494 <__call_exitprocs+0x4e>
   12468:	8b2a                	mv	s6,a0
   1246a:	8bae                	mv	s7,a1
   1246c:	4a85                	li	s5,1
   1246e:	59fd                	li	s3,-1
   12470:	00892483          	lw	s1,8(s2)
   12474:	fff4841b          	addiw	s0,s1,-1
   12478:	00044e63          	bltz	s0,12494 <__call_exitprocs+0x4e>
   1247c:	048e                	slli	s1,s1,0x3
   1247e:	94ca                	add	s1,s1,s2
   12480:	020b8663          	beqz	s7,124ac <__call_exitprocs+0x66>
   12484:	2084b783          	ld	a5,520(s1)
   12488:	03778263          	beq	a5,s7,124ac <__call_exitprocs+0x66>
   1248c:	347d                	addiw	s0,s0,-1
   1248e:	14e1                	addi	s1,s1,-8
   12490:	ff3418e3          	bne	s0,s3,12480 <__call_exitprocs+0x3a>
   12494:	60a6                	ld	ra,72(sp)
   12496:	6406                	ld	s0,64(sp)
   12498:	74e2                	ld	s1,56(sp)
   1249a:	7942                	ld	s2,48(sp)
   1249c:	79a2                	ld	s3,40(sp)
   1249e:	7a02                	ld	s4,32(sp)
   124a0:	6ae2                	ld	s5,24(sp)
   124a2:	6b42                	ld	s6,16(sp)
   124a4:	6ba2                	ld	s7,8(sp)
   124a6:	6c02                	ld	s8,0(sp)
   124a8:	6161                	addi	sp,sp,80
   124aa:	8082                	ret
   124ac:	00892783          	lw	a5,8(s2)
   124b0:	6498                	ld	a4,8(s1)
   124b2:	37fd                	addiw	a5,a5,-1
   124b4:	04878463          	beq	a5,s0,124fc <__call_exitprocs+0xb6>
   124b8:	0004b423          	sd	zero,8(s1)
   124bc:	db61                	beqz	a4,1248c <__call_exitprocs+0x46>
   124be:	31092783          	lw	a5,784(s2)
   124c2:	008a96bb          	sllw	a3,s5,s0
   124c6:	00892c03          	lw	s8,8(s2)
   124ca:	8ff5                	and	a5,a5,a3
   124cc:	2781                	sext.w	a5,a5
   124ce:	ef89                	bnez	a5,124e8 <__call_exitprocs+0xa2>
   124d0:	9702                	jalr	a4
   124d2:	00892703          	lw	a4,8(s2)
   124d6:	1f8a3783          	ld	a5,504(s4)
   124da:	01871463          	bne	a4,s8,124e2 <__call_exitprocs+0x9c>
   124de:	faf907e3          	beq	s2,a5,1248c <__call_exitprocs+0x46>
   124e2:	dbcd                	beqz	a5,12494 <__call_exitprocs+0x4e>
   124e4:	893e                	mv	s2,a5
   124e6:	b769                	j	12470 <__call_exitprocs+0x2a>
   124e8:	31492783          	lw	a5,788(s2)
   124ec:	1084b583          	ld	a1,264(s1)
   124f0:	8ff5                	and	a5,a5,a3
   124f2:	2781                	sext.w	a5,a5
   124f4:	e799                	bnez	a5,12502 <__call_exitprocs+0xbc>
   124f6:	855a                	mv	a0,s6
   124f8:	9702                	jalr	a4
   124fa:	bfe1                	j	124d2 <__call_exitprocs+0x8c>
   124fc:	00892423          	sw	s0,8(s2)
   12500:	bf75                	j	124bc <__call_exitprocs+0x76>
   12502:	852e                	mv	a0,a1
   12504:	9702                	jalr	a4
   12506:	b7f1                	j	124d2 <__call_exitprocs+0x8c>

0000000000012508 <__sflush_r>:
   12508:	01059783          	lh	a5,16(a1)
   1250c:	7179                	addi	sp,sp,-48
   1250e:	f022                	sd	s0,32(sp)
   12510:	e44e                	sd	s3,8(sp)
   12512:	f406                	sd	ra,40(sp)
   12514:	ec26                	sd	s1,24(sp)
   12516:	e84a                	sd	s2,16(sp)
   12518:	0087f693          	andi	a3,a5,8
   1251c:	842e                	mv	s0,a1
   1251e:	89aa                	mv	s3,a0
   12520:	eecd                	bnez	a3,125da <__sflush_r+0xd2>
   12522:	6705                	lui	a4,0x1
   12524:	80070713          	addi	a4,a4,-2048 # 800 <register_fini-0xf8b0>
   12528:	4594                	lw	a3,8(a1)
   1252a:	8fd9                	or	a5,a5,a4
   1252c:	00f59823          	sh	a5,16(a1)
   12530:	10d05363          	blez	a3,12636 <__sflush_r+0x12e>
   12534:	6438                	ld	a4,72(s0)
   12536:	cb51                	beqz	a4,125ca <__sflush_r+0xc2>
   12538:	0009a483          	lw	s1,0(s3)
   1253c:	03079693          	slli	a3,a5,0x30
   12540:	0009a023          	sw	zero,0(s3)
   12544:	03379613          	slli	a2,a5,0x33
   12548:	780c                	ld	a1,48(s0)
   1254a:	92c1                	srli	a3,a3,0x30
   1254c:	0e064963          	bltz	a2,1263e <__sflush_r+0x136>
   12550:	4601                	li	a2,0
   12552:	4685                	li	a3,1
   12554:	854e                	mv	a0,s3
   12556:	9702                	jalr	a4
   12558:	57fd                	li	a5,-1
   1255a:	862a                	mv	a2,a0
   1255c:	10f50963          	beq	a0,a5,1266e <__sflush_r+0x166>
   12560:	01045683          	lhu	a3,16(s0)
   12564:	6438                	ld	a4,72(s0)
   12566:	780c                	ld	a1,48(s0)
   12568:	8a91                	andi	a3,a3,4
   1256a:	c699                	beqz	a3,12578 <__sflush_r+0x70>
   1256c:	4414                	lw	a3,8(s0)
   1256e:	6c3c                	ld	a5,88(s0)
   12570:	8e15                	sub	a2,a2,a3
   12572:	c399                	beqz	a5,12578 <__sflush_r+0x70>
   12574:	583c                	lw	a5,112(s0)
   12576:	8e1d                	sub	a2,a2,a5
   12578:	4681                	li	a3,0
   1257a:	854e                	mv	a0,s3
   1257c:	9702                	jalr	a4
   1257e:	57fd                	li	a5,-1
   12580:	0cf51163          	bne	a0,a5,12642 <__sflush_r+0x13a>
   12584:	0009a703          	lw	a4,0(s3)
   12588:	01041783          	lh	a5,16(s0)
   1258c:	0e070f63          	beqz	a4,1268a <__sflush_r+0x182>
   12590:	46f5                	li	a3,29
   12592:	00d70563          	beq	a4,a3,1259c <__sflush_r+0x94>
   12596:	46d9                	li	a3,22
   12598:	0ed71f63          	bne	a4,a3,12696 <__sflush_r+0x18e>
   1259c:	6c14                	ld	a3,24(s0)
   1259e:	777d                	lui	a4,0xfffff
   125a0:	7ff70713          	addi	a4,a4,2047 # fffffffffffff7ff <__BSS_END__+0xfffffffffffc84af>
   125a4:	8ff9                	and	a5,a5,a4
   125a6:	00f41823          	sh	a5,16(s0)
   125aa:	00042423          	sw	zero,8(s0)
   125ae:	e014                	sd	a3,0(s0)
   125b0:	6c2c                	ld	a1,88(s0)
   125b2:	0099a023          	sw	s1,0(s3)
   125b6:	c991                	beqz	a1,125ca <__sflush_r+0xc2>
   125b8:	07440793          	addi	a5,s0,116
   125bc:	00f58563          	beq	a1,a5,125c6 <__sflush_r+0xbe>
   125c0:	854e                	mv	a0,s3
   125c2:	4b0000ef          	jal	ra,12a72 <_free_r>
   125c6:	04043c23          	sd	zero,88(s0)
   125ca:	4501                	li	a0,0
   125cc:	70a2                	ld	ra,40(sp)
   125ce:	7402                	ld	s0,32(sp)
   125d0:	64e2                	ld	s1,24(sp)
   125d2:	6942                	ld	s2,16(sp)
   125d4:	69a2                	ld	s3,8(sp)
   125d6:	6145                	addi	sp,sp,48
   125d8:	8082                	ret
   125da:	0185b903          	ld	s2,24(a1)
   125de:	fe0906e3          	beqz	s2,125ca <__sflush_r+0xc2>
   125e2:	6184                	ld	s1,0(a1)
   125e4:	03079713          	slli	a4,a5,0x30
   125e8:	9341                	srli	a4,a4,0x30
   125ea:	8b0d                	andi	a4,a4,3
   125ec:	0125b023          	sd	s2,0(a1)
   125f0:	412484bb          	subw	s1,s1,s2
   125f4:	4781                	li	a5,0
   125f6:	e311                	bnez	a4,125fa <__sflush_r+0xf2>
   125f8:	519c                	lw	a5,32(a1)
   125fa:	c45c                	sw	a5,12(s0)
   125fc:	00904663          	bgtz	s1,12608 <__sflush_r+0x100>
   12600:	b7e9                	j	125ca <__sflush_r+0xc2>
   12602:	992a                	add	s2,s2,a0
   12604:	fc9053e3          	blez	s1,125ca <__sflush_r+0xc2>
   12608:	603c                	ld	a5,64(s0)
   1260a:	780c                	ld	a1,48(s0)
   1260c:	86a6                	mv	a3,s1
   1260e:	864a                	mv	a2,s2
   12610:	854e                	mv	a0,s3
   12612:	9782                	jalr	a5
   12614:	9c89                	subw	s1,s1,a0
   12616:	fea046e3          	bgtz	a0,12602 <__sflush_r+0xfa>
   1261a:	01045783          	lhu	a5,16(s0)
   1261e:	70a2                	ld	ra,40(sp)
   12620:	64e2                	ld	s1,24(sp)
   12622:	0407e793          	ori	a5,a5,64
   12626:	00f41823          	sh	a5,16(s0)
   1262a:	7402                	ld	s0,32(sp)
   1262c:	6942                	ld	s2,16(sp)
   1262e:	69a2                	ld	s3,8(sp)
   12630:	557d                	li	a0,-1
   12632:	6145                	addi	sp,sp,48
   12634:	8082                	ret
   12636:	59b8                	lw	a4,112(a1)
   12638:	eee04ee3          	bgtz	a4,12534 <__sflush_r+0x2c>
   1263c:	b779                	j	125ca <__sflush_r+0xc2>
   1263e:	6850                	ld	a2,144(s0)
   12640:	b725                	j	12568 <__sflush_r+0x60>
   12642:	01045783          	lhu	a5,16(s0)
   12646:	777d                	lui	a4,0xfffff
   12648:	7ff70713          	addi	a4,a4,2047 # fffffffffffff7ff <__BSS_END__+0xfffffffffffc84af>
   1264c:	8ff9                	and	a5,a5,a4
   1264e:	6c14                	ld	a3,24(s0)
   12650:	0107979b          	slliw	a5,a5,0x10
   12654:	4107d79b          	sraiw	a5,a5,0x10
   12658:	00f41823          	sh	a5,16(s0)
   1265c:	00042423          	sw	zero,8(s0)
   12660:	e014                	sd	a3,0(s0)
   12662:	03379713          	slli	a4,a5,0x33
   12666:	f40755e3          	bgez	a4,125b0 <__sflush_r+0xa8>
   1266a:	e848                	sd	a0,144(s0)
   1266c:	b791                	j	125b0 <__sflush_r+0xa8>
   1266e:	0009a783          	lw	a5,0(s3)
   12672:	ee0787e3          	beqz	a5,12560 <__sflush_r+0x58>
   12676:	4775                	li	a4,29
   12678:	00e78563          	beq	a5,a4,12682 <__sflush_r+0x17a>
   1267c:	4759                	li	a4,22
   1267e:	f8e79ee3          	bne	a5,a4,1261a <__sflush_r+0x112>
   12682:	0099a023          	sw	s1,0(s3)
   12686:	4501                	li	a0,0
   12688:	b791                	j	125cc <__sflush_r+0xc4>
   1268a:	777d                	lui	a4,0xfffff
   1268c:	7ff70713          	addi	a4,a4,2047 # fffffffffffff7ff <__BSS_END__+0xfffffffffffc84af>
   12690:	6c14                	ld	a3,24(s0)
   12692:	8ff9                	and	a5,a5,a4
   12694:	b7d1                	j	12658 <__sflush_r+0x150>
   12696:	0407e793          	ori	a5,a5,64
   1269a:	00f41823          	sh	a5,16(s0)
   1269e:	557d                	li	a0,-1
   126a0:	b735                	j	125cc <__sflush_r+0xc4>

00000000000126a2 <_fflush_r>:
   126a2:	1101                	addi	sp,sp,-32
   126a4:	e822                	sd	s0,16(sp)
   126a6:	ec06                	sd	ra,24(sp)
   126a8:	842a                	mv	s0,a0
   126aa:	c119                	beqz	a0,126b0 <_fflush_r+0xe>
   126ac:	493c                	lw	a5,80(a0)
   126ae:	cb89                	beqz	a5,126c0 <_fflush_r+0x1e>
   126b0:	01059783          	lh	a5,16(a1)
   126b4:	ef89                	bnez	a5,126ce <_fflush_r+0x2c>
   126b6:	60e2                	ld	ra,24(sp)
   126b8:	6442                	ld	s0,16(sp)
   126ba:	4501                	li	a0,0
   126bc:	6105                	addi	sp,sp,32
   126be:	8082                	ret
   126c0:	e42e                	sd	a1,8(sp)
   126c2:	276000ef          	jal	ra,12938 <__sinit>
   126c6:	65a2                	ld	a1,8(sp)
   126c8:	01059783          	lh	a5,16(a1)
   126cc:	d7ed                	beqz	a5,126b6 <_fflush_r+0x14>
   126ce:	8522                	mv	a0,s0
   126d0:	6442                	ld	s0,16(sp)
   126d2:	60e2                	ld	ra,24(sp)
   126d4:	6105                	addi	sp,sp,32
   126d6:	bd0d                	j	12508 <__sflush_r>

00000000000126d8 <fflush>:
   126d8:	85aa                	mv	a1,a0
   126da:	c501                	beqz	a0,126e2 <fflush+0xa>
   126dc:	8401b503          	ld	a0,-1984(gp) # 1f2a8 <_impure_ptr>
   126e0:	b7c9                	j	126a2 <_fflush_r>
   126e2:	00000597          	auipc	a1,0x0
   126e6:	fc058593          	addi	a1,a1,-64 # 126a2 <_fflush_r>
   126ea:	8301b503          	ld	a0,-2000(gp) # 1f298 <_global_impure_ptr>
   126ee:	1810006f          	j	1306e <_fwalk_reent>

00000000000126f2 <__fp_lock>:
   126f2:	4501                	li	a0,0
   126f4:	8082                	ret

00000000000126f6 <_cleanup_r>:
   126f6:	00007597          	auipc	a1,0x7
   126fa:	38858593          	addi	a1,a1,904 # 19a7e <_fclose_r>
   126fe:	1710006f          	j	1306e <_fwalk_reent>

0000000000012702 <__sinit.part.0>:
   12702:	7139                	addi	sp,sp,-64
   12704:	fc06                	sd	ra,56(sp)
   12706:	f822                	sd	s0,48(sp)
   12708:	f426                	sd	s1,40(sp)
   1270a:	f04a                	sd	s2,32(sp)
   1270c:	ec4e                	sd	s3,24(sp)
   1270e:	e852                	sd	s4,16(sp)
   12710:	e456                	sd	s5,8(sp)
   12712:	e05a                	sd	s6,0(sp)
   12714:	6500                	ld	s0,8(a0)
   12716:	00000717          	auipc	a4,0x0
   1271a:	fe070713          	addi	a4,a4,-32 # 126f6 <_cleanup_r>
   1271e:	ed38                	sd	a4,88(a0)
   12720:	53850793          	addi	a5,a0,1336
   12724:	470d                	li	a4,3
   12726:	52e52423          	sw	a4,1320(a0)
   1272a:	52f53823          	sd	a5,1328(a0)
   1272e:	52053023          	sd	zero,1312(a0)
   12732:	4791                	li	a5,4
   12734:	892a                	mv	s2,a0
   12736:	c81c                	sw	a5,16(s0)
   12738:	4621                	li	a2,8
   1273a:	4581                	li	a1,0
   1273c:	0a042623          	sw	zero,172(s0)
   12740:	00043023          	sd	zero,0(s0)
   12744:	00043423          	sd	zero,8(s0)
   12748:	00043c23          	sd	zero,24(s0)
   1274c:	02042023          	sw	zero,32(s0)
   12750:	02042423          	sw	zero,40(s0)
   12754:	0a440513          	addi	a0,s0,164
   12758:	d31fd0ef          	jal	ra,10488 <memset>
   1275c:	01093483          	ld	s1,16(s2)
   12760:	00004b17          	auipc	s6,0x4
   12764:	5a4b0b13          	addi	s6,s6,1444 # 16d04 <__sread>
   12768:	00004a97          	auipc	s5,0x4
   1276c:	5d8a8a93          	addi	s5,s5,1496 # 16d40 <__swrite>
   12770:	00004a17          	auipc	s4,0x4
   12774:	624a0a13          	addi	s4,s4,1572 # 16d94 <__sseek>
   12778:	00004997          	auipc	s3,0x4
   1277c:	65e98993          	addi	s3,s3,1630 # 16dd6 <__sclose>
   12780:	67c1                	lui	a5,0x10
   12782:	03643c23          	sd	s6,56(s0)
   12786:	05543023          	sd	s5,64(s0)
   1278a:	05443423          	sd	s4,72(s0)
   1278e:	05343823          	sd	s3,80(s0)
   12792:	f800                	sd	s0,48(s0)
   12794:	07a5                	addi	a5,a5,9
   12796:	c89c                	sw	a5,16(s1)
   12798:	4621                	li	a2,8
   1279a:	4581                	li	a1,0
   1279c:	0a04a623          	sw	zero,172(s1)
   127a0:	0004b023          	sd	zero,0(s1)
   127a4:	0004b423          	sd	zero,8(s1)
   127a8:	0004bc23          	sd	zero,24(s1)
   127ac:	0204a023          	sw	zero,32(s1)
   127b0:	0204a423          	sw	zero,40(s1)
   127b4:	0a448513          	addi	a0,s1,164
   127b8:	cd1fd0ef          	jal	ra,10488 <memset>
   127bc:	01893403          	ld	s0,24(s2)
   127c0:	000207b7          	lui	a5,0x20
   127c4:	0364bc23          	sd	s6,56(s1)
   127c8:	0554b023          	sd	s5,64(s1)
   127cc:	0544b423          	sd	s4,72(s1)
   127d0:	0534b823          	sd	s3,80(s1)
   127d4:	f884                	sd	s1,48(s1)
   127d6:	07c9                	addi	a5,a5,18
   127d8:	c81c                	sw	a5,16(s0)
   127da:	0a042623          	sw	zero,172(s0)
   127de:	00043023          	sd	zero,0(s0)
   127e2:	00043423          	sd	zero,8(s0)
   127e6:	00043c23          	sd	zero,24(s0)
   127ea:	02042023          	sw	zero,32(s0)
   127ee:	02042423          	sw	zero,40(s0)
   127f2:	0a440513          	addi	a0,s0,164
   127f6:	4621                	li	a2,8
   127f8:	4581                	li	a1,0
   127fa:	c8ffd0ef          	jal	ra,10488 <memset>
   127fe:	70e2                	ld	ra,56(sp)
   12800:	03643c23          	sd	s6,56(s0)
   12804:	05543023          	sd	s5,64(s0)
   12808:	05443423          	sd	s4,72(s0)
   1280c:	05343823          	sd	s3,80(s0)
   12810:	f800                	sd	s0,48(s0)
   12812:	7442                	ld	s0,48(sp)
   12814:	4785                	li	a5,1
   12816:	04f92823          	sw	a5,80(s2)
   1281a:	74a2                	ld	s1,40(sp)
   1281c:	7902                	ld	s2,32(sp)
   1281e:	69e2                	ld	s3,24(sp)
   12820:	6a42                	ld	s4,16(sp)
   12822:	6aa2                	ld	s5,8(sp)
   12824:	6b02                	ld	s6,0(sp)
   12826:	6121                	addi	sp,sp,64
   12828:	8082                	ret

000000000001282a <__fp_unlock>:
   1282a:	4501                	li	a0,0
   1282c:	8082                	ret

000000000001282e <__sfmoreglue>:
   1282e:	1101                	addi	sp,sp,-32
   12830:	e426                	sd	s1,8(sp)
   12832:	0b000613          	li	a2,176
   12836:	fff5849b          	addiw	s1,a1,-1
   1283a:	02c484b3          	mul	s1,s1,a2
   1283e:	e04a                	sd	s2,0(sp)
   12840:	892e                	mv	s2,a1
   12842:	e822                	sd	s0,16(sp)
   12844:	ec06                	sd	ra,24(sp)
   12846:	0c848593          	addi	a1,s1,200
   1284a:	31d020ef          	jal	ra,15366 <_malloc_r>
   1284e:	842a                	mv	s0,a0
   12850:	cd01                	beqz	a0,12868 <__sfmoreglue+0x3a>
   12852:	0561                	addi	a0,a0,24
   12854:	00043023          	sd	zero,0(s0)
   12858:	01242423          	sw	s2,8(s0)
   1285c:	e808                	sd	a0,16(s0)
   1285e:	0b048613          	addi	a2,s1,176
   12862:	4581                	li	a1,0
   12864:	c25fd0ef          	jal	ra,10488 <memset>
   12868:	60e2                	ld	ra,24(sp)
   1286a:	8522                	mv	a0,s0
   1286c:	6442                	ld	s0,16(sp)
   1286e:	64a2                	ld	s1,8(sp)
   12870:	6902                	ld	s2,0(sp)
   12872:	6105                	addi	sp,sp,32
   12874:	8082                	ret

0000000000012876 <__sfp>:
   12876:	7179                	addi	sp,sp,-48
   12878:	ec26                	sd	s1,24(sp)
   1287a:	8301b483          	ld	s1,-2000(gp) # 1f298 <_global_impure_ptr>
   1287e:	48bc                	lw	a5,80(s1)
   12880:	e84a                	sd	s2,16(sp)
   12882:	f406                	sd	ra,40(sp)
   12884:	f022                	sd	s0,32(sp)
   12886:	e44e                	sd	s3,8(sp)
   12888:	892a                	mv	s2,a0
   1288a:	c3c9                	beqz	a5,1290c <__sfp+0x96>
   1288c:	52048493          	addi	s1,s1,1312
   12890:	0b000993          	li	s3,176
   12894:	449c                	lw	a5,8(s1)
   12896:	6880                	ld	s0,16(s1)
   12898:	06f05663          	blez	a5,12904 <__sfp+0x8e>
   1289c:	37fd                	addiw	a5,a5,-1
   1289e:	1782                	slli	a5,a5,0x20
   128a0:	9381                	srli	a5,a5,0x20
   128a2:	0785                	addi	a5,a5,1
   128a4:	033787b3          	mul	a5,a5,s3
   128a8:	97a2                	add	a5,a5,s0
   128aa:	a029                	j	128b4 <__sfp+0x3e>
   128ac:	0b040413          	addi	s0,s0,176
   128b0:	04878a63          	beq	a5,s0,12904 <__sfp+0x8e>
   128b4:	01041703          	lh	a4,16(s0)
   128b8:	fb75                	bnez	a4,128ac <__sfp+0x36>
   128ba:	77c1                	lui	a5,0xffff0
   128bc:	0785                	addi	a5,a5,1
   128be:	0a042623          	sw	zero,172(s0)
   128c2:	00043023          	sd	zero,0(s0)
   128c6:	00043423          	sd	zero,8(s0)
   128ca:	c81c                	sw	a5,16(s0)
   128cc:	00043c23          	sd	zero,24(s0)
   128d0:	02042023          	sw	zero,32(s0)
   128d4:	02042423          	sw	zero,40(s0)
   128d8:	4621                	li	a2,8
   128da:	4581                	li	a1,0
   128dc:	0a440513          	addi	a0,s0,164
   128e0:	ba9fd0ef          	jal	ra,10488 <memset>
   128e4:	04043c23          	sd	zero,88(s0)
   128e8:	06042023          	sw	zero,96(s0)
   128ec:	06043c23          	sd	zero,120(s0)
   128f0:	08042023          	sw	zero,128(s0)
   128f4:	70a2                	ld	ra,40(sp)
   128f6:	8522                	mv	a0,s0
   128f8:	7402                	ld	s0,32(sp)
   128fa:	64e2                	ld	s1,24(sp)
   128fc:	6942                	ld	s2,16(sp)
   128fe:	69a2                	ld	s3,8(sp)
   12900:	6145                	addi	sp,sp,48
   12902:	8082                	ret
   12904:	6080                	ld	s0,0(s1)
   12906:	c419                	beqz	s0,12914 <__sfp+0x9e>
   12908:	84a2                	mv	s1,s0
   1290a:	b769                	j	12894 <__sfp+0x1e>
   1290c:	8526                	mv	a0,s1
   1290e:	df5ff0ef          	jal	ra,12702 <__sinit.part.0>
   12912:	bfad                	j	1288c <__sfp+0x16>
   12914:	4591                	li	a1,4
   12916:	854a                	mv	a0,s2
   12918:	f17ff0ef          	jal	ra,1282e <__sfmoreglue>
   1291c:	e088                	sd	a0,0(s1)
   1291e:	842a                	mv	s0,a0
   12920:	f565                	bnez	a0,12908 <__sfp+0x92>
   12922:	47b1                	li	a5,12
   12924:	00f92023          	sw	a5,0(s2)
   12928:	b7f1                	j	128f4 <__sfp+0x7e>

000000000001292a <_cleanup>:
   1292a:	00007597          	auipc	a1,0x7
   1292e:	15458593          	addi	a1,a1,340 # 19a7e <_fclose_r>
   12932:	8301b503          	ld	a0,-2000(gp) # 1f298 <_global_impure_ptr>
   12936:	af25                	j	1306e <_fwalk_reent>

0000000000012938 <__sinit>:
   12938:	493c                	lw	a5,80(a0)
   1293a:	c391                	beqz	a5,1293e <__sinit+0x6>
   1293c:	8082                	ret
   1293e:	b3d1                	j	12702 <__sinit.part.0>

0000000000012940 <__sfp_lock_acquire>:
   12940:	8082                	ret

0000000000012942 <__sfp_lock_release>:
   12942:	8082                	ret

0000000000012944 <__sinit_lock_acquire>:
   12944:	8082                	ret

0000000000012946 <__sinit_lock_release>:
   12946:	8082                	ret

0000000000012948 <__fp_lock_all>:
   12948:	00000597          	auipc	a1,0x0
   1294c:	daa58593          	addi	a1,a1,-598 # 126f2 <__fp_lock>
   12950:	8401b503          	ld	a0,-1984(gp) # 1f2a8 <_impure_ptr>
   12954:	ad61                	j	12fec <_fwalk>

0000000000012956 <__fp_unlock_all>:
   12956:	00000597          	auipc	a1,0x0
   1295a:	ed458593          	addi	a1,a1,-300 # 1282a <__fp_unlock>
   1295e:	8401b503          	ld	a0,-1984(gp) # 1f2a8 <_impure_ptr>
   12962:	a569                	j	12fec <_fwalk>

0000000000012964 <__libc_fini_array>:
   12964:	1101                	addi	sp,sp,-32
   12966:	e822                	sd	s0,16(sp)
   12968:	0000c797          	auipc	a5,0xc
   1296c:	80078793          	addi	a5,a5,-2048 # 1e168 <__fini_array_end>
   12970:	0000b417          	auipc	s0,0xb
   12974:	7f040413          	addi	s0,s0,2032 # 1e160 <__init_array_end>
   12978:	8f81                	sub	a5,a5,s0
   1297a:	e426                	sd	s1,8(sp)
   1297c:	ec06                	sd	ra,24(sp)
   1297e:	4037d493          	srai	s1,a5,0x3
   12982:	c881                	beqz	s1,12992 <__libc_fini_array+0x2e>
   12984:	17e1                	addi	a5,a5,-8
   12986:	943e                	add	s0,s0,a5
   12988:	601c                	ld	a5,0(s0)
   1298a:	14fd                	addi	s1,s1,-1
   1298c:	1461                	addi	s0,s0,-8
   1298e:	9782                	jalr	a5
   12990:	fce5                	bnez	s1,12988 <__libc_fini_array+0x24>
   12992:	60e2                	ld	ra,24(sp)
   12994:	6442                	ld	s0,16(sp)
   12996:	64a2                	ld	s1,8(sp)
   12998:	6105                	addi	sp,sp,32
   1299a:	8082                	ret

000000000001299c <_malloc_trim_r>:
   1299c:	7179                	addi	sp,sp,-48
   1299e:	f022                	sd	s0,32(sp)
   129a0:	ec26                	sd	s1,24(sp)
   129a2:	e84a                	sd	s2,16(sp)
   129a4:	e44e                	sd	s3,8(sp)
   129a6:	e052                	sd	s4,0(sp)
   129a8:	89ae                	mv	s3,a1
   129aa:	f406                	sd	ra,40(sp)
   129ac:	0000ca17          	auipc	s4,0xc
   129b0:	0aca0a13          	addi	s4,s4,172 # 1ea58 <__malloc_av_>
   129b4:	892a                	mv	s2,a0
   129b6:	27a030ef          	jal	ra,15c30 <__malloc_lock>
   129ba:	010a3703          	ld	a4,16(s4)
   129be:	6785                	lui	a5,0x1
   129c0:	fdf78413          	addi	s0,a5,-33 # fdf <register_fini-0xf0d1>
   129c4:	6704                	ld	s1,8(a4)
   129c6:	41340433          	sub	s0,s0,s3
   129ca:	98f1                	andi	s1,s1,-4
   129cc:	9426                	add	s0,s0,s1
   129ce:	8031                	srli	s0,s0,0xc
   129d0:	147d                	addi	s0,s0,-1
   129d2:	0432                	slli	s0,s0,0xc
   129d4:	00f44b63          	blt	s0,a5,129ea <_malloc_trim_r+0x4e>
   129d8:	4581                	li	a1,0
   129da:	854a                	mv	a0,s2
   129dc:	1e4040ef          	jal	ra,16bc0 <_sbrk_r>
   129e0:	010a3783          	ld	a5,16(s4)
   129e4:	97a6                	add	a5,a5,s1
   129e6:	00f50e63          	beq	a0,a5,12a02 <_malloc_trim_r+0x66>
   129ea:	854a                	mv	a0,s2
   129ec:	246030ef          	jal	ra,15c32 <__malloc_unlock>
   129f0:	70a2                	ld	ra,40(sp)
   129f2:	7402                	ld	s0,32(sp)
   129f4:	64e2                	ld	s1,24(sp)
   129f6:	6942                	ld	s2,16(sp)
   129f8:	69a2                	ld	s3,8(sp)
   129fa:	6a02                	ld	s4,0(sp)
   129fc:	4501                	li	a0,0
   129fe:	6145                	addi	sp,sp,48
   12a00:	8082                	ret
   12a02:	408005b3          	neg	a1,s0
   12a06:	854a                	mv	a0,s2
   12a08:	1b8040ef          	jal	ra,16bc0 <_sbrk_r>
   12a0c:	57fd                	li	a5,-1
   12a0e:	02f50c63          	beq	a0,a5,12a46 <_malloc_trim_r+0xaa>
   12a12:	00011717          	auipc	a4,0x11
   12a16:	90e70713          	addi	a4,a4,-1778 # 23320 <__malloc_current_mallinfo>
   12a1a:	431c                	lw	a5,0(a4)
   12a1c:	010a3683          	ld	a3,16(s4)
   12a20:	8c81                	sub	s1,s1,s0
   12a22:	0014e493          	ori	s1,s1,1
   12a26:	4087843b          	subw	s0,a5,s0
   12a2a:	854a                	mv	a0,s2
   12a2c:	e684                	sd	s1,8(a3)
   12a2e:	c300                	sw	s0,0(a4)
   12a30:	202030ef          	jal	ra,15c32 <__malloc_unlock>
   12a34:	70a2                	ld	ra,40(sp)
   12a36:	7402                	ld	s0,32(sp)
   12a38:	64e2                	ld	s1,24(sp)
   12a3a:	6942                	ld	s2,16(sp)
   12a3c:	69a2                	ld	s3,8(sp)
   12a3e:	6a02                	ld	s4,0(sp)
   12a40:	4505                	li	a0,1
   12a42:	6145                	addi	sp,sp,48
   12a44:	8082                	ret
   12a46:	4581                	li	a1,0
   12a48:	854a                	mv	a0,s2
   12a4a:	176040ef          	jal	ra,16bc0 <_sbrk_r>
   12a4e:	010a3703          	ld	a4,16(s4)
   12a52:	46fd                	li	a3,31
   12a54:	40e507b3          	sub	a5,a0,a4
   12a58:	f8f6d9e3          	bge	a3,a5,129ea <_malloc_trim_r+0x4e>
   12a5c:	8481b683          	ld	a3,-1976(gp) # 1f2b0 <__malloc_sbrk_base>
   12a60:	8d15                	sub	a0,a0,a3
   12a62:	0017e793          	ori	a5,a5,1
   12a66:	00011697          	auipc	a3,0x11
   12a6a:	8aa6ad23          	sw	a0,-1862(a3) # 23320 <__malloc_current_mallinfo>
   12a6e:	e71c                	sd	a5,8(a4)
   12a70:	bfad                	j	129ea <_malloc_trim_r+0x4e>

0000000000012a72 <_free_r>:
   12a72:	c5f5                	beqz	a1,12b5e <_free_r+0xec>
   12a74:	1101                	addi	sp,sp,-32
   12a76:	e822                	sd	s0,16(sp)
   12a78:	e426                	sd	s1,8(sp)
   12a7a:	842e                	mv	s0,a1
   12a7c:	84aa                	mv	s1,a0
   12a7e:	ec06                	sd	ra,24(sp)
   12a80:	1b0030ef          	jal	ra,15c30 <__malloc_lock>
   12a84:	ff843583          	ld	a1,-8(s0)
   12a88:	ff040713          	addi	a4,s0,-16
   12a8c:	0000c517          	auipc	a0,0xc
   12a90:	fcc50513          	addi	a0,a0,-52 # 1ea58 <__malloc_av_>
   12a94:	ffe5f793          	andi	a5,a1,-2
   12a98:	00f70633          	add	a2,a4,a5
   12a9c:	6614                	ld	a3,8(a2)
   12a9e:	01053803          	ld	a6,16(a0)
   12aa2:	9af1                	andi	a3,a3,-4
   12aa4:	14c80063          	beq	a6,a2,12be4 <_free_r+0x172>
   12aa8:	e614                	sd	a3,8(a2)
   12aaa:	8985                	andi	a1,a1,1
   12aac:	00d60833          	add	a6,a2,a3
   12ab0:	e1c1                	bnez	a1,12b30 <_free_r+0xbe>
   12ab2:	ff043303          	ld	t1,-16(s0)
   12ab6:	00883583          	ld	a1,8(a6)
   12aba:	0000c897          	auipc	a7,0xc
   12abe:	fae88893          	addi	a7,a7,-82 # 1ea68 <__malloc_av_+0x10>
   12ac2:	40670733          	sub	a4,a4,t1
   12ac6:	01073803          	ld	a6,16(a4)
   12aca:	979a                	add	a5,a5,t1
   12acc:	8985                	andi	a1,a1,1
   12ace:	0f180863          	beq	a6,a7,12bbe <_free_r+0x14c>
   12ad2:	01873303          	ld	t1,24(a4)
   12ad6:	00683c23          	sd	t1,24(a6)
   12ada:	01033823          	sd	a6,16(t1)
   12ade:	14058d63          	beqz	a1,12c38 <_free_r+0x1c6>
   12ae2:	0017e693          	ori	a3,a5,1
   12ae6:	e714                	sd	a3,8(a4)
   12ae8:	e21c                	sd	a5,0(a2)
   12aea:	1ff00693          	li	a3,511
   12aee:	08f6e263          	bltu	a3,a5,12b72 <_free_r+0x100>
   12af2:	838d                	srli	a5,a5,0x3
   12af4:	0017869b          	addiw	a3,a5,1
   12af8:	0016969b          	slliw	a3,a3,0x1
   12afc:	068e                	slli	a3,a3,0x3
   12afe:	00853803          	ld	a6,8(a0)
   12b02:	96aa                	add	a3,a3,a0
   12b04:	628c                	ld	a1,0(a3)
   12b06:	4027d61b          	sraiw	a2,a5,0x2
   12b0a:	4785                	li	a5,1
   12b0c:	00c797b3          	sll	a5,a5,a2
   12b10:	0107e7b3          	or	a5,a5,a6
   12b14:	ff068613          	addi	a2,a3,-16
   12b18:	ef10                	sd	a2,24(a4)
   12b1a:	eb0c                	sd	a1,16(a4)
   12b1c:	e51c                	sd	a5,8(a0)
   12b1e:	e298                	sd	a4,0(a3)
   12b20:	ed98                	sd	a4,24(a1)
   12b22:	6442                	ld	s0,16(sp)
   12b24:	60e2                	ld	ra,24(sp)
   12b26:	8526                	mv	a0,s1
   12b28:	64a2                	ld	s1,8(sp)
   12b2a:	6105                	addi	sp,sp,32
   12b2c:	1060306f          	j	15c32 <__malloc_unlock>
   12b30:	00883583          	ld	a1,8(a6)
   12b34:	8985                	andi	a1,a1,1
   12b36:	e58d                	bnez	a1,12b60 <_free_r+0xee>
   12b38:	97b6                	add	a5,a5,a3
   12b3a:	0000c897          	auipc	a7,0xc
   12b3e:	f2e88893          	addi	a7,a7,-210 # 1ea68 <__malloc_av_+0x10>
   12b42:	6a14                	ld	a3,16(a2)
   12b44:	0017e813          	ori	a6,a5,1
   12b48:	00f705b3          	add	a1,a4,a5
   12b4c:	11168063          	beq	a3,a7,12c4c <_free_r+0x1da>
   12b50:	6e10                	ld	a2,24(a2)
   12b52:	ee90                	sd	a2,24(a3)
   12b54:	ea14                	sd	a3,16(a2)
   12b56:	01073423          	sd	a6,8(a4)
   12b5a:	e19c                	sd	a5,0(a1)
   12b5c:	b779                	j	12aea <_free_r+0x78>
   12b5e:	8082                	ret
   12b60:	0017e693          	ori	a3,a5,1
   12b64:	fed43c23          	sd	a3,-8(s0)
   12b68:	e21c                	sd	a5,0(a2)
   12b6a:	1ff00693          	li	a3,511
   12b6e:	f8f6f2e3          	bgeu	a3,a5,12af2 <_free_r+0x80>
   12b72:	0097d693          	srli	a3,a5,0x9
   12b76:	4611                	li	a2,4
   12b78:	08d66f63          	bltu	a2,a3,12c16 <_free_r+0x1a4>
   12b7c:	0067d693          	srli	a3,a5,0x6
   12b80:	0396859b          	addiw	a1,a3,57
   12b84:	0015959b          	slliw	a1,a1,0x1
   12b88:	0386861b          	addiw	a2,a3,56
   12b8c:	058e                	slli	a1,a1,0x3
   12b8e:	95aa                	add	a1,a1,a0
   12b90:	6194                	ld	a3,0(a1)
   12b92:	15c1                	addi	a1,a1,-16
   12b94:	0cd58663          	beq	a1,a3,12c60 <_free_r+0x1ee>
   12b98:	6690                	ld	a2,8(a3)
   12b9a:	9a71                	andi	a2,a2,-4
   12b9c:	00c7f563          	bgeu	a5,a2,12ba6 <_free_r+0x134>
   12ba0:	6a94                	ld	a3,16(a3)
   12ba2:	fed59be3          	bne	a1,a3,12b98 <_free_r+0x126>
   12ba6:	6e8c                	ld	a1,24(a3)
   12ba8:	ef0c                	sd	a1,24(a4)
   12baa:	eb14                	sd	a3,16(a4)
   12bac:	6442                	ld	s0,16(sp)
   12bae:	60e2                	ld	ra,24(sp)
   12bb0:	e998                	sd	a4,16(a1)
   12bb2:	8526                	mv	a0,s1
   12bb4:	64a2                	ld	s1,8(sp)
   12bb6:	ee98                	sd	a4,24(a3)
   12bb8:	6105                	addi	sp,sp,32
   12bba:	0780306f          	j	15c32 <__malloc_unlock>
   12bbe:	0e059d63          	bnez	a1,12cb8 <_free_r+0x246>
   12bc2:	6e0c                	ld	a1,24(a2)
   12bc4:	6a10                	ld	a2,16(a2)
   12bc6:	97b6                	add	a5,a5,a3
   12bc8:	6442                	ld	s0,16(sp)
   12bca:	ee0c                	sd	a1,24(a2)
   12bcc:	e990                	sd	a2,16(a1)
   12bce:	0017e693          	ori	a3,a5,1
   12bd2:	60e2                	ld	ra,24(sp)
   12bd4:	e714                	sd	a3,8(a4)
   12bd6:	8526                	mv	a0,s1
   12bd8:	973e                	add	a4,a4,a5
   12bda:	64a2                	ld	s1,8(sp)
   12bdc:	e31c                	sd	a5,0(a4)
   12bde:	6105                	addi	sp,sp,32
   12be0:	0520306f          	j	15c32 <__malloc_unlock>
   12be4:	8985                	andi	a1,a1,1
   12be6:	97b6                	add	a5,a5,a3
   12be8:	e989                	bnez	a1,12bfa <_free_r+0x188>
   12bea:	ff043583          	ld	a1,-16(s0)
   12bee:	8f0d                	sub	a4,a4,a1
   12bf0:	6f14                	ld	a3,24(a4)
   12bf2:	6b10                	ld	a2,16(a4)
   12bf4:	97ae                	add	a5,a5,a1
   12bf6:	ee14                	sd	a3,24(a2)
   12bf8:	ea90                	sd	a2,16(a3)
   12bfa:	0017e693          	ori	a3,a5,1
   12bfe:	e714                	sd	a3,8(a4)
   12c00:	e918                	sd	a4,16(a0)
   12c02:	8501b703          	ld	a4,-1968(gp) # 1f2b8 <__malloc_trim_threshold>
   12c06:	f0e7eee3          	bltu	a5,a4,12b22 <_free_r+0xb0>
   12c0a:	8701b583          	ld	a1,-1936(gp) # 1f2d8 <__malloc_top_pad>
   12c0e:	8526                	mv	a0,s1
   12c10:	d8dff0ef          	jal	ra,1299c <_malloc_trim_r>
   12c14:	b739                	j	12b22 <_free_r+0xb0>
   12c16:	4651                	li	a2,20
   12c18:	02d67263          	bgeu	a2,a3,12c3c <_free_r+0x1ca>
   12c1c:	05400613          	li	a2,84
   12c20:	04d66b63          	bltu	a2,a3,12c76 <_free_r+0x204>
   12c24:	00c7d693          	srli	a3,a5,0xc
   12c28:	06f6859b          	addiw	a1,a3,111
   12c2c:	0015959b          	slliw	a1,a1,0x1
   12c30:	06e6861b          	addiw	a2,a3,110
   12c34:	058e                	slli	a1,a1,0x3
   12c36:	bfa1                	j	12b8e <_free_r+0x11c>
   12c38:	97b6                	add	a5,a5,a3
   12c3a:	b721                	j	12b42 <_free_r+0xd0>
   12c3c:	05c6859b          	addiw	a1,a3,92
   12c40:	0015959b          	slliw	a1,a1,0x1
   12c44:	05b6861b          	addiw	a2,a3,91
   12c48:	058e                	slli	a1,a1,0x3
   12c4a:	b791                	j	12b8e <_free_r+0x11c>
   12c4c:	f518                	sd	a4,40(a0)
   12c4e:	f118                	sd	a4,32(a0)
   12c50:	01173c23          	sd	a7,24(a4)
   12c54:	01173823          	sd	a7,16(a4)
   12c58:	01073423          	sd	a6,8(a4)
   12c5c:	e19c                	sd	a5,0(a1)
   12c5e:	b5d1                	j	12b22 <_free_r+0xb0>
   12c60:	00853803          	ld	a6,8(a0)
   12c64:	4026561b          	sraiw	a2,a2,0x2
   12c68:	4785                	li	a5,1
   12c6a:	00c79633          	sll	a2,a5,a2
   12c6e:	01066633          	or	a2,a2,a6
   12c72:	e510                	sd	a2,8(a0)
   12c74:	bf15                	j	12ba8 <_free_r+0x136>
   12c76:	15400613          	li	a2,340
   12c7a:	00d66c63          	bltu	a2,a3,12c92 <_free_r+0x220>
   12c7e:	00f7d693          	srli	a3,a5,0xf
   12c82:	0786859b          	addiw	a1,a3,120
   12c86:	0015959b          	slliw	a1,a1,0x1
   12c8a:	0776861b          	addiw	a2,a3,119
   12c8e:	058e                	slli	a1,a1,0x3
   12c90:	bdfd                	j	12b8e <_free_r+0x11c>
   12c92:	55400613          	li	a2,1364
   12c96:	00d66c63          	bltu	a2,a3,12cae <_free_r+0x23c>
   12c9a:	0127d693          	srli	a3,a5,0x12
   12c9e:	07d6859b          	addiw	a1,a3,125
   12ca2:	0015959b          	slliw	a1,a1,0x1
   12ca6:	07c6861b          	addiw	a2,a3,124
   12caa:	058e                	slli	a1,a1,0x3
   12cac:	b5cd                	j	12b8e <_free_r+0x11c>
   12cae:	7f000593          	li	a1,2032
   12cb2:	07e00613          	li	a2,126
   12cb6:	bde1                	j	12b8e <_free_r+0x11c>
   12cb8:	0017e693          	ori	a3,a5,1
   12cbc:	e714                	sd	a3,8(a4)
   12cbe:	e21c                	sd	a5,0(a2)
   12cc0:	b58d                	j	12b22 <_free_r+0xb0>

0000000000012cc2 <__sfvwrite_r>:
   12cc2:	6a1c                	ld	a5,16(a2)
   12cc4:	1a078c63          	beqz	a5,12e7c <__sfvwrite_r+0x1ba>
   12cc8:	0105d783          	lhu	a5,16(a1)
   12ccc:	711d                	addi	sp,sp,-96
   12cce:	e8a2                	sd	s0,80(sp)
   12cd0:	f852                	sd	s4,48(sp)
   12cd2:	f456                	sd	s5,40(sp)
   12cd4:	ec86                	sd	ra,88(sp)
   12cd6:	e4a6                	sd	s1,72(sp)
   12cd8:	e0ca                	sd	s2,64(sp)
   12cda:	fc4e                	sd	s3,56(sp)
   12cdc:	f05a                	sd	s6,32(sp)
   12cde:	ec5e                	sd	s7,24(sp)
   12ce0:	e862                	sd	s8,16(sp)
   12ce2:	e466                	sd	s9,8(sp)
   12ce4:	e06a                	sd	s10,0(sp)
   12ce6:	0087f713          	andi	a4,a5,8
   12cea:	8a32                	mv	s4,a2
   12cec:	8aaa                	mv	s5,a0
   12cee:	842e                	mv	s0,a1
   12cf0:	c325                	beqz	a4,12d50 <__sfvwrite_r+0x8e>
   12cf2:	6d98                	ld	a4,24(a1)
   12cf4:	cf31                	beqz	a4,12d50 <__sfvwrite_r+0x8e>
   12cf6:	0027f713          	andi	a4,a5,2
   12cfa:	000a3903          	ld	s2,0(s4)
   12cfe:	c735                	beqz	a4,12d6a <__sfvwrite_r+0xa8>
   12d00:	603c                	ld	a5,64(s0)
   12d02:	780c                	ld	a1,48(s0)
   12d04:	80000b37          	lui	s6,0x80000
   12d08:	4981                	li	s3,0
   12d0a:	4481                	li	s1,0
   12d0c:	c00b4b13          	xori	s6,s6,-1024
   12d10:	864e                	mv	a2,s3
   12d12:	8556                	mv	a0,s5
   12d14:	c885                	beqz	s1,12d44 <__sfvwrite_r+0x82>
   12d16:	86a6                	mv	a3,s1
   12d18:	009b7363          	bgeu	s6,s1,12d1e <__sfvwrite_r+0x5c>
   12d1c:	86da                	mv	a3,s6
   12d1e:	2681                	sext.w	a3,a3
   12d20:	9782                	jalr	a5
   12d22:	14a05563          	blez	a0,12e6c <__sfvwrite_r+0x1aa>
   12d26:	010a3783          	ld	a5,16(s4)
   12d2a:	99aa                	add	s3,s3,a0
   12d2c:	8c89                	sub	s1,s1,a0
   12d2e:	40a78533          	sub	a0,a5,a0
   12d32:	00aa3823          	sd	a0,16(s4)
   12d36:	10050763          	beqz	a0,12e44 <__sfvwrite_r+0x182>
   12d3a:	603c                	ld	a5,64(s0)
   12d3c:	780c                	ld	a1,48(s0)
   12d3e:	864e                	mv	a2,s3
   12d40:	8556                	mv	a0,s5
   12d42:	f8f1                	bnez	s1,12d16 <__sfvwrite_r+0x54>
   12d44:	00093983          	ld	s3,0(s2)
   12d48:	00893483          	ld	s1,8(s2)
   12d4c:	0941                	addi	s2,s2,16
   12d4e:	b7c9                	j	12d10 <__sfvwrite_r+0x4e>
   12d50:	85a2                	mv	a1,s0
   12d52:	8556                	mv	a0,s5
   12d54:	e04ff0ef          	jal	ra,12358 <__swsetup_r>
   12d58:	28051863          	bnez	a0,12fe8 <__sfvwrite_r+0x326>
   12d5c:	01045783          	lhu	a5,16(s0)
   12d60:	000a3903          	ld	s2,0(s4)
   12d64:	0027f713          	andi	a4,a5,2
   12d68:	ff41                	bnez	a4,12d00 <__sfvwrite_r+0x3e>
   12d6a:	0017f713          	andi	a4,a5,1
   12d6e:	eb35                	bnez	a4,12de2 <__sfvwrite_r+0x120>
   12d70:	4444                	lw	s1,12(s0)
   12d72:	6008                	ld	a0,0(s0)
   12d74:	80000b37          	lui	s6,0x80000
   12d78:	ffeb4b93          	xori	s7,s6,-2
   12d7c:	4c01                	li	s8,0
   12d7e:	4981                	li	s3,0
   12d80:	fffb4b13          	not	s6,s6
   12d84:	8ca6                	mv	s9,s1
   12d86:	04098863          	beqz	s3,12dd6 <__sfvwrite_r+0x114>
   12d8a:	2007f713          	andi	a4,a5,512
   12d8e:	12070a63          	beqz	a4,12ec2 <__sfvwrite_r+0x200>
   12d92:	8d26                	mv	s10,s1
   12d94:	1899f763          	bgeu	s3,s1,12f22 <__sfvwrite_r+0x260>
   12d98:	8cce                	mv	s9,s3
   12d9a:	8d4e                	mv	s10,s3
   12d9c:	866a                	mv	a2,s10
   12d9e:	85e2                	mv	a1,s8
   12da0:	5bb020ef          	jal	ra,15b5a <memmove>
   12da4:	4458                	lw	a4,12(s0)
   12da6:	601c                	ld	a5,0(s0)
   12da8:	84ce                	mv	s1,s3
   12daa:	41970cbb          	subw	s9,a4,s9
   12dae:	97ea                	add	a5,a5,s10
   12db0:	01942623          	sw	s9,12(s0)
   12db4:	e01c                	sd	a5,0(s0)
   12db6:	4981                	li	s3,0
   12db8:	010a3603          	ld	a2,16(s4)
   12dbc:	9c26                	add	s8,s8,s1
   12dbe:	409604b3          	sub	s1,a2,s1
   12dc2:	009a3823          	sd	s1,16(s4)
   12dc6:	ccbd                	beqz	s1,12e44 <__sfvwrite_r+0x182>
   12dc8:	4444                	lw	s1,12(s0)
   12dca:	6008                	ld	a0,0(s0)
   12dcc:	01045783          	lhu	a5,16(s0)
   12dd0:	8ca6                	mv	s9,s1
   12dd2:	fa099ce3          	bnez	s3,12d8a <__sfvwrite_r+0xc8>
   12dd6:	00093c03          	ld	s8,0(s2)
   12dda:	00893983          	ld	s3,8(s2)
   12dde:	0941                	addi	s2,s2,16
   12de0:	b755                	j	12d84 <__sfvwrite_r+0xc2>
   12de2:	4981                	li	s3,0
   12de4:	4501                	li	a0,0
   12de6:	4c81                	li	s9,0
   12de8:	4c01                	li	s8,0
   12dea:	080c0b63          	beqz	s8,12e80 <__sfvwrite_r+0x1be>
   12dee:	c145                	beqz	a0,12e8e <__sfvwrite_r+0x1cc>
   12df0:	8bce                	mv	s7,s3
   12df2:	013c7363          	bgeu	s8,s3,12df8 <__sfvwrite_r+0x136>
   12df6:	8be2                	mv	s7,s8
   12df8:	6008                	ld	a0,0(s0)
   12dfa:	6c1c                	ld	a5,24(s0)
   12dfc:	5014                	lw	a3,32(s0)
   12dfe:	84de                	mv	s1,s7
   12e00:	00a7f763          	bgeu	a5,a0,12e0e <__sfvwrite_r+0x14c>
   12e04:	445c                	lw	a5,12(s0)
   12e06:	00d78b3b          	addw	s6,a5,a3
   12e0a:	097b4d63          	blt	s6,s7,12ea4 <__sfvwrite_r+0x1e2>
   12e0e:	18dbc463          	blt	s7,a3,12f96 <__sfvwrite_r+0x2d4>
   12e12:	603c                	ld	a5,64(s0)
   12e14:	780c                	ld	a1,48(s0)
   12e16:	8666                	mv	a2,s9
   12e18:	8556                	mv	a0,s5
   12e1a:	9782                	jalr	a5
   12e1c:	84aa                	mv	s1,a0
   12e1e:	04a05763          	blez	a0,12e6c <__sfvwrite_r+0x1aa>
   12e22:	0005079b          	sext.w	a5,a0
   12e26:	40f989bb          	subw	s3,s3,a5
   12e2a:	4505                	li	a0,1
   12e2c:	02098b63          	beqz	s3,12e62 <__sfvwrite_r+0x1a0>
   12e30:	010a3783          	ld	a5,16(s4)
   12e34:	9ca6                	add	s9,s9,s1
   12e36:	409c0c33          	sub	s8,s8,s1
   12e3a:	409784b3          	sub	s1,a5,s1
   12e3e:	009a3823          	sd	s1,16(s4)
   12e42:	f4c5                	bnez	s1,12dea <__sfvwrite_r+0x128>
   12e44:	4501                	li	a0,0
   12e46:	60e6                	ld	ra,88(sp)
   12e48:	6446                	ld	s0,80(sp)
   12e4a:	64a6                	ld	s1,72(sp)
   12e4c:	6906                	ld	s2,64(sp)
   12e4e:	79e2                	ld	s3,56(sp)
   12e50:	7a42                	ld	s4,48(sp)
   12e52:	7aa2                	ld	s5,40(sp)
   12e54:	7b02                	ld	s6,32(sp)
   12e56:	6be2                	ld	s7,24(sp)
   12e58:	6c42                	ld	s8,16(sp)
   12e5a:	6ca2                	ld	s9,8(sp)
   12e5c:	6d02                	ld	s10,0(sp)
   12e5e:	6125                	addi	sp,sp,96
   12e60:	8082                	ret
   12e62:	85a2                	mv	a1,s0
   12e64:	8556                	mv	a0,s5
   12e66:	83dff0ef          	jal	ra,126a2 <_fflush_r>
   12e6a:	d179                	beqz	a0,12e30 <__sfvwrite_r+0x16e>
   12e6c:	01041783          	lh	a5,16(s0)
   12e70:	0407e793          	ori	a5,a5,64
   12e74:	00f41823          	sh	a5,16(s0)
   12e78:	557d                	li	a0,-1
   12e7a:	b7f1                	j	12e46 <__sfvwrite_r+0x184>
   12e7c:	4501                	li	a0,0
   12e7e:	8082                	ret
   12e80:	00893c03          	ld	s8,8(s2)
   12e84:	00093c83          	ld	s9,0(s2)
   12e88:	0941                	addi	s2,s2,16
   12e8a:	fe0c0be3          	beqz	s8,12e80 <__sfvwrite_r+0x1be>
   12e8e:	8662                	mv	a2,s8
   12e90:	45a9                	li	a1,10
   12e92:	8566                	mv	a0,s9
   12e94:	34b020ef          	jal	ra,159de <memchr>
   12e98:	12050f63          	beqz	a0,12fd6 <__sfvwrite_r+0x314>
   12e9c:	0505                	addi	a0,a0,1
   12e9e:	419509bb          	subw	s3,a0,s9
   12ea2:	b7b9                	j	12df0 <__sfvwrite_r+0x12e>
   12ea4:	85e6                	mv	a1,s9
   12ea6:	865a                	mv	a2,s6
   12ea8:	4b3020ef          	jal	ra,15b5a <memmove>
   12eac:	601c                	ld	a5,0(s0)
   12eae:	85a2                	mv	a1,s0
   12eb0:	8556                	mv	a0,s5
   12eb2:	97da                	add	a5,a5,s6
   12eb4:	e01c                	sd	a5,0(s0)
   12eb6:	fecff0ef          	jal	ra,126a2 <_fflush_r>
   12eba:	f94d                	bnez	a0,12e6c <__sfvwrite_r+0x1aa>
   12ebc:	87da                	mv	a5,s6
   12ebe:	84da                	mv	s1,s6
   12ec0:	b79d                	j	12e26 <__sfvwrite_r+0x164>
   12ec2:	6c1c                	ld	a5,24(s0)
   12ec4:	02a7e863          	bltu	a5,a0,12ef4 <__sfvwrite_r+0x232>
   12ec8:	501c                	lw	a5,32(s0)
   12eca:	02f9e563          	bltu	s3,a5,12ef4 <__sfvwrite_r+0x232>
   12ece:	86ce                	mv	a3,s3
   12ed0:	013bf363          	bgeu	s7,s3,12ed6 <__sfvwrite_r+0x214>
   12ed4:	86da                	mv	a3,s6
   12ed6:	02f6c6bb          	divw	a3,a3,a5
   12eda:	6038                	ld	a4,64(s0)
   12edc:	780c                	ld	a1,48(s0)
   12ede:	8662                	mv	a2,s8
   12ee0:	8556                	mv	a0,s5
   12ee2:	02f686bb          	mulw	a3,a3,a5
   12ee6:	9702                	jalr	a4
   12ee8:	84aa                	mv	s1,a0
   12eea:	f8a051e3          	blez	a0,12e6c <__sfvwrite_r+0x1aa>
   12eee:	409989b3          	sub	s3,s3,s1
   12ef2:	b5d9                	j	12db8 <__sfvwrite_r+0xf6>
   12ef4:	0099f363          	bgeu	s3,s1,12efa <__sfvwrite_r+0x238>
   12ef8:	84ce                	mv	s1,s3
   12efa:	8626                	mv	a2,s1
   12efc:	85e2                	mv	a1,s8
   12efe:	45d020ef          	jal	ra,15b5a <memmove>
   12f02:	445c                	lw	a5,12(s0)
   12f04:	6018                	ld	a4,0(s0)
   12f06:	409786bb          	subw	a3,a5,s1
   12f0a:	9726                	add	a4,a4,s1
   12f0c:	c454                	sw	a3,12(s0)
   12f0e:	e018                	sd	a4,0(s0)
   12f10:	fef9                	bnez	a3,12eee <__sfvwrite_r+0x22c>
   12f12:	85a2                	mv	a1,s0
   12f14:	8556                	mv	a0,s5
   12f16:	f8cff0ef          	jal	ra,126a2 <_fflush_r>
   12f1a:	f929                	bnez	a0,12e6c <__sfvwrite_r+0x1aa>
   12f1c:	409989b3          	sub	s3,s3,s1
   12f20:	bd61                	j	12db8 <__sfvwrite_r+0xf6>
   12f22:	4807f713          	andi	a4,a5,1152
   12f26:	e6070be3          	beqz	a4,12d9c <__sfvwrite_r+0xda>
   12f2a:	5004                	lw	s1,32(s0)
   12f2c:	6c0c                	ld	a1,24(s0)
   12f2e:	00198713          	addi	a4,s3,1
   12f32:	0014969b          	slliw	a3,s1,0x1
   12f36:	9ea5                	addw	a3,a3,s1
   12f38:	8d0d                	sub	a0,a0,a1
   12f3a:	01f6d49b          	srliw	s1,a3,0x1f
   12f3e:	00050d1b          	sext.w	s10,a0
   12f42:	9cb5                	addw	s1,s1,a3
   12f44:	4014d49b          	sraiw	s1,s1,0x1
   12f48:	976a                	add	a4,a4,s10
   12f4a:	00e4f563          	bgeu	s1,a4,12f54 <__sfvwrite_r+0x292>
   12f4e:	0019849b          	addiw	s1,s3,1
   12f52:	9ca9                	addw	s1,s1,a0
   12f54:	4007f793          	andi	a5,a5,1024
   12f58:	cfa9                	beqz	a5,12fb2 <__sfvwrite_r+0x2f0>
   12f5a:	85a6                	mv	a1,s1
   12f5c:	8556                	mv	a0,s5
   12f5e:	408020ef          	jal	ra,15366 <_malloc_r>
   12f62:	8caa                	mv	s9,a0
   12f64:	cd25                	beqz	a0,12fdc <__sfvwrite_r+0x31a>
   12f66:	6c0c                	ld	a1,24(s0)
   12f68:	866a                	mv	a2,s10
   12f6a:	313020ef          	jal	ra,15a7c <memcpy>
   12f6e:	01045783          	lhu	a5,16(s0)
   12f72:	b7f7f793          	andi	a5,a5,-1153
   12f76:	0807e793          	ori	a5,a5,128
   12f7a:	00f41823          	sh	a5,16(s0)
   12f7e:	01ac8533          	add	a0,s9,s10
   12f82:	41a487bb          	subw	a5,s1,s10
   12f86:	01943c23          	sd	s9,24(s0)
   12f8a:	e008                	sd	a0,0(s0)
   12f8c:	d004                	sw	s1,32(s0)
   12f8e:	8cce                	mv	s9,s3
   12f90:	c45c                	sw	a5,12(s0)
   12f92:	8d4e                	mv	s10,s3
   12f94:	b521                	j	12d9c <__sfvwrite_r+0xda>
   12f96:	865e                	mv	a2,s7
   12f98:	85e6                	mv	a1,s9
   12f9a:	3c1020ef          	jal	ra,15b5a <memmove>
   12f9e:	4458                	lw	a4,12(s0)
   12fa0:	6010                	ld	a2,0(s0)
   12fa2:	000b879b          	sext.w	a5,s7
   12fa6:	4177073b          	subw	a4,a4,s7
   12faa:	965e                	add	a2,a2,s7
   12fac:	c458                	sw	a4,12(s0)
   12fae:	e010                	sd	a2,0(s0)
   12fb0:	bd9d                	j	12e26 <__sfvwrite_r+0x164>
   12fb2:	8626                	mv	a2,s1
   12fb4:	8556                	mv	a0,s5
   12fb6:	7fc030ef          	jal	ra,167b2 <_realloc_r>
   12fba:	8caa                	mv	s9,a0
   12fbc:	f169                	bnez	a0,12f7e <__sfvwrite_r+0x2bc>
   12fbe:	6c0c                	ld	a1,24(s0)
   12fc0:	8556                	mv	a0,s5
   12fc2:	ab1ff0ef          	jal	ra,12a72 <_free_r>
   12fc6:	01041783          	lh	a5,16(s0)
   12fca:	4731                	li	a4,12
   12fcc:	00eaa023          	sw	a4,0(s5)
   12fd0:	f7f7f793          	andi	a5,a5,-129
   12fd4:	bd71                	j	12e70 <__sfvwrite_r+0x1ae>
   12fd6:	001c099b          	addiw	s3,s8,1
   12fda:	bd19                	j	12df0 <__sfvwrite_r+0x12e>
   12fdc:	4731                	li	a4,12
   12fde:	01041783          	lh	a5,16(s0)
   12fe2:	00eaa023          	sw	a4,0(s5)
   12fe6:	b569                	j	12e70 <__sfvwrite_r+0x1ae>
   12fe8:	557d                	li	a0,-1
   12fea:	bdb1                	j	12e46 <__sfvwrite_r+0x184>

0000000000012fec <_fwalk>:
   12fec:	715d                	addi	sp,sp,-80
   12fee:	f84a                	sd	s2,48(sp)
   12ff0:	f44e                	sd	s3,40(sp)
   12ff2:	f052                	sd	s4,32(sp)
   12ff4:	ec56                	sd	s5,24(sp)
   12ff6:	e85a                	sd	s6,16(sp)
   12ff8:	e45e                	sd	s7,8(sp)
   12ffa:	e486                	sd	ra,72(sp)
   12ffc:	e0a2                	sd	s0,64(sp)
   12ffe:	fc26                	sd	s1,56(sp)
   13000:	8a2e                	mv	s4,a1
   13002:	52050913          	addi	s2,a0,1312
   13006:	4b01                	li	s6,0
   13008:	0b000a93          	li	s5,176
   1300c:	4b85                	li	s7,1
   1300e:	59fd                	li	s3,-1
   13010:	00892783          	lw	a5,8(s2)
   13014:	01093403          	ld	s0,16(s2)
   13018:	02f05b63          	blez	a5,1304e <_fwalk+0x62>
   1301c:	fff7849b          	addiw	s1,a5,-1
   13020:	1482                	slli	s1,s1,0x20
   13022:	9081                	srli	s1,s1,0x20
   13024:	0485                	addi	s1,s1,1
   13026:	035484b3          	mul	s1,s1,s5
   1302a:	94a2                	add	s1,s1,s0
   1302c:	01045783          	lhu	a5,16(s0)
   13030:	00fbfb63          	bgeu	s7,a5,13046 <_fwalk+0x5a>
   13034:	01241783          	lh	a5,18(s0)
   13038:	8522                	mv	a0,s0
   1303a:	01378663          	beq	a5,s3,13046 <_fwalk+0x5a>
   1303e:	9a02                	jalr	s4
   13040:	01656b33          	or	s6,a0,s6
   13044:	2b01                	sext.w	s6,s6
   13046:	0b040413          	addi	s0,s0,176
   1304a:	fe8491e3          	bne	s1,s0,1302c <_fwalk+0x40>
   1304e:	00093903          	ld	s2,0(s2)
   13052:	fa091fe3          	bnez	s2,13010 <_fwalk+0x24>
   13056:	60a6                	ld	ra,72(sp)
   13058:	6406                	ld	s0,64(sp)
   1305a:	74e2                	ld	s1,56(sp)
   1305c:	7942                	ld	s2,48(sp)
   1305e:	79a2                	ld	s3,40(sp)
   13060:	7a02                	ld	s4,32(sp)
   13062:	6ae2                	ld	s5,24(sp)
   13064:	6ba2                	ld	s7,8(sp)
   13066:	855a                	mv	a0,s6
   13068:	6b42                	ld	s6,16(sp)
   1306a:	6161                	addi	sp,sp,80
   1306c:	8082                	ret

000000000001306e <_fwalk_reent>:
   1306e:	715d                	addi	sp,sp,-80
   13070:	f84a                	sd	s2,48(sp)
   13072:	f44e                	sd	s3,40(sp)
   13074:	f052                	sd	s4,32(sp)
   13076:	ec56                	sd	s5,24(sp)
   13078:	e85a                	sd	s6,16(sp)
   1307a:	e45e                	sd	s7,8(sp)
   1307c:	e062                	sd	s8,0(sp)
   1307e:	e486                	sd	ra,72(sp)
   13080:	e0a2                	sd	s0,64(sp)
   13082:	fc26                	sd	s1,56(sp)
   13084:	8c2a                	mv	s8,a0
   13086:	8a2e                	mv	s4,a1
   13088:	52050913          	addi	s2,a0,1312
   1308c:	4b01                	li	s6,0
   1308e:	0b000a93          	li	s5,176
   13092:	4b85                	li	s7,1
   13094:	59fd                	li	s3,-1
   13096:	00892783          	lw	a5,8(s2)
   1309a:	01093403          	ld	s0,16(s2)
   1309e:	02f05c63          	blez	a5,130d6 <_fwalk_reent+0x68>
   130a2:	fff7849b          	addiw	s1,a5,-1
   130a6:	1482                	slli	s1,s1,0x20
   130a8:	9081                	srli	s1,s1,0x20
   130aa:	0485                	addi	s1,s1,1
   130ac:	035484b3          	mul	s1,s1,s5
   130b0:	94a2                	add	s1,s1,s0
   130b2:	01045783          	lhu	a5,16(s0)
   130b6:	00fbfc63          	bgeu	s7,a5,130ce <_fwalk_reent+0x60>
   130ba:	01241783          	lh	a5,18(s0)
   130be:	85a2                	mv	a1,s0
   130c0:	8562                	mv	a0,s8
   130c2:	01378663          	beq	a5,s3,130ce <_fwalk_reent+0x60>
   130c6:	9a02                	jalr	s4
   130c8:	01656b33          	or	s6,a0,s6
   130cc:	2b01                	sext.w	s6,s6
   130ce:	0b040413          	addi	s0,s0,176
   130d2:	fe8490e3          	bne	s1,s0,130b2 <_fwalk_reent+0x44>
   130d6:	00093903          	ld	s2,0(s2)
   130da:	fa091ee3          	bnez	s2,13096 <_fwalk_reent+0x28>
   130de:	60a6                	ld	ra,72(sp)
   130e0:	6406                	ld	s0,64(sp)
   130e2:	74e2                	ld	s1,56(sp)
   130e4:	7942                	ld	s2,48(sp)
   130e6:	79a2                	ld	s3,40(sp)
   130e8:	7a02                	ld	s4,32(sp)
   130ea:	6ae2                	ld	s5,24(sp)
   130ec:	6ba2                	ld	s7,8(sp)
   130ee:	6c02                	ld	s8,0(sp)
   130f0:	855a                	mv	a0,s6
   130f2:	6b42                	ld	s6,16(sp)
   130f4:	6161                	addi	sp,sp,80
   130f6:	8082                	ret

00000000000130f8 <eshdn1>:
   130f8:	00450693          	addi	a3,a0,4
   130fc:	4781                	li	a5,0
   130fe:	0569                	addi	a0,a0,26
   13100:	7861                	lui	a6,0xffff8
   13102:	a811                	j	13116 <eshdn1+0x1e>
   13104:	0017979b          	slliw	a5,a5,0x1
   13108:	00e69023          	sh	a4,0(a3)
   1310c:	17c2                	slli	a5,a5,0x30
   1310e:	0689                	addi	a3,a3,2
   13110:	93c1                	srli	a5,a5,0x30
   13112:	02d50863          	beq	a0,a3,13142 <eshdn1+0x4a>
   13116:	0006d703          	lhu	a4,0(a3)
   1311a:	00177613          	andi	a2,a4,1
   1311e:	c219                	beqz	a2,13124 <eshdn1+0x2c>
   13120:	0017e793          	ori	a5,a5,1
   13124:	8305                	srli	a4,a4,0x1
   13126:	0027f613          	andi	a2,a5,2
   1312a:	010765b3          	or	a1,a4,a6
   1312e:	da79                	beqz	a2,13104 <eshdn1+0xc>
   13130:	0017979b          	slliw	a5,a5,0x1
   13134:	00b69023          	sh	a1,0(a3)
   13138:	17c2                	slli	a5,a5,0x30
   1313a:	0689                	addi	a3,a3,2
   1313c:	93c1                	srli	a5,a5,0x30
   1313e:	fcd51ce3          	bne	a0,a3,13116 <eshdn1+0x1e>
   13142:	8082                	ret

0000000000013144 <eshup1>:
   13144:	01850693          	addi	a3,a0,24
   13148:	4701                	li	a4,0
   1314a:	0509                	addi	a0,a0,2
   1314c:	a811                	j	13160 <eshup1+0x1c>
   1314e:	0017171b          	slliw	a4,a4,0x1
   13152:	00f69023          	sh	a5,0(a3)
   13156:	1742                	slli	a4,a4,0x30
   13158:	16f9                	addi	a3,a3,-2
   1315a:	9341                	srli	a4,a4,0x30
   1315c:	04d50063          	beq	a0,a3,1319c <eshup1+0x58>
   13160:	0006d783          	lhu	a5,0(a3)
   13164:	0107961b          	slliw	a2,a5,0x10
   13168:	4106561b          	sraiw	a2,a2,0x10
   1316c:	02061593          	slli	a1,a2,0x20
   13170:	0017979b          	slliw	a5,a5,0x1
   13174:	0005d463          	bgez	a1,1317c <eshup1+0x38>
   13178:	00176713          	ori	a4,a4,1
   1317c:	17c2                	slli	a5,a5,0x30
   1317e:	93c1                	srli	a5,a5,0x30
   13180:	00277613          	andi	a2,a4,2
   13184:	0017e593          	ori	a1,a5,1
   13188:	d279                	beqz	a2,1314e <eshup1+0xa>
   1318a:	0017171b          	slliw	a4,a4,0x1
   1318e:	00b69023          	sh	a1,0(a3)
   13192:	1742                	slli	a4,a4,0x30
   13194:	16f9                	addi	a3,a3,-2
   13196:	9341                	srli	a4,a4,0x30
   13198:	fcd514e3          	bne	a0,a3,13160 <eshup1+0x1c>
   1319c:	8082                	ret

000000000001319e <m16m>:
   1319e:	1101                	addi	sp,sp,-32
   131a0:	6e41                	lui	t3,0x10
   131a2:	00011b23          	sh	zero,22(sp)
   131a6:	00011c23          	sh	zero,24(sp)
   131aa:	05e1                	addi	a1,a1,24
   131ac:	083c                	addi	a5,sp,24
   131ae:	00410813          	addi	a6,sp,4
   131b2:	1e7d                	addi	t3,t3,-1
   131b4:	0005d703          	lhu	a4,0(a1)
   131b8:	17f9                	addi	a5,a5,-2
   131ba:	15f9                	addi	a1,a1,-2
   131bc:	e315                	bnez	a4,131e0 <m16m+0x42>
   131be:	fe079f23          	sh	zero,-2(a5)
   131c2:	ff0799e3          	bne	a5,a6,131b4 <m16m+0x16>
   131c6:	0611                	addi	a2,a2,4
   131c8:	01a10693          	addi	a3,sp,26
   131cc:	0007d703          	lhu	a4,0(a5)
   131d0:	0789                	addi	a5,a5,2
   131d2:	0609                	addi	a2,a2,2
   131d4:	fee61f23          	sh	a4,-2(a2)
   131d8:	fed79ae3          	bne	a5,a3,131cc <m16m+0x2e>
   131dc:	6105                	addi	sp,sp,32
   131de:	8082                	ret
   131e0:	02a70733          	mul	a4,a4,a0
   131e4:	0027d883          	lhu	a7,2(a5)
   131e8:	0007d303          	lhu	t1,0(a5)
   131ec:	01c776b3          	and	a3,a4,t3
   131f0:	96c6                	add	a3,a3,a7
   131f2:	8341                	srli	a4,a4,0x10
   131f4:	0106d893          	srli	a7,a3,0x10
   131f8:	971a                	add	a4,a4,t1
   131fa:	9746                	add	a4,a4,a7
   131fc:	01075893          	srli	a7,a4,0x10
   13200:	00d79123          	sh	a3,2(a5)
   13204:	00e79023          	sh	a4,0(a5)
   13208:	ff179f23          	sh	a7,-2(a5)
   1320c:	fb0794e3          	bne	a5,a6,131b4 <m16m+0x16>
   13210:	bf5d                	j	131c6 <m16m+0x28>

0000000000013212 <eisnan.part.0>:
   13212:	01250713          	addi	a4,a0,18
   13216:	00055783          	lhu	a5,0(a0)
   1321a:	0509                	addi	a0,a0,2
   1321c:	e789                	bnez	a5,13226 <eisnan.part.0+0x14>
   1321e:	fee51ce3          	bne	a0,a4,13216 <eisnan.part.0+0x4>
   13222:	4501                	li	a0,0
   13224:	8082                	ret
   13226:	4505                	li	a0,1
   13228:	8082                	ret

000000000001322a <eneg>:
   1322a:	1101                	addi	sp,sp,-32
   1322c:	e426                	sd	s1,8(sp)
   1322e:	01255483          	lhu	s1,18(a0)
   13232:	e822                	sd	s0,16(sp)
   13234:	ec06                	sd	ra,24(sp)
   13236:	fff4c793          	not	a5,s1
   1323a:	03179713          	slli	a4,a5,0x31
   1323e:	842a                	mv	s0,a0
   13240:	e701                	bnez	a4,13248 <eneg+0x1e>
   13242:	fd1ff0ef          	jal	ra,13212 <eisnan.part.0>
   13246:	e509                	bnez	a0,13250 <eneg+0x26>
   13248:	77e1                	lui	a5,0xffff8
   1324a:	8cbd                	xor	s1,s1,a5
   1324c:	00941923          	sh	s1,18(s0)
   13250:	60e2                	ld	ra,24(sp)
   13252:	6442                	ld	s0,16(sp)
   13254:	64a2                	ld	s1,8(sp)
   13256:	6105                	addi	sp,sp,32
   13258:	8082                	ret

000000000001325a <eisneg>:
   1325a:	1141                	addi	sp,sp,-16
   1325c:	e022                	sd	s0,0(sp)
   1325e:	01255403          	lhu	s0,18(a0)
   13262:	e406                	sd	ra,8(sp)
   13264:	fff44793          	not	a5,s0
   13268:	03179713          	slli	a4,a5,0x31
   1326c:	e711                	bnez	a4,13278 <eisneg+0x1e>
   1326e:	fa5ff0ef          	jal	ra,13212 <eisnan.part.0>
   13272:	87aa                	mv	a5,a0
   13274:	4501                	li	a0,0
   13276:	e399                	bnez	a5,1327c <eisneg+0x22>
   13278:	00f45513          	srli	a0,s0,0xf
   1327c:	60a2                	ld	ra,8(sp)
   1327e:	6402                	ld	s0,0(sp)
   13280:	0141                	addi	sp,sp,16
   13282:	8082                	ret

0000000000013284 <emovi>:
   13284:	01255783          	lhu	a5,18(a0)
   13288:	7139                	addi	sp,sp,-64
   1328a:	f822                	sd	s0,48(sp)
   1328c:	00f7d79b          	srliw	a5,a5,0xf
   13290:	f426                	sd	s1,40(sp)
   13292:	fc06                	sd	ra,56(sp)
   13294:	f04a                	sd	s2,32(sp)
   13296:	ec4e                	sd	s3,24(sp)
   13298:	40f007bb          	negw	a5,a5
   1329c:	00f59023          	sh	a5,0(a1)
   132a0:	01255783          	lhu	a5,18(a0)
   132a4:	6721                	lui	a4,0x8
   132a6:	177d                	addi	a4,a4,-1
   132a8:	8ff9                	and	a5,a5,a4
   132aa:	00f59123          	sh	a5,2(a1)
   132ae:	84aa                	mv	s1,a0
   132b0:	01050413          	addi	s0,a0,16
   132b4:	02e78863          	beq	a5,a4,132e4 <emovi+0x60>
   132b8:	00658793          	addi	a5,a1,6
   132bc:	00059223          	sh	zero,4(a1)
   132c0:	1579                	addi	a0,a0,-2
   132c2:	00045703          	lhu	a4,0(s0)
   132c6:	1479                	addi	s0,s0,-2
   132c8:	0789                	addi	a5,a5,2
   132ca:	fee79f23          	sh	a4,-2(a5) # ffffffffffff7ffe <__BSS_END__+0xfffffffffffc0cae>
   132ce:	fe851ae3          	bne	a0,s0,132c2 <emovi+0x3e>
   132d2:	00059c23          	sh	zero,24(a1)
   132d6:	70e2                	ld	ra,56(sp)
   132d8:	7442                	ld	s0,48(sp)
   132da:	74a2                	ld	s1,40(sp)
   132dc:	7902                	ld	s2,32(sp)
   132de:	69e2                	ld	s3,24(sp)
   132e0:	6121                	addi	sp,sp,64
   132e2:	8082                	ret
   132e4:	0007869b          	sext.w	a3,a5
   132e8:	01255783          	lhu	a5,18(a0)
   132ec:	00458913          	addi	s2,a1,4
   132f0:	8ff5                	and	a5,a5,a3
   132f2:	02d79663          	bne	a5,a3,1331e <emovi+0x9a>
   132f6:	e42e                	sd	a1,8(sp)
   132f8:	f1bff0ef          	jal	ra,13212 <eisnan.part.0>
   132fc:	65a2                	ld	a1,8(sp)
   132fe:	c105                	beqz	a0,1331e <emovi+0x9a>
   13300:	00658793          	addi	a5,a1,6
   13304:	00059223          	sh	zero,4(a1)
   13308:	ffc48513          	addi	a0,s1,-4
   1330c:	00045703          	lhu	a4,0(s0)
   13310:	1479                	addi	s0,s0,-2
   13312:	0789                	addi	a5,a5,2
   13314:	fee79f23          	sh	a4,-2(a5)
   13318:	fe851ae3          	bne	a0,s0,1330c <emovi+0x88>
   1331c:	bf6d                	j	132d6 <emovi+0x52>
   1331e:	01a58993          	addi	s3,a1,26
   13322:	0909                	addi	s2,s2,2
   13324:	fe091f23          	sh	zero,-2(s2)
   13328:	ff299de3          	bne	s3,s2,13322 <emovi+0x9e>
   1332c:	70e2                	ld	ra,56(sp)
   1332e:	7442                	ld	s0,48(sp)
   13330:	74a2                	ld	s1,40(sp)
   13332:	7902                	ld	s2,32(sp)
   13334:	69e2                	ld	s3,24(sp)
   13336:	6121                	addi	sp,sp,64
   13338:	8082                	ret

000000000001333a <ecmp>:
   1333a:	01255783          	lhu	a5,18(a0)
   1333e:	711d                	addi	sp,sp,-96
   13340:	e8a2                	sd	s0,80(sp)
   13342:	fff7c793          	not	a5,a5
   13346:	e4a6                	sd	s1,72(sp)
   13348:	ec86                	sd	ra,88(sp)
   1334a:	03179713          	slli	a4,a5,0x31
   1334e:	84aa                	mv	s1,a0
   13350:	842e                	mv	s0,a1
   13352:	e701                	bnez	a4,1335a <ecmp+0x20>
   13354:	ebfff0ef          	jal	ra,13212 <eisnan.part.0>
   13358:	ed39                	bnez	a0,133b6 <ecmp+0x7c>
   1335a:	01245783          	lhu	a5,18(s0)
   1335e:	fff7c793          	not	a5,a5
   13362:	03179713          	slli	a4,a5,0x31
   13366:	c721                	beqz	a4,133ae <ecmp+0x74>
   13368:	858a                	mv	a1,sp
   1336a:	8526                	mv	a0,s1
   1336c:	f19ff0ef          	jal	ra,13284 <emovi>
   13370:	100c                	addi	a1,sp,32
   13372:	8522                	mv	a0,s0
   13374:	f11ff0ef          	jal	ra,13284 <emovi>
   13378:	00015583          	lhu	a1,0(sp)
   1337c:	02015783          	lhu	a5,32(sp)
   13380:	02b78d63          	beq	a5,a1,133ba <ecmp+0x80>
   13384:	00210793          	addi	a5,sp,2
   13388:	02210713          	addi	a4,sp,34
   1338c:	0830                	addi	a2,sp,24
   1338e:	0007d683          	lhu	a3,0(a5)
   13392:	0789                	addi	a5,a5,2
   13394:	e2ad                	bnez	a3,133f6 <ecmp+0xbc>
   13396:	00075683          	lhu	a3,0(a4) # 8000 <register_fini-0x80b0>
   1339a:	0709                	addi	a4,a4,2
   1339c:	eea9                	bnez	a3,133f6 <ecmp+0xbc>
   1339e:	fec798e3          	bne	a5,a2,1338e <ecmp+0x54>
   133a2:	4501                	li	a0,0
   133a4:	60e6                	ld	ra,88(sp)
   133a6:	6446                	ld	s0,80(sp)
   133a8:	64a6                	ld	s1,72(sp)
   133aa:	6125                	addi	sp,sp,96
   133ac:	8082                	ret
   133ae:	8522                	mv	a0,s0
   133b0:	e63ff0ef          	jal	ra,13212 <eisnan.part.0>
   133b4:	d955                	beqz	a0,13368 <ecmp+0x2e>
   133b6:	5579                	li	a0,-2
   133b8:	b7f5                	j	133a4 <ecmp+0x6a>
   133ba:	4505                	li	a0,1
   133bc:	e1a9                	bnez	a1,133fe <ecmp+0xc4>
   133be:	00215603          	lhu	a2,2(sp)
   133c2:	02215683          	lhu	a3,34(sp)
   133c6:	00210713          	addi	a4,sp,2
   133ca:	02210793          	addi	a5,sp,34
   133ce:	182c                	addi	a1,sp,56
   133d0:	0789                	addi	a5,a5,2
   133d2:	0709                	addi	a4,a4,2
   133d4:	00d61c63          	bne	a2,a3,133ec <ecmp+0xb2>
   133d8:	fcb785e3          	beq	a5,a1,133a2 <ecmp+0x68>
   133dc:	00075603          	lhu	a2,0(a4)
   133e0:	0007d683          	lhu	a3,0(a5)
   133e4:	0709                	addi	a4,a4,2
   133e6:	0789                	addi	a5,a5,2
   133e8:	fed608e3          	beq	a2,a3,133d8 <ecmp+0x9e>
   133ec:	fac6ece3          	bltu	a3,a2,133a4 <ecmp+0x6a>
   133f0:	40a0053b          	negw	a0,a0
   133f4:	bf45                	j	133a4 <ecmp+0x6a>
   133f6:	4505                	li	a0,1
   133f8:	d5d5                	beqz	a1,133a4 <ecmp+0x6a>
   133fa:	557d                	li	a0,-1
   133fc:	b765                	j	133a4 <ecmp+0x6a>
   133fe:	557d                	li	a0,-1
   13400:	bf7d                	j	133be <ecmp+0x84>

0000000000013402 <eisinf.part.0>:
   13402:	1141                	addi	sp,sp,-16
   13404:	e406                	sd	ra,8(sp)
   13406:	e0dff0ef          	jal	ra,13212 <eisnan.part.0>
   1340a:	60a2                	ld	ra,8(sp)
   1340c:	00153513          	seqz	a0,a0
   13410:	0141                	addi	sp,sp,16
   13412:	8082                	ret

0000000000013414 <eshift.part.0>:
   13414:	7179                	addi	sp,sp,-48
   13416:	f022                	sd	s0,32(sp)
   13418:	ec26                	sd	s1,24(sp)
   1341a:	f406                	sd	ra,40(sp)
   1341c:	e84a                	sd	s2,16(sp)
   1341e:	e44e                	sd	s3,8(sp)
   13420:	84ae                	mv	s1,a1
   13422:	842a                	mv	s0,a0
   13424:	0605cb63          	bltz	a1,1349a <eshift.part.0+0x86>
   13428:	47bd                	li	a5,15
   1342a:	862e                	mv	a2,a1
   1342c:	0511                	addi	a0,a0,4
   1342e:	01840693          	addi	a3,s0,24
   13432:	45bd                	li	a1,15
   13434:	0297d063          	bge	a5,s1,13454 <eshift.part.0+0x40>
   13438:	87aa                	mv	a5,a0
   1343a:	0027d703          	lhu	a4,2(a5)
   1343e:	0789                	addi	a5,a5,2
   13440:	fee79f23          	sh	a4,-2(a5)
   13444:	fed79be3          	bne	a5,a3,1343a <eshift.part.0+0x26>
   13448:	00041c23          	sh	zero,24(s0)
   1344c:	3641                	addiw	a2,a2,-16
   1344e:	fec5c5e3          	blt	a1,a2,13438 <eshift.part.0+0x24>
   13452:	88bd                	andi	s1,s1,15
   13454:	479d                	li	a5,7
   13456:	0297d463          	bge	a5,s1,1347e <eshift.part.0+0x6a>
   1345a:	01840713          	addi	a4,s0,24
   1345e:	00240593          	addi	a1,s0,2
   13462:	4781                	li	a5,0
   13464:	00075683          	lhu	a3,0(a4)
   13468:	1779                	addi	a4,a4,-2
   1346a:	00869613          	slli	a2,a3,0x8
   1346e:	8fd1                	or	a5,a5,a2
   13470:	00f71123          	sh	a5,2(a4)
   13474:	0086d793          	srli	a5,a3,0x8
   13478:	feb716e3          	bne	a4,a1,13464 <eshift.part.0+0x50>
   1347c:	34e1                	addiw	s1,s1,-8
   1347e:	c491                	beqz	s1,1348a <eshift.part.0+0x76>
   13480:	34fd                	addiw	s1,s1,-1
   13482:	8522                	mv	a0,s0
   13484:	cc1ff0ef          	jal	ra,13144 <eshup1>
   13488:	fce5                	bnez	s1,13480 <eshift.part.0+0x6c>
   1348a:	4501                	li	a0,0
   1348c:	70a2                	ld	ra,40(sp)
   1348e:	7402                	ld	s0,32(sp)
   13490:	64e2                	ld	s1,24(sp)
   13492:	6942                	ld	s2,16(sp)
   13494:	69a2                	ld	s3,8(sp)
   13496:	6145                	addi	sp,sp,48
   13498:	8082                	ret
   1349a:	57c5                	li	a5,-15
   1349c:	40b0093b          	negw	s2,a1
   134a0:	0ef5d463          	bge	a1,a5,13588 <eshift.part.0+0x174>
   134a4:	01850593          	addi	a1,a0,24
   134a8:	4981                	li	s3,0
   134aa:	00450693          	addi	a3,a0,4
   134ae:	463d                	li	a2,15
   134b0:	01845703          	lhu	a4,24(s0)
   134b4:	87ae                	mv	a5,a1
   134b6:	00e9e9b3          	or	s3,s3,a4
   134ba:	ffe7d703          	lhu	a4,-2(a5)
   134be:	17f9                	addi	a5,a5,-2
   134c0:	00e79123          	sh	a4,2(a5)
   134c4:	fed79be3          	bne	a5,a3,134ba <eshift.part.0+0xa6>
   134c8:	00041223          	sh	zero,4(s0)
   134cc:	3941                	addiw	s2,s2,-16
   134ce:	ff2641e3          	blt	a2,s2,134b0 <eshift.part.0+0x9c>
   134d2:	57c1                	li	a5,-16
   134d4:	5745                	li	a4,-15
   134d6:	9f85                	subw	a5,a5,s1
   134d8:	4901                	li	s2,0
   134da:	08e4c063          	blt	s1,a4,1355a <eshift.part.0+0x146>
   134de:	00f9093b          	addw	s2,s2,a5
   134e2:	479d                	li	a5,7
   134e4:	0327df63          	bge	a5,s2,13522 <eshift.part.0+0x10e>
   134e8:	0109999b          	slliw	s3,s3,0x10
   134ec:	4109d99b          	sraiw	s3,s3,0x10
   134f0:	01844783          	lbu	a5,24(s0)
   134f4:	01a40593          	addi	a1,s0,26
   134f8:	00f9e9b3          	or	s3,s3,a5
   134fc:	19c2                	slli	s3,s3,0x30
   134fe:	0309d993          	srli	s3,s3,0x30
   13502:	4781                	li	a5,0
   13504:	0006d603          	lhu	a2,0(a3)
   13508:	0689                	addi	a3,a3,2
   1350a:	0086571b          	srliw	a4,a2,0x8
   1350e:	8f5d                	or	a4,a4,a5
   13510:	0086179b          	slliw	a5,a2,0x8
   13514:	17c2                	slli	a5,a5,0x30
   13516:	fee69f23          	sh	a4,-2(a3)
   1351a:	93c1                	srli	a5,a5,0x30
   1351c:	feb694e3          	bne	a3,a1,13504 <eshift.part.0+0xf0>
   13520:	3961                	addiw	s2,s2,-8
   13522:	04090b63          	beqz	s2,13578 <eshift.part.0+0x164>
   13526:	01845783          	lhu	a5,24(s0)
   1352a:	397d                	addiw	s2,s2,-1
   1352c:	8522                	mv	a0,s0
   1352e:	8b85                	andi	a5,a5,1
   13530:	0137e9b3          	or	s3,a5,s3
   13534:	bc5ff0ef          	jal	ra,130f8 <eshdn1>
   13538:	fe0917e3          	bnez	s2,13526 <eshift.part.0+0x112>
   1353c:	0109979b          	slliw	a5,s3,0x10
   13540:	4107d79b          	sraiw	a5,a5,0x10
   13544:	e78d                	bnez	a5,1356e <eshift.part.0+0x15a>
   13546:	03099513          	slli	a0,s3,0x30
   1354a:	9141                	srli	a0,a0,0x30
   1354c:	70a2                	ld	ra,40(sp)
   1354e:	7402                	ld	s0,32(sp)
   13550:	64e2                	ld	s1,24(sp)
   13552:	6942                	ld	s2,16(sp)
   13554:	69a2                	ld	s3,8(sp)
   13556:	6145                	addi	sp,sp,48
   13558:	8082                	ret
   1355a:	ff07f913          	andi	s2,a5,-16
   1355e:	4120093b          	negw	s2,s2
   13562:	00f9093b          	addw	s2,s2,a5
   13566:	479d                	li	a5,7
   13568:	fb27dde3          	bge	a5,s2,13522 <eshift.part.0+0x10e>
   1356c:	bfb5                	j	134e8 <eshift.part.0+0xd4>
   1356e:	4985                	li	s3,1
   13570:	03099513          	slli	a0,s3,0x30
   13574:	9141                	srli	a0,a0,0x30
   13576:	bfd9                	j	1354c <eshift.part.0+0x138>
   13578:	854e                	mv	a0,s3
   1357a:	00099563          	bnez	s3,13584 <eshift.part.0+0x170>
   1357e:	1542                	slli	a0,a0,0x30
   13580:	9141                	srli	a0,a0,0x30
   13582:	b729                	j	1348c <eshift.part.0+0x78>
   13584:	4505                	li	a0,1
   13586:	bfe5                	j	1357e <eshift.part.0+0x16a>
   13588:	57e5                	li	a5,-7
   1358a:	4981                	li	s3,0
   1358c:	f8f5dde3          	bge	a1,a5,13526 <eshift.part.0+0x112>
   13590:	00440693          	addi	a3,s0,4
   13594:	bfb1                	j	134f0 <eshift.part.0+0xdc>

0000000000013596 <enormlz>:
   13596:	00455783          	lhu	a5,4(a0)
   1359a:	1101                	addi	sp,sp,-32
   1359c:	e426                	sd	s1,8(sp)
   1359e:	ec06                	sd	ra,24(sp)
   135a0:	e822                	sd	s0,16(sp)
   135a2:	e04a                	sd	s2,0(sp)
   135a4:	84aa                	mv	s1,a0
   135a6:	ebc5                	bnez	a5,13656 <enormlz+0xc0>
   135a8:	00655703          	lhu	a4,6(a0)
   135ac:	4401                	li	s0,0
   135ae:	0107179b          	slliw	a5,a4,0x10
   135b2:	4107d79b          	sraiw	a5,a5,0x10
   135b6:	02079693          	slli	a3,a5,0x20
   135ba:	0806c763          	bltz	a3,13648 <enormlz+0xb2>
   135be:	01a50693          	addi	a3,a0,26
   135c2:	0a000613          	li	a2,160
   135c6:	e31d                	bnez	a4,135ec <enormlz+0x56>
   135c8:	00648793          	addi	a5,s1,6
   135cc:	a019                	j	135d2 <enormlz+0x3c>
   135ce:	0007d703          	lhu	a4,0(a5)
   135d2:	0789                	addi	a5,a5,2
   135d4:	fee79e23          	sh	a4,-4(a5)
   135d8:	fef69be3          	bne	a3,a5,135ce <enormlz+0x38>
   135dc:	00049c23          	sh	zero,24(s1)
   135e0:	2441                	addiw	s0,s0,16
   135e2:	06c40363          	beq	s0,a2,13648 <enormlz+0xb2>
   135e6:	0064d703          	lhu	a4,6(s1)
   135ea:	df79                	beqz	a4,135c8 <enormlz+0x32>
   135ec:	f0077793          	andi	a5,a4,-256
   135f0:	eb8d                	bnez	a5,13622 <enormlz+0x8c>
   135f2:	01848513          	addi	a0,s1,24
   135f6:	00248593          	addi	a1,s1,2
   135fa:	4781                	li	a5,0
   135fc:	872a                	mv	a4,a0
   135fe:	00075683          	lhu	a3,0(a4)
   13602:	1779                	addi	a4,a4,-2
   13604:	00869613          	slli	a2,a3,0x8
   13608:	8fd1                	or	a5,a5,a2
   1360a:	00f71123          	sh	a5,2(a4)
   1360e:	0086d793          	srli	a5,a3,0x8
   13612:	fee596e3          	bne	a1,a4,135fe <enormlz+0x68>
   13616:	0064d703          	lhu	a4,6(s1)
   1361a:	2421                	addiw	s0,s0,8
   1361c:	f0077793          	andi	a5,a4,-256
   13620:	dfe9                	beqz	a5,135fa <enormlz+0x64>
   13622:	0a000913          	li	s2,160
   13626:	a801                	j	13636 <enormlz+0xa0>
   13628:	2405                	addiw	s0,s0,1
   1362a:	b1bff0ef          	jal	ra,13144 <eshup1>
   1362e:	00894d63          	blt	s2,s0,13648 <enormlz+0xb2>
   13632:	0064d703          	lhu	a4,6(s1)
   13636:	0107171b          	slliw	a4,a4,0x10
   1363a:	4107571b          	sraiw	a4,a4,0x10
   1363e:	02071793          	slli	a5,a4,0x20
   13642:	8526                	mv	a0,s1
   13644:	fe07d2e3          	bgez	a5,13628 <enormlz+0x92>
   13648:	60e2                	ld	ra,24(sp)
   1364a:	8522                	mv	a0,s0
   1364c:	6442                	ld	s0,16(sp)
   1364e:	64a2                	ld	s1,8(sp)
   13650:	6902                	ld	s2,0(sp)
   13652:	6105                	addi	sp,sp,32
   13654:	8082                	ret
   13656:	f007f713          	andi	a4,a5,-256
   1365a:	4401                	li	s0,0
   1365c:	e705                	bnez	a4,13684 <enormlz+0xee>
   1365e:	f6f00913          	li	s2,-145
   13662:	a801                	j	13672 <enormlz+0xdc>
   13664:	347d                	addiw	s0,s0,-1
   13666:	a93ff0ef          	jal	ra,130f8 <eshdn1>
   1366a:	fd240fe3          	beq	s0,s2,13648 <enormlz+0xb2>
   1366e:	0044d783          	lhu	a5,4(s1)
   13672:	8526                	mv	a0,s1
   13674:	fbe5                	bnez	a5,13664 <enormlz+0xce>
   13676:	60e2                	ld	ra,24(sp)
   13678:	8522                	mv	a0,s0
   1367a:	6442                	ld	s0,16(sp)
   1367c:	64a2                	ld	s1,8(sp)
   1367e:	6902                	ld	s2,0(sp)
   13680:	6105                	addi	sp,sp,32
   13682:	8082                	ret
   13684:	00450693          	addi	a3,a0,4
   13688:	01a50593          	addi	a1,a0,26
   1368c:	4701                	li	a4,0
   1368e:	a019                	j	13694 <enormlz+0xfe>
   13690:	0006d783          	lhu	a5,0(a3)
   13694:	0087d61b          	srliw	a2,a5,0x8
   13698:	8f51                	or	a4,a4,a2
   1369a:	0087979b          	slliw	a5,a5,0x8
   1369e:	00e69023          	sh	a4,0(a3)
   136a2:	03079713          	slli	a4,a5,0x30
   136a6:	0689                	addi	a3,a3,2
   136a8:	9341                	srli	a4,a4,0x30
   136aa:	feb693e3          	bne	a3,a1,13690 <enormlz+0xfa>
   136ae:	0044d783          	lhu	a5,4(s1)
   136b2:	5461                	li	s0,-8
   136b4:	b76d                	j	1365e <enormlz+0xc8>

00000000000136b6 <emdnorm>:
   136b6:	7139                	addi	sp,sp,-64
   136b8:	f822                	sd	s0,48(sp)
   136ba:	f426                	sd	s1,40(sp)
   136bc:	f04a                	sd	s2,32(sp)
   136be:	ec4e                	sd	s3,24(sp)
   136c0:	e852                	sd	s4,16(sp)
   136c2:	e456                	sd	s5,8(sp)
   136c4:	8936                	mv	s2,a3
   136c6:	84be                	mv	s1,a5
   136c8:	fc06                	sd	ra,56(sp)
   136ca:	842a                	mv	s0,a0
   136cc:	89ae                	mv	s3,a1
   136ce:	8a32                	mv	s4,a2
   136d0:	8aba                	mv	s5,a4
   136d2:	ec5ff0ef          	jal	ra,13596 <enormlz>
   136d6:	09000793          	li	a5,144
   136da:	40a90933          	sub	s2,s2,a0
   136de:	12a7db63          	bge	a5,a0,13814 <emdnorm+0x15e>
   136e2:	67a1                	lui	a5,0x8
   136e4:	17f9                	addi	a5,a5,-2
   136e6:	1927dd63          	bge	a5,s2,13880 <emdnorm+0x1ca>
   136ea:	160a8b63          	beqz	s5,13860 <emdnorm+0x1aa>
   136ee:	40c8                	lw	a0,4(s1)
   136f0:	409c                	lw	a5,0(s1)
   136f2:	04a78e63          	beq	a5,a0,1374e <emdnorm+0x98>
   136f6:	01a48713          	addi	a4,s1,26
   136fa:	03448793          	addi	a5,s1,52
   136fe:	0709                	addi	a4,a4,2
   13700:	fe071f23          	sh	zero,-2(a4)
   13704:	fef71de3          	bne	a4,a5,136fe <emdnorm+0x48>
   13708:	03800793          	li	a5,56
   1370c:	28f50263          	beq	a0,a5,13990 <emdnorm+0x2da>
   13710:	12a7d163          	bge	a5,a0,13832 <emdnorm+0x17c>
   13714:	04000793          	li	a5,64
   13718:	24f50c63          	beq	a0,a5,13970 <emdnorm+0x2ba>
   1371c:	07100793          	li	a5,113
   13720:	28f51163          	bne	a0,a5,139a2 <emdnorm+0x2ec>
   13724:	47a9                	li	a5,10
   13726:	40008737          	lui	a4,0x40008
   1372a:	177d                	addi	a4,a4,-1
   1372c:	1782                	slli	a5,a5,0x20
   1372e:	07a9                	addi	a5,a5,10
   13730:	c8d8                	sw	a4,20(s1)
   13732:	7761                	lui	a4,0xffff8
   13734:	00e49c23          	sh	a4,24(s1)
   13738:	e49c                	sd	a5,8(s1)
   1373a:	6721                	lui	a4,0x8
   1373c:	47a9                	li	a5,10
   1373e:	07a1                	addi	a5,a5,8
   13740:	0786                	slli	a5,a5,0x1
   13742:	97a6                	add	a5,a5,s1
   13744:	00e79523          	sh	a4,10(a5) # 800a <register_fini-0x80a6>
   13748:	c088                	sw	a0,0(s1)
   1374a:	17205163          	blez	s2,138ac <emdnorm+0x1f6>
   1374e:	4494                	lw	a3,8(s1)
   13750:	0144d603          	lhu	a2,20(s1)
   13754:	08f00793          	li	a5,143
   13758:	00169713          	slli	a4,a3,0x1
   1375c:	00e40833          	add	a6,s0,a4
   13760:	00085883          	lhu	a7,0(a6) # ffffffffffff8000 <__BSS_END__+0xfffffffffffc0cb0>
   13764:	00c8f5b3          	and	a1,a7,a2
   13768:	02a7ce63          	blt	a5,a0,137a4 <emdnorm+0xee>
   1376c:	47ad                	li	a5,11
   1376e:	02d7cb63          	blt	a5,a3,137a4 <emdnorm+0xee>
   13772:	9f95                	subw	a5,a5,a3
   13774:	1782                	slli	a5,a5,0x20
   13776:	9381                	srli	a5,a5,0x20
   13778:	97b6                	add	a5,a5,a3
   1377a:	00179693          	slli	a3,a5,0x1
   1377e:	0709                	addi	a4,a4,2
   13780:	00440793          	addi	a5,s0,4
   13784:	9722                	add	a4,a4,s0
   13786:	97b6                	add	a5,a5,a3
   13788:	00075683          	lhu	a3,0(a4) # 8000 <register_fini-0x80b0>
   1378c:	c299                	beqz	a3,13792 <emdnorm+0xdc>
   1378e:	0015e593          	ori	a1,a1,1
   13792:	00071023          	sh	zero,0(a4)
   13796:	0709                	addi	a4,a4,2
   13798:	fee798e3          	bne	a5,a4,13788 <emdnorm+0xd2>
   1379c:	00085883          	lhu	a7,0(a6)
   137a0:	0144d603          	lhu	a2,20(s1)
   137a4:	fff64613          	not	a2,a2
   137a8:	01167633          	and	a2,a2,a7
   137ac:	00c81023          	sh	a2,0(a6)
   137b0:	0164d783          	lhu	a5,22(s1)
   137b4:	00b7f733          	and	a4,a5,a1
   137b8:	cb05                	beqz	a4,137e8 <emdnorm+0x132>
   137ba:	12b78f63          	beq	a5,a1,138f8 <emdnorm+0x242>
   137be:	03248613          	addi	a2,s1,50
   137c2:	01840693          	addi	a3,s0,24
   137c6:	04f1                	addi	s1,s1,28
   137c8:	4701                	li	a4,0
   137ca:	00065783          	lhu	a5,0(a2)
   137ce:	0006d583          	lhu	a1,0(a3)
   137d2:	16f9                	addi	a3,a3,-2
   137d4:	1679                	addi	a2,a2,-2
   137d6:	97ae                	add	a5,a5,a1
   137d8:	97ba                	add	a5,a5,a4
   137da:	0107d713          	srli	a4,a5,0x10
   137de:	00f69123          	sh	a5,2(a3)
   137e2:	8b05                	andi	a4,a4,1
   137e4:	fe9613e3          	bne	a2,s1,137ca <emdnorm+0x114>
   137e8:	13205663          	blez	s2,13914 <emdnorm+0x25e>
   137ec:	00445783          	lhu	a5,4(s0)
   137f0:	e7ed                	bnez	a5,138da <emdnorm+0x224>
   137f2:	67a1                	lui	a5,0x8
   137f4:	00041c23          	sh	zero,24(s0)
   137f8:	17f9                	addi	a5,a5,-2
   137fa:	0727c563          	blt	a5,s2,13864 <emdnorm+0x1ae>
   137fe:	01241123          	sh	s2,2(s0)
   13802:	70e2                	ld	ra,56(sp)
   13804:	7442                	ld	s0,48(sp)
   13806:	74a2                	ld	s1,40(sp)
   13808:	7902                	ld	s2,32(sp)
   1380a:	69e2                	ld	s3,24(sp)
   1380c:	6a42                	ld	s4,16(sp)
   1380e:	6aa2                	ld	s5,8(sp)
   13810:	6121                	addi	sp,sp,64
   13812:	8082                	ret
   13814:	0a095a63          	bgez	s2,138c8 <emdnorm+0x212>
   13818:	f7000793          	li	a5,-144
   1381c:	06f95b63          	bge	s2,a5,13892 <emdnorm+0x1dc>
   13820:	00240793          	addi	a5,s0,2
   13824:	0469                	addi	s0,s0,26
   13826:	0789                	addi	a5,a5,2
   13828:	fe079f23          	sh	zero,-2(a5) # 7ffe <register_fini-0x80b2>
   1382c:	fe879de3          	bne	a5,s0,13826 <emdnorm+0x170>
   13830:	bfc9                	j	13802 <emdnorm+0x14c>
   13832:	47e1                	li	a5,24
   13834:	10f50f63          	beq	a0,a5,13952 <emdnorm+0x29c>
   13838:	03500793          	li	a5,53
   1383c:	16f51363          	bne	a0,a5,139a2 <emdnorm+0x2ec>
   13840:	040006b7          	lui	a3,0x4000
   13844:	6705                	lui	a4,0x1
   13846:	7ff68693          	addi	a3,a3,2047 # 40007ff <__BSS_END__+0x3fc94af>
   1384a:	4799                	li	a5,6
   1384c:	80070713          	addi	a4,a4,-2048 # 800 <register_fini-0xf8b0>
   13850:	c8d4                	sw	a3,20(s1)
   13852:	1782                	slli	a5,a5,0x20
   13854:	0799                	addi	a5,a5,6
   13856:	e49c                	sd	a5,8(s1)
   13858:	00e49c23          	sh	a4,24(s1)
   1385c:	4799                	li	a5,6
   1385e:	b5c5                	j	1373e <emdnorm+0x88>
   13860:	00041c23          	sh	zero,24(s0)
   13864:	77e1                	lui	a5,0xffff8
   13866:	fff7c793          	not	a5,a5
   1386a:	00f41123          	sh	a5,2(s0)
   1386e:	00440793          	addi	a5,s0,4
   13872:	0461                	addi	s0,s0,24
   13874:	00079023          	sh	zero,0(a5) # ffffffffffff8000 <__BSS_END__+0xfffffffffffc0cb0>
   13878:	0789                	addi	a5,a5,2
   1387a:	fef41de3          	bne	s0,a5,13874 <emdnorm+0x1be>
   1387e:	b751                	j	13802 <emdnorm+0x14c>
   13880:	00240793          	addi	a5,s0,2
   13884:	0469                	addi	s0,s0,26
   13886:	0789                	addi	a5,a5,2
   13888:	fe079f23          	sh	zero,-2(a5)
   1388c:	fe879de3          	bne	a5,s0,13886 <emdnorm+0x1d0>
   13890:	bf8d                	j	13802 <emdnorm+0x14c>
   13892:	0009059b          	sext.w	a1,s2
   13896:	8522                	mv	a0,s0
   13898:	b7dff0ef          	jal	ra,13414 <eshift.part.0>
   1389c:	c111                	beqz	a0,138a0 <emdnorm+0x1ea>
   1389e:	4985                	li	s3,1
   138a0:	0a0a8463          	beqz	s5,13948 <emdnorm+0x292>
   138a4:	40c8                	lw	a0,4(s1)
   138a6:	409c                	lw	a5,0(s1)
   138a8:	e4a797e3          	bne	a5,a0,136f6 <emdnorm+0x40>
   138ac:	09000793          	li	a5,144
   138b0:	08f50163          	beq	a0,a5,13932 <emdnorm+0x27c>
   138b4:	01845783          	lhu	a5,24(s0)
   138b8:	8522                	mv	a0,s0
   138ba:	8b85                	andi	a5,a5,1
   138bc:	00f9e9b3          	or	s3,s3,a5
   138c0:	839ff0ef          	jal	ra,130f8 <eshdn1>
   138c4:	40c8                	lw	a0,4(s1)
   138c6:	b561                	j	1374e <emdnorm+0x98>
   138c8:	f20a85e3          	beqz	s5,137f2 <emdnorm+0x13c>
   138cc:	40c8                	lw	a0,4(s1)
   138ce:	409c                	lw	a5,0(s1)
   138d0:	e2a793e3          	bne	a5,a0,136f6 <emdnorm+0x40>
   138d4:	e7204de3          	bgtz	s2,1374e <emdnorm+0x98>
   138d8:	bfd1                	j	138ac <emdnorm+0x1f6>
   138da:	8522                	mv	a0,s0
   138dc:	81dff0ef          	jal	ra,130f8 <eshdn1>
   138e0:	67a1                	lui	a5,0x8
   138e2:	0905                	addi	s2,s2,1
   138e4:	00041c23          	sh	zero,24(s0)
   138e8:	17f9                	addi	a5,a5,-2
   138ea:	f727cde3          	blt	a5,s2,13864 <emdnorm+0x1ae>
   138ee:	f00958e3          	bgez	s2,137fe <emdnorm+0x148>
   138f2:	00041123          	sh	zero,2(s0)
   138f6:	b731                	j	13802 <emdnorm+0x14c>
   138f8:	08099963          	bnez	s3,1398a <emdnorm+0x2d4>
   138fc:	44dc                	lw	a5,12(s1)
   138fe:	0184d703          	lhu	a4,24(s1)
   13902:	0786                	slli	a5,a5,0x1
   13904:	97a2                	add	a5,a5,s0
   13906:	0007d783          	lhu	a5,0(a5) # 8000 <register_fini-0x80b0>
   1390a:	8ff9                	and	a5,a5,a4
   1390c:	ea0799e3          	bnez	a5,137be <emdnorm+0x108>
   13910:	ed204ee3          	bgtz	s2,137ec <emdnorm+0x136>
   13914:	09000793          	li	a5,144
   13918:	00f50563          	beq	a0,a5,13922 <emdnorm+0x26c>
   1391c:	8522                	mv	a0,s0
   1391e:	827ff0ef          	jal	ra,13144 <eshup1>
   13922:	00445783          	lhu	a5,4(s0)
   13926:	fbd5                	bnez	a5,138da <emdnorm+0x224>
   13928:	00041c23          	sh	zero,24(s0)
   1392c:	fc0943e3          	bltz	s2,138f2 <emdnorm+0x23c>
   13930:	b5f9                	j	137fe <emdnorm+0x148>
   13932:	0084a803          	lw	a6,8(s1)
   13936:	0144d603          	lhu	a2,20(s1)
   1393a:	0806                	slli	a6,a6,0x1
   1393c:	9822                	add	a6,a6,s0
   1393e:	00085883          	lhu	a7,0(a6)
   13942:	011675b3          	and	a1,a2,a7
   13946:	bdb9                	j	137a4 <emdnorm+0xee>
   13948:	00041c23          	sh	zero,24(s0)
   1394c:	00041123          	sh	zero,2(s0)
   13950:	bd4d                	j	13802 <emdnorm+0x14c>
   13952:	4791                	li	a5,4
   13954:	00800737          	lui	a4,0x800
   13958:	0ff70713          	addi	a4,a4,255 # 8000ff <__BSS_END__+0x7c8daf>
   1395c:	1782                	slli	a5,a5,0x20
   1395e:	0791                	addi	a5,a5,4
   13960:	c8d8                	sw	a4,20(s1)
   13962:	10000713          	li	a4,256
   13966:	e49c                	sd	a5,8(s1)
   13968:	00e49c23          	sh	a4,24(s1)
   1396c:	4791                	li	a5,4
   1396e:	bbc1                	j	1373e <emdnorm+0x88>
   13970:	478d                	li	a5,3
   13972:	80010737          	lui	a4,0x80010
   13976:	177d                	addi	a4,a4,-1
   13978:	1786                	slli	a5,a5,0x21
   1397a:	079d                	addi	a5,a5,7
   1397c:	c8d8                	sw	a4,20(s1)
   1397e:	4705                	li	a4,1
   13980:	e49c                	sd	a5,8(s1)
   13982:	00e49c23          	sh	a4,24(s1)
   13986:	4799                	li	a5,6
   13988:	bb5d                	j	1373e <emdnorm+0x88>
   1398a:	e20a0ae3          	beqz	s4,137be <emdnorm+0x108>
   1398e:	bda9                	j	137e8 <emdnorm+0x132>
   13990:	00800737          	lui	a4,0x800
   13994:	0ff70713          	addi	a4,a4,255 # 8000ff <__BSS_END__+0x7c8daf>
   13998:	c8d8                	sw	a4,20(s1)
   1399a:	4799                	li	a5,6
   1399c:	10000713          	li	a4,256
   139a0:	bd4d                	j	13852 <emdnorm+0x19c>
   139a2:	47ad                	li	a5,11
   139a4:	80010737          	lui	a4,0x80010
   139a8:	177d                	addi	a4,a4,-1
   139aa:	1782                	slli	a5,a5,0x20
   139ac:	07b1                	addi	a5,a5,12
   139ae:	c8d8                	sw	a4,20(s1)
   139b0:	4705                	li	a4,1
   139b2:	e49c                	sd	a5,8(s1)
   139b4:	00e49c23          	sh	a4,24(s1)
   139b8:	47ad                	li	a5,11
   139ba:	b351                	j	1373e <emdnorm+0x88>

00000000000139bc <eiremain>:
   139bc:	711d                	addi	sp,sp,-96
   139be:	e4a6                	sd	s1,72(sp)
   139c0:	fc4e                	sd	s3,56(sp)
   139c2:	84ae                	mv	s1,a1
   139c4:	00255983          	lhu	s3,2(a0)
   139c8:	ec86                	sd	ra,88(sp)
   139ca:	e8a2                	sd	s0,80(sp)
   139cc:	e0ca                	sd	s2,64(sp)
   139ce:	f852                	sd	s4,48(sp)
   139d0:	8932                	mv	s2,a2
   139d2:	f456                	sd	s5,40(sp)
   139d4:	f05a                	sd	s6,32(sp)
   139d6:	ec5e                	sd	s7,24(sp)
   139d8:	e862                	sd	s8,16(sp)
   139da:	e466                	sd	s9,8(sp)
   139dc:	e06a                	sd	s10,0(sp)
   139de:	8a2a                	mv	s4,a0
   139e0:	bb7ff0ef          	jal	ra,13596 <enormlz>
   139e4:	0024d403          	lhu	s0,2(s1)
   139e8:	87aa                	mv	a5,a0
   139ea:	8526                	mv	a0,s1
   139ec:	40f989b3          	sub	s3,s3,a5
   139f0:	03490a93          	addi	s5,s2,52
   139f4:	ba3ff0ef          	jal	ra,13596 <enormlz>
   139f8:	8c09                	sub	s0,s0,a0
   139fa:	04e90713          	addi	a4,s2,78
   139fe:	87d6                	mv	a5,s5
   13a00:	0789                	addi	a5,a5,2
   13a02:	fe079f23          	sh	zero,-2(a5)
   13a06:	fee79de3          	bne	a5,a4,13a00 <eiremain+0x44>
   13a0a:	07344b63          	blt	s0,s3,13a80 <eiremain+0xc4>
   13a0e:	004a0b93          	addi	s7,s4,4
   13a12:	00448b13          	addi	s6,s1,4
   13a16:	19fd                	addi	s3,s3,-1
   13a18:	01aa0c93          	addi	s9,s4,26
   13a1c:	00248c13          	addi	s8,s1,2
   13a20:	875a                	mv	a4,s6
   13a22:	87de                	mv	a5,s7
   13a24:	0007d603          	lhu	a2,0(a5)
   13a28:	00075683          	lhu	a3,0(a4) # ffffffff80010000 <__BSS_END__+0xffffffff7ffd8cb0>
   13a2c:	0789                	addi	a5,a5,2
   13a2e:	0709                	addi	a4,a4,2
   13a30:	06d61c63          	bne	a2,a3,13aa8 <eiremain+0xec>
   13a34:	fefc98e3          	bne	s9,a5,13a24 <eiremain+0x68>
   13a38:	018a0613          	addi	a2,s4,24
   13a3c:	01848713          	addi	a4,s1,24
   13a40:	4681                	li	a3,0
   13a42:	00075783          	lhu	a5,0(a4)
   13a46:	00065583          	lhu	a1,0(a2)
   13a4a:	1779                	addi	a4,a4,-2
   13a4c:	8f95                	sub	a5,a5,a3
   13a4e:	8f8d                	sub	a5,a5,a1
   13a50:	0107d693          	srli	a3,a5,0x10
   13a54:	00f71123          	sh	a5,2(a4)
   13a58:	8a85                	andi	a3,a3,1
   13a5a:	1679                	addi	a2,a2,-2
   13a5c:	feec13e3          	bne	s8,a4,13a42 <eiremain+0x86>
   13a60:	4d05                	li	s10,1
   13a62:	8556                	mv	a0,s5
   13a64:	ee0ff0ef          	jal	ra,13144 <eshup1>
   13a68:	04c95783          	lhu	a5,76(s2)
   13a6c:	147d                	addi	s0,s0,-1
   13a6e:	8526                	mv	a0,s1
   13a70:	00fd6d33          	or	s10,s10,a5
   13a74:	05a91623          	sh	s10,76(s2)
   13a78:	eccff0ef          	jal	ra,13144 <eshup1>
   13a7c:	fb3412e3          	bne	s0,s3,13a20 <eiremain+0x64>
   13a80:	86a2                	mv	a3,s0
   13a82:	6446                	ld	s0,80(sp)
   13a84:	60e6                	ld	ra,88(sp)
   13a86:	79e2                	ld	s3,56(sp)
   13a88:	7a42                	ld	s4,48(sp)
   13a8a:	7aa2                	ld	s5,40(sp)
   13a8c:	7b02                	ld	s6,32(sp)
   13a8e:	6be2                	ld	s7,24(sp)
   13a90:	6c42                	ld	s8,16(sp)
   13a92:	6ca2                	ld	s9,8(sp)
   13a94:	6d02                	ld	s10,0(sp)
   13a96:	87ca                	mv	a5,s2
   13a98:	8526                	mv	a0,s1
   13a9a:	6906                	ld	s2,64(sp)
   13a9c:	64a6                	ld	s1,72(sp)
   13a9e:	4701                	li	a4,0
   13aa0:	4601                	li	a2,0
   13aa2:	4581                	li	a1,0
   13aa4:	6125                	addi	sp,sp,96
   13aa6:	b901                	j	136b6 <emdnorm>
   13aa8:	4d01                	li	s10,0
   13aaa:	fac6ece3          	bltu	a3,a2,13a62 <eiremain+0xa6>
   13aae:	b769                	j	13a38 <eiremain+0x7c>

0000000000013ab0 <emovo.isra.0>:
   13ab0:	00055703          	lhu	a4,0(a0)
   13ab4:	00255783          	lhu	a5,2(a0)
   13ab8:	c319                	beqz	a4,13abe <emovo.isra.0+0xe>
   13aba:	6721                	lui	a4,0x8
   13abc:	8fd9                	or	a5,a5,a4
   13abe:	00f59923          	sh	a5,18(a1)
   13ac2:	00255703          	lhu	a4,2(a0)
   13ac6:	67a1                	lui	a5,0x8
   13ac8:	17fd                	addi	a5,a5,-1
   13aca:	00f70f63          	beq	a4,a5,13ae8 <emovo.isra.0+0x38>
   13ace:	00650793          	addi	a5,a0,6
   13ad2:	05c1                	addi	a1,a1,16
   13ad4:	0561                	addi	a0,a0,24
   13ad6:	0007d703          	lhu	a4,0(a5) # 8000 <register_fini-0x80b0>
   13ada:	0789                	addi	a5,a5,2
   13adc:	15f9                	addi	a1,a1,-2
   13ade:	00e59123          	sh	a4,2(a1)
   13ae2:	fea79ae3          	bne	a5,a0,13ad6 <emovo.isra.0+0x26>
   13ae6:	8082                	ret
   13ae8:	00650793          	addi	a5,a0,6
   13aec:	0569                	addi	a0,a0,26
   13aee:	0007d703          	lhu	a4,0(a5)
   13af2:	0789                	addi	a5,a5,2
   13af4:	e31d                	bnez	a4,13b1a <emovo.isra.0+0x6a>
   13af6:	fea79ce3          	bne	a5,a0,13aee <emovo.isra.0+0x3e>
   13afa:	01258713          	addi	a4,a1,18
   13afe:	87ae                	mv	a5,a1
   13b00:	0789                	addi	a5,a5,2
   13b02:	fe079f23          	sh	zero,-2(a5)
   13b06:	fef71de3          	bne	a4,a5,13b00 <emovo.isra.0+0x50>
   13b0a:	0125d783          	lhu	a5,18(a1)
   13b0e:	6721                	lui	a4,0x8
   13b10:	177d                	addi	a4,a4,-1
   13b12:	8fd9                	or	a5,a5,a4
   13b14:	00f59923          	sh	a5,18(a1)
   13b18:	8082                	ret
   13b1a:	01058713          	addi	a4,a1,16
   13b1e:	87ae                	mv	a5,a1
   13b20:	0789                	addi	a5,a5,2
   13b22:	fe079f23          	sh	zero,-2(a5)
   13b26:	fef71de3          	bne	a4,a5,13b20 <emovo.isra.0+0x70>
   13b2a:	7fffc7b7          	lui	a5,0x7fffc
   13b2e:	c99c                	sw	a5,16(a1)
   13b30:	8082                	ret

0000000000013b32 <emul>:
   13b32:	7131                	addi	sp,sp,-192
   13b34:	e556                	sd	s5,136(sp)
   13b36:	01255a83          	lhu	s5,18(a0)
   13b3a:	67a1                	lui	a5,0x8
   13b3c:	17fd                	addi	a5,a5,-1
   13b3e:	f922                	sd	s0,176(sp)
   13b40:	f526                	sd	s1,168(sp)
   13b42:	f14a                	sd	s2,160(sp)
   13b44:	ed4e                	sd	s3,152(sp)
   13b46:	e15a                	sd	s6,128(sp)
   13b48:	fd06                	sd	ra,184(sp)
   13b4a:	e952                	sd	s4,144(sp)
   13b4c:	fcde                	sd	s7,120(sp)
   13b4e:	f8e2                	sd	s8,112(sp)
   13b50:	f4e6                	sd	s9,104(sp)
   13b52:	0157fb33          	and	s6,a5,s5
   13b56:	84aa                	mv	s1,a0
   13b58:	892e                	mv	s2,a1
   13b5a:	8432                	mv	s0,a2
   13b5c:	89b6                	mv	s3,a3
   13b5e:	0cfb1263          	bne	s6,a5,13c22 <emul+0xf0>
   13b62:	eb0ff0ef          	jal	ra,13212 <eisnan.part.0>
   13b66:	1e051863          	bnez	a0,13d56 <emul+0x224>
   13b6a:	01295a03          	lhu	s4,18(s2)
   13b6e:	014b77b3          	and	a5,s6,s4
   13b72:	1f678d63          	beq	a5,s6,13d6c <emul+0x23a>
   13b76:	8526                	mv	a0,s1
   13b78:	88bff0ef          	jal	ra,13402 <eisinf.part.0>
   13b7c:	22050c63          	beqz	a0,13db4 <emul+0x282>
   13b80:	00009597          	auipc	a1,0x9
   13b84:	b2858593          	addi	a1,a1,-1240 # 1c6a8 <ezero>
   13b88:	854a                	mv	a0,s2
   13b8a:	fb0ff0ef          	jal	ra,1333a <ecmp>
   13b8e:	28050963          	beqz	a0,13e20 <emul+0x2ee>
   13b92:	01295a03          	lhu	s4,18(s2)
   13b96:	67a1                	lui	a5,0x8
   13b98:	17fd                	addi	a5,a5,-1
   13b9a:	0147fa33          	and	s4,a5,s4
   13b9e:	1a42                	slli	s4,s4,0x30
   13ba0:	030a5a13          	srli	s4,s4,0x30
   13ba4:	20fa1663          	bne	s4,a5,13db0 <emul+0x27e>
   13ba8:	854a                	mv	a0,s2
   13baa:	859ff0ef          	jal	ra,13402 <eisinf.part.0>
   13bae:	24051a63          	bnez	a0,13e02 <emul+0x2d0>
   13bb2:	0124d783          	lhu	a5,18(s1)
   13bb6:	00fa77b3          	and	a5,s4,a5
   13bba:	07479a63          	bne	a5,s4,13c2e <emul+0xfc>
   13bbe:	8526                	mv	a0,s1
   13bc0:	843ff0ef          	jal	ra,13402 <eisinf.part.0>
   13bc4:	e509                	bnez	a0,13bce <emul+0x9c>
   13bc6:	854a                	mv	a0,s2
   13bc8:	83bff0ef          	jal	ra,13402 <eisinf.part.0>
   13bcc:	c12d                	beqz	a0,13c2e <emul+0xfc>
   13bce:	8526                	mv	a0,s1
   13bd0:	e8aff0ef          	jal	ra,1325a <eisneg>
   13bd4:	84aa                	mv	s1,a0
   13bd6:	854a                	mv	a0,s2
   13bd8:	e82ff0ef          	jal	ra,1325a <eisneg>
   13bdc:	40a48533          	sub	a0,s1,a0
   13be0:	00a03533          	snez	a0,a0
   13be4:	053e                	slli	a0,a0,0xf
   13be6:	00a41923          	sh	a0,18(s0)
   13bea:	01240713          	addi	a4,s0,18
   13bee:	87a2                	mv	a5,s0
   13bf0:	0789                	addi	a5,a5,2
   13bf2:	fe079f23          	sh	zero,-2(a5) # 7ffe <register_fini-0x80b2>
   13bf6:	fef71de3          	bne	a4,a5,13bf0 <emul+0xbe>
   13bfa:	01245783          	lhu	a5,18(s0)
   13bfe:	6721                	lui	a4,0x8
   13c00:	177d                	addi	a4,a4,-1
   13c02:	8fd9                	or	a5,a5,a4
   13c04:	00f41923          	sh	a5,18(s0)
   13c08:	70ea                	ld	ra,184(sp)
   13c0a:	744a                	ld	s0,176(sp)
   13c0c:	74aa                	ld	s1,168(sp)
   13c0e:	790a                	ld	s2,160(sp)
   13c10:	69ea                	ld	s3,152(sp)
   13c12:	6a4a                	ld	s4,144(sp)
   13c14:	6aaa                	ld	s5,136(sp)
   13c16:	6b0a                	ld	s6,128(sp)
   13c18:	7be6                	ld	s7,120(sp)
   13c1a:	7c46                	ld	s8,112(sp)
   13c1c:	7ca6                	ld	s9,104(sp)
   13c1e:	6129                	addi	sp,sp,192
   13c20:	8082                	ret
   13c22:	0125da03          	lhu	s4,18(a1)
   13c26:	0147f733          	and	a4,a5,s4
   13c2a:	02f70f63          	beq	a4,a5,13c68 <emul+0x136>
   13c2e:	8526                	mv	a0,s1
   13c30:	858a                	mv	a1,sp
   13c32:	e52ff0ef          	jal	ra,13284 <emovi>
   13c36:	854a                	mv	a0,s2
   13c38:	100c                	addi	a1,sp,32
   13c3a:	e4aff0ef          	jal	ra,13284 <emovi>
   13c3e:	00215483          	lhu	s1,2(sp)
   13c42:	02215903          	lhu	s2,34(sp)
   13c46:	e0a1                	bnez	s1,13c86 <emul+0x154>
   13c48:	005c                	addi	a5,sp,4
   13c4a:	0834                	addi	a3,sp,24
   13c4c:	18f68b63          	beq	a3,a5,13de2 <emul+0x2b0>
   13c50:	0007d703          	lhu	a4,0(a5)
   13c54:	0789                	addi	a5,a5,2
   13c56:	db7d                	beqz	a4,13c4c <emul+0x11a>
   13c58:	850a                	mv	a0,sp
   13c5a:	93dff0ef          	jal	ra,13596 <enormlz>
   13c5e:	02215703          	lhu	a4,34(sp)
   13c62:	40a004b3          	neg	s1,a0
   13c66:	a00d                	j	13c88 <emul+0x156>
   13c68:	852e                	mv	a0,a1
   13c6a:	da8ff0ef          	jal	ra,13212 <eisnan.part.0>
   13c6e:	d505                	beqz	a0,13b96 <emul+0x64>
   13c70:	01490713          	addi	a4,s2,20
   13c74:	00095783          	lhu	a5,0(s2)
   13c78:	0909                	addi	s2,s2,2
   13c7a:	0409                	addi	s0,s0,2
   13c7c:	fef41f23          	sh	a5,-2(s0)
   13c80:	fee91ae3          	bne	s2,a4,13c74 <emul+0x142>
   13c84:	b751                	j	13c08 <emul+0xd6>
   13c86:	874a                	mv	a4,s2
