
bin/hello.riscv：     文件格式 elf64-littleriscv


Disassembly of section .text:

00000000000100b0 <register_fini>:
   100b0:	ffff0797          	auipc	a5,0xffff0
   100b4:	f5078793          	addi	a5,a5,-176 # 0 <register_fini-0x100b0>
   100b8:	c799                	beqz	a5,100c6 <register_fini+0x16>
   100ba:	00000517          	auipc	a0,0x0
   100be:	64a50513          	addi	a0,a0,1610 # 10704 <__libc_fini_array>
   100c2:	1750106f          	j	11a36 <atexit>
   100c6:	8082                	ret

00000000000100c8 <_start>:
   100c8:	00004197          	auipc	gp,0x4
   100cc:	d7018193          	addi	gp,gp,-656 # 13e38 <__global_pointer$>
   100d0:	77818513          	addi	a0,gp,1912 # 145b0 <_edata>
   100d4:	00004617          	auipc	a2,0x4
   100d8:	56460613          	addi	a2,a2,1380 # 14638 <__BSS_END__>
   100dc:	8e09                	sub	a2,a2,a0
   100de:	4581                	li	a1,0
   100e0:	12c000ef          	jal	ra,1020c <memset>
   100e4:	00002517          	auipc	a0,0x2
   100e8:	95250513          	addi	a0,a0,-1710 # 11a36 <atexit>
   100ec:	c519                	beqz	a0,100fa <_start+0x32>
   100ee:	00000517          	auipc	a0,0x0
   100f2:	61650513          	addi	a0,a0,1558 # 10704 <__libc_fini_array>
   100f6:	141010ef          	jal	ra,11a36 <atexit>
   100fa:	0a8000ef          	jal	ra,101a2 <__libc_init_array>
   100fe:	4502                	lw	a0,0(sp)
   10100:	002c                	addi	a1,sp,8
   10102:	4601                	li	a2,0
   10104:	062000ef          	jal	ra,10166 <main>
   10108:	a8b5                	j	10184 <exit>

000000000001010a <__do_global_dtors_aux>:
   1010a:	79818793          	addi	a5,gp,1944 # 145d0 <completed.5527>
   1010e:	0007c703          	lbu	a4,0(a5)
   10112:	eb0d                	bnez	a4,10144 <__do_global_dtors_aux+0x3a>
   10114:	1141                	addi	sp,sp,-16
   10116:	e022                	sd	s0,0(sp)
   10118:	e406                	sd	ra,8(sp)
   1011a:	843e                	mv	s0,a5
   1011c:	ffff0797          	auipc	a5,0xffff0
   10120:	ee478793          	addi	a5,a5,-284 # 0 <register_fini-0x100b0>
   10124:	cb89                	beqz	a5,10136 <__do_global_dtors_aux+0x2c>
   10126:	00003517          	auipc	a0,0x3
   1012a:	4d250513          	addi	a0,a0,1234 # 135f8 <__FRAME_END__>
   1012e:	00000097          	auipc	ra,0x0
   10132:	000000e7          	jalr	zero # 0 <register_fini-0x100b0>
   10136:	4785                	li	a5,1
   10138:	60a2                	ld	ra,8(sp)
   1013a:	00f40023          	sb	a5,0(s0)
   1013e:	6402                	ld	s0,0(sp)
   10140:	0141                	addi	sp,sp,16
   10142:	8082                	ret
   10144:	8082                	ret

0000000000010146 <frame_dummy>:
   10146:	ffff0797          	auipc	a5,0xffff0
   1014a:	eba78793          	addi	a5,a5,-326 # 0 <register_fini-0x100b0>
   1014e:	cb99                	beqz	a5,10164 <frame_dummy+0x1e>
   10150:	7a018593          	addi	a1,gp,1952 # 145d8 <object.5532>
   10154:	00003517          	auipc	a0,0x3
   10158:	4a450513          	addi	a0,a0,1188 # 135f8 <__FRAME_END__>
   1015c:	00000317          	auipc	t1,0x0
   10160:	00000067          	jr	zero # 0 <register_fini-0x100b0>
   10164:	8082                	ret

0000000000010166 <main>:
   10166:	1141                	addi	sp,sp,-16
   10168:	e406                	sd	ra,8(sp)
   1016a:	e022                	sd	s0,0(sp)
   1016c:	0800                	addi	s0,sp,16
   1016e:	67c9                	lui	a5,0x12
   10170:	5d878513          	addi	a0,a5,1496 # 125d8 <__errno+0x6>
   10174:	1c2000ef          	jal	ra,10336 <puts>
   10178:	4781                	li	a5,0
   1017a:	853e                	mv	a0,a5
   1017c:	60a2                	ld	ra,8(sp)
   1017e:	6402                	ld	s0,0(sp)
   10180:	0141                	addi	sp,sp,16
   10182:	8082                	ret

0000000000010184 <exit>:
   10184:	1141                	addi	sp,sp,-16
   10186:	4581                	li	a1,0
   10188:	e022                	sd	s0,0(sp)
   1018a:	e406                	sd	ra,8(sp)
   1018c:	842a                	mv	s0,a0
   1018e:	244000ef          	jal	ra,103d2 <__call_exitprocs>
   10192:	7501b503          	ld	a0,1872(gp) # 14588 <_global_impure_ptr>
   10196:	6d3c                	ld	a5,88(a0)
   10198:	c391                	beqz	a5,1019c <exit+0x18>
   1019a:	9782                	jalr	a5
   1019c:	8522                	mv	a0,s0
   1019e:	240020ef          	jal	ra,123de <_exit>

00000000000101a2 <__libc_init_array>:
   101a2:	1101                	addi	sp,sp,-32
   101a4:	e822                	sd	s0,16(sp)
   101a6:	e04a                	sd	s2,0(sp)
   101a8:	00003417          	auipc	s0,0x3
   101ac:	45440413          	addi	s0,s0,1108 # 135fc <__preinit_array_end>
   101b0:	00003917          	auipc	s2,0x3
   101b4:	44c90913          	addi	s2,s2,1100 # 135fc <__preinit_array_end>
   101b8:	40890933          	sub	s2,s2,s0
   101bc:	ec06                	sd	ra,24(sp)
   101be:	e426                	sd	s1,8(sp)
   101c0:	40395913          	srai	s2,s2,0x3
   101c4:	00090963          	beqz	s2,101d6 <__libc_init_array+0x34>
   101c8:	4481                	li	s1,0
   101ca:	601c                	ld	a5,0(s0)
   101cc:	0485                	addi	s1,s1,1
   101ce:	0421                	addi	s0,s0,8
   101d0:	9782                	jalr	a5
   101d2:	fe991ce3          	bne	s2,s1,101ca <__libc_init_array+0x28>
   101d6:	00003417          	auipc	s0,0x3
   101da:	42a40413          	addi	s0,s0,1066 # 13600 <__init_array_start>
   101de:	00003917          	auipc	s2,0x3
   101e2:	43290913          	addi	s2,s2,1074 # 13610 <__init_array_end>
   101e6:	40890933          	sub	s2,s2,s0
   101ea:	40395913          	srai	s2,s2,0x3
   101ee:	00090963          	beqz	s2,10200 <__libc_init_array+0x5e>
   101f2:	4481                	li	s1,0
   101f4:	601c                	ld	a5,0(s0)
   101f6:	0485                	addi	s1,s1,1
   101f8:	0421                	addi	s0,s0,8
   101fa:	9782                	jalr	a5
   101fc:	fe991ce3          	bne	s2,s1,101f4 <__libc_init_array+0x52>
   10200:	60e2                	ld	ra,24(sp)
   10202:	6442                	ld	s0,16(sp)
   10204:	64a2                	ld	s1,8(sp)
   10206:	6902                	ld	s2,0(sp)
   10208:	6105                	addi	sp,sp,32
   1020a:	8082                	ret

000000000001020c <memset>:
   1020c:	433d                	li	t1,15
   1020e:	872a                	mv	a4,a0
   10210:	02c37163          	bgeu	t1,a2,10232 <memset+0x26>
   10214:	00f77793          	andi	a5,a4,15
   10218:	e3c1                	bnez	a5,10298 <memset+0x8c>
   1021a:	e1bd                	bnez	a1,10280 <memset+0x74>
   1021c:	ff067693          	andi	a3,a2,-16
   10220:	8a3d                	andi	a2,a2,15
   10222:	96ba                	add	a3,a3,a4
   10224:	e30c                	sd	a1,0(a4)
   10226:	e70c                	sd	a1,8(a4)
   10228:	0741                	addi	a4,a4,16
   1022a:	fed76de3          	bltu	a4,a3,10224 <memset+0x18>
   1022e:	e211                	bnez	a2,10232 <memset+0x26>
   10230:	8082                	ret
   10232:	40c306b3          	sub	a3,t1,a2
   10236:	068a                	slli	a3,a3,0x2
   10238:	00000297          	auipc	t0,0x0
   1023c:	9696                	add	a3,a3,t0
   1023e:	00a68067          	jr	10(a3)
   10242:	00b70723          	sb	a1,14(a4)
   10246:	00b706a3          	sb	a1,13(a4)
   1024a:	00b70623          	sb	a1,12(a4)
   1024e:	00b705a3          	sb	a1,11(a4)
   10252:	00b70523          	sb	a1,10(a4)
   10256:	00b704a3          	sb	a1,9(a4)
   1025a:	00b70423          	sb	a1,8(a4)
   1025e:	00b703a3          	sb	a1,7(a4)
   10262:	00b70323          	sb	a1,6(a4)
   10266:	00b702a3          	sb	a1,5(a4)
   1026a:	00b70223          	sb	a1,4(a4)
   1026e:	00b701a3          	sb	a1,3(a4)
   10272:	00b70123          	sb	a1,2(a4)
   10276:	00b700a3          	sb	a1,1(a4)
   1027a:	00b70023          	sb	a1,0(a4)
   1027e:	8082                	ret
   10280:	0ff5f593          	andi	a1,a1,255
   10284:	00859693          	slli	a3,a1,0x8
   10288:	8dd5                	or	a1,a1,a3
   1028a:	01059693          	slli	a3,a1,0x10
   1028e:	8dd5                	or	a1,a1,a3
   10290:	02059693          	slli	a3,a1,0x20
   10294:	8dd5                	or	a1,a1,a3
   10296:	b759                	j	1021c <memset+0x10>
   10298:	00279693          	slli	a3,a5,0x2
   1029c:	00000297          	auipc	t0,0x0
   102a0:	9696                	add	a3,a3,t0
   102a2:	8286                	mv	t0,ra
   102a4:	fa2680e7          	jalr	-94(a3)
   102a8:	8096                	mv	ra,t0
   102aa:	17c1                	addi	a5,a5,-16
   102ac:	8f1d                	sub	a4,a4,a5
   102ae:	963e                	add	a2,a2,a5
   102b0:	f8c371e3          	bgeu	t1,a2,10232 <memset+0x26>
   102b4:	b79d                	j	1021a <memset+0xe>

00000000000102b6 <_puts_r>:
   102b6:	7159                	addi	sp,sp,-112
   102b8:	f0a2                	sd	s0,96(sp)
   102ba:	842a                	mv	s0,a0
   102bc:	852e                	mv	a0,a1
   102be:	eca6                	sd	s1,88(sp)
   102c0:	f486                	sd	ra,104(sp)
   102c2:	84ae                	mv	s1,a1
   102c4:	07a000ef          	jal	ra,1033e <strlen>
   102c8:	00150713          	addi	a4,a0,1
   102cc:	00002697          	auipc	a3,0x2
   102d0:	32468693          	addi	a3,a3,804 # 125f0 <__errno+0x1e>
   102d4:	f43a                	sd	a4,40(sp)
   102d6:	483c                	lw	a5,80(s0)
   102d8:	1818                	addi	a4,sp,48
   102da:	e0b6                	sd	a3,64(sp)
   102dc:	ec3a                	sd	a4,24(sp)
   102de:	4685                	li	a3,1
   102e0:	4709                	li	a4,2
   102e2:	f826                	sd	s1,48(sp)
   102e4:	fc2a                	sd	a0,56(sp)
   102e6:	e4b6                	sd	a3,72(sp)
   102e8:	d03a                	sw	a4,32(sp)
   102ea:	680c                	ld	a1,16(s0)
   102ec:	cf8d                	beqz	a5,10326 <_puts_r+0x70>
   102ee:	01059783          	lh	a5,16(a1)
   102f2:	03279713          	slli	a4,a5,0x32
   102f6:	00074d63          	bltz	a4,10310 <_puts_r+0x5a>
   102fa:	0ac5a703          	lw	a4,172(a1)
   102fe:	6689                	lui	a3,0x2
   10300:	8fd5                	or	a5,a5,a3
   10302:	76f9                	lui	a3,0xffffe
   10304:	16fd                	addi	a3,a3,-1
   10306:	8f75                	and	a4,a4,a3
   10308:	00f59823          	sh	a5,16(a1)
   1030c:	0ae5a623          	sw	a4,172(a1)
   10310:	0830                	addi	a2,sp,24
   10312:	8522                	mv	a0,s0
   10314:	428000ef          	jal	ra,1073c <__sfvwrite_r>
   10318:	ed09                	bnez	a0,10332 <_puts_r+0x7c>
   1031a:	4529                	li	a0,10
   1031c:	70a6                	ld	ra,104(sp)
   1031e:	7406                	ld	s0,96(sp)
   10320:	64e6                	ld	s1,88(sp)
   10322:	6165                	addi	sp,sp,112
   10324:	8082                	ret
   10326:	8522                	mv	a0,s0
   10328:	e42e                	sd	a1,8(sp)
   1032a:	3ae000ef          	jal	ra,106d8 <__sinit>
   1032e:	65a2                	ld	a1,8(sp)
   10330:	bf7d                	j	102ee <_puts_r+0x38>
   10332:	557d                	li	a0,-1
   10334:	b7e5                	j	1031c <_puts_r+0x66>

0000000000010336 <puts>:
   10336:	85aa                	mv	a1,a0
   10338:	7601b503          	ld	a0,1888(gp) # 14598 <_impure_ptr>
   1033c:	bfad                	j	102b6 <_puts_r>

000000000001033e <strlen>:
   1033e:	00757793          	andi	a5,a0,7
   10342:	872a                	mv	a4,a0
   10344:	ebb9                	bnez	a5,1039a <strlen+0x5c>
   10346:	00004697          	auipc	a3,0x4
   1034a:	22a6b683          	ld	a3,554(a3) # 14570 <__SDATA_BEGIN__>
   1034e:	55fd                	li	a1,-1
   10350:	6310                	ld	a2,0(a4)
   10352:	0721                	addi	a4,a4,8
   10354:	00d677b3          	and	a5,a2,a3
   10358:	97b6                	add	a5,a5,a3
   1035a:	8fd1                	or	a5,a5,a2
   1035c:	8fd5                	or	a5,a5,a3
   1035e:	feb789e3          	beq	a5,a1,10350 <strlen+0x12>
   10362:	ff874683          	lbu	a3,-8(a4)
   10366:	40a707b3          	sub	a5,a4,a0
   1036a:	c6a9                	beqz	a3,103b4 <strlen+0x76>
   1036c:	ff974683          	lbu	a3,-7(a4)
   10370:	ce9d                	beqz	a3,103ae <strlen+0x70>
   10372:	ffa74683          	lbu	a3,-6(a4)
   10376:	c6a9                	beqz	a3,103c0 <strlen+0x82>
   10378:	ffb74683          	lbu	a3,-5(a4)
   1037c:	ce9d                	beqz	a3,103ba <strlen+0x7c>
   1037e:	ffc74683          	lbu	a3,-4(a4)
   10382:	ffd74603          	lbu	a2,-3(a4)
   10386:	ffe74503          	lbu	a0,-2(a4)
   1038a:	ce95                	beqz	a3,103c6 <strlen+0x88>
   1038c:	c221                	beqz	a2,103cc <strlen+0x8e>
   1038e:	00a03533          	snez	a0,a0
   10392:	953e                	add	a0,a0,a5
   10394:	1579                	addi	a0,a0,-2
   10396:	8082                	ret
   10398:	d6dd                	beqz	a3,10346 <strlen+0x8>
   1039a:	00074783          	lbu	a5,0(a4)
   1039e:	0705                	addi	a4,a4,1
   103a0:	00777693          	andi	a3,a4,7
   103a4:	fbf5                	bnez	a5,10398 <strlen+0x5a>
   103a6:	8f09                	sub	a4,a4,a0
   103a8:	fff70513          	addi	a0,a4,-1
   103ac:	8082                	ret
   103ae:	ff978513          	addi	a0,a5,-7
   103b2:	8082                	ret
   103b4:	ff878513          	addi	a0,a5,-8
   103b8:	8082                	ret
   103ba:	ffb78513          	addi	a0,a5,-5
   103be:	8082                	ret
   103c0:	ffa78513          	addi	a0,a5,-6
   103c4:	8082                	ret
   103c6:	ffc78513          	addi	a0,a5,-4
   103ca:	8082                	ret
   103cc:	ffd78513          	addi	a0,a5,-3
   103d0:	8082                	ret

00000000000103d2 <__call_exitprocs>:
   103d2:	715d                	addi	sp,sp,-80
   103d4:	f052                	sd	s4,32(sp)
   103d6:	7501ba03          	ld	s4,1872(gp) # 14588 <_global_impure_ptr>
   103da:	f84a                	sd	s2,48(sp)
   103dc:	1f8a3903          	ld	s2,504(s4)
   103e0:	e486                	sd	ra,72(sp)
   103e2:	e0a2                	sd	s0,64(sp)
   103e4:	fc26                	sd	s1,56(sp)
   103e6:	f44e                	sd	s3,40(sp)
   103e8:	ec56                	sd	s5,24(sp)
   103ea:	e85a                	sd	s6,16(sp)
   103ec:	e45e                	sd	s7,8(sp)
   103ee:	e062                	sd	s8,0(sp)
   103f0:	02090863          	beqz	s2,10420 <__call_exitprocs+0x4e>
   103f4:	8b2a                	mv	s6,a0
   103f6:	8bae                	mv	s7,a1
   103f8:	4a85                	li	s5,1
   103fa:	59fd                	li	s3,-1
   103fc:	00892483          	lw	s1,8(s2)
   10400:	fff4841b          	addiw	s0,s1,-1
   10404:	00044e63          	bltz	s0,10420 <__call_exitprocs+0x4e>
   10408:	048e                	slli	s1,s1,0x3
   1040a:	94ca                	add	s1,s1,s2
   1040c:	020b8663          	beqz	s7,10438 <__call_exitprocs+0x66>
   10410:	2084b783          	ld	a5,520(s1)
   10414:	03778263          	beq	a5,s7,10438 <__call_exitprocs+0x66>
   10418:	347d                	addiw	s0,s0,-1
   1041a:	14e1                	addi	s1,s1,-8
   1041c:	ff3418e3          	bne	s0,s3,1040c <__call_exitprocs+0x3a>
   10420:	60a6                	ld	ra,72(sp)
   10422:	6406                	ld	s0,64(sp)
   10424:	74e2                	ld	s1,56(sp)
   10426:	7942                	ld	s2,48(sp)
   10428:	79a2                	ld	s3,40(sp)
   1042a:	7a02                	ld	s4,32(sp)
   1042c:	6ae2                	ld	s5,24(sp)
   1042e:	6b42                	ld	s6,16(sp)
   10430:	6ba2                	ld	s7,8(sp)
   10432:	6c02                	ld	s8,0(sp)
   10434:	6161                	addi	sp,sp,80
   10436:	8082                	ret
   10438:	00892783          	lw	a5,8(s2)
   1043c:	6498                	ld	a4,8(s1)
   1043e:	37fd                	addiw	a5,a5,-1
   10440:	04878463          	beq	a5,s0,10488 <__call_exitprocs+0xb6>
   10444:	0004b423          	sd	zero,8(s1)
   10448:	db61                	beqz	a4,10418 <__call_exitprocs+0x46>
   1044a:	31092783          	lw	a5,784(s2)
   1044e:	008a96bb          	sllw	a3,s5,s0
   10452:	00892c03          	lw	s8,8(s2)
   10456:	8ff5                	and	a5,a5,a3
   10458:	2781                	sext.w	a5,a5
   1045a:	ef89                	bnez	a5,10474 <__call_exitprocs+0xa2>
   1045c:	9702                	jalr	a4
   1045e:	00892703          	lw	a4,8(s2)
   10462:	1f8a3783          	ld	a5,504(s4)
   10466:	01871463          	bne	a4,s8,1046e <__call_exitprocs+0x9c>
   1046a:	faf907e3          	beq	s2,a5,10418 <__call_exitprocs+0x46>
   1046e:	dbcd                	beqz	a5,10420 <__call_exitprocs+0x4e>
   10470:	893e                	mv	s2,a5
   10472:	b769                	j	103fc <__call_exitprocs+0x2a>
   10474:	31492783          	lw	a5,788(s2)
   10478:	1084b583          	ld	a1,264(s1)
   1047c:	8ff5                	and	a5,a5,a3
   1047e:	2781                	sext.w	a5,a5
   10480:	e799                	bnez	a5,1048e <__call_exitprocs+0xbc>
   10482:	855a                	mv	a0,s6
   10484:	9702                	jalr	a4
   10486:	bfe1                	j	1045e <__call_exitprocs+0x8c>
   10488:	00892423          	sw	s0,8(s2)
   1048c:	bf75                	j	10448 <__call_exitprocs+0x76>
   1048e:	852e                	mv	a0,a1
   10490:	9702                	jalr	a4
   10492:	b7f1                	j	1045e <__call_exitprocs+0x8c>

0000000000010494 <__fp_lock>:
   10494:	4501                	li	a0,0
   10496:	8082                	ret

0000000000010498 <_cleanup_r>:
   10498:	00001597          	auipc	a1,0x1
   1049c:	5e258593          	addi	a1,a1,1506 # 11a7a <_fclose_r>
   104a0:	a5a1                	j	10ae8 <_fwalk_reent>

00000000000104a2 <__sinit.part.0>:
   104a2:	7139                	addi	sp,sp,-64
   104a4:	fc06                	sd	ra,56(sp)
   104a6:	f822                	sd	s0,48(sp)
   104a8:	f426                	sd	s1,40(sp)
   104aa:	f04a                	sd	s2,32(sp)
   104ac:	ec4e                	sd	s3,24(sp)
   104ae:	e852                	sd	s4,16(sp)
   104b0:	e456                	sd	s5,8(sp)
   104b2:	e05a                	sd	s6,0(sp)
   104b4:	6500                	ld	s0,8(a0)
   104b6:	00000717          	auipc	a4,0x0
   104ba:	fe270713          	addi	a4,a4,-30 # 10498 <_cleanup_r>
   104be:	ed38                	sd	a4,88(a0)
   104c0:	53850793          	addi	a5,a0,1336
   104c4:	470d                	li	a4,3
   104c6:	52e52423          	sw	a4,1320(a0)
   104ca:	52f53823          	sd	a5,1328(a0)
   104ce:	52053023          	sd	zero,1312(a0)
   104d2:	4791                	li	a5,4
   104d4:	892a                	mv	s2,a0
   104d6:	c81c                	sw	a5,16(s0)
   104d8:	4621                	li	a2,8
   104da:	4581                	li	a1,0
   104dc:	0a042623          	sw	zero,172(s0)
   104e0:	00043023          	sd	zero,0(s0)
   104e4:	00043423          	sd	zero,8(s0)
   104e8:	00043c23          	sd	zero,24(s0)
   104ec:	02042023          	sw	zero,32(s0)
   104f0:	02042423          	sw	zero,40(s0)
   104f4:	0a440513          	addi	a0,s0,164
   104f8:	d15ff0ef          	jal	ra,1020c <memset>
   104fc:	01093483          	ld	s1,16(s2)
   10500:	00001b17          	auipc	s6,0x1
   10504:	334b0b13          	addi	s6,s6,820 # 11834 <__sread>
   10508:	00001a97          	auipc	s5,0x1
   1050c:	368a8a93          	addi	s5,s5,872 # 11870 <__swrite>
   10510:	00001a17          	auipc	s4,0x1
   10514:	3b2a0a13          	addi	s4,s4,946 # 118c2 <__sseek>
   10518:	00001997          	auipc	s3,0x1
   1051c:	3ec98993          	addi	s3,s3,1004 # 11904 <__sclose>
   10520:	67c1                	lui	a5,0x10
   10522:	03643c23          	sd	s6,56(s0)
   10526:	05543023          	sd	s5,64(s0)
   1052a:	05443423          	sd	s4,72(s0)
   1052e:	05343823          	sd	s3,80(s0)
   10532:	f800                	sd	s0,48(s0)
   10534:	07a5                	addi	a5,a5,9
   10536:	c89c                	sw	a5,16(s1)
   10538:	4621                	li	a2,8
   1053a:	4581                	li	a1,0
   1053c:	0a04a623          	sw	zero,172(s1)
   10540:	0004b023          	sd	zero,0(s1)
   10544:	0004b423          	sd	zero,8(s1)
   10548:	0004bc23          	sd	zero,24(s1)
   1054c:	0204a023          	sw	zero,32(s1)
   10550:	0204a423          	sw	zero,40(s1)
   10554:	0a448513          	addi	a0,s1,164
   10558:	cb5ff0ef          	jal	ra,1020c <memset>
   1055c:	01893403          	ld	s0,24(s2)
   10560:	000207b7          	lui	a5,0x20
   10564:	0364bc23          	sd	s6,56(s1)
   10568:	0554b023          	sd	s5,64(s1)
   1056c:	0544b423          	sd	s4,72(s1)
   10570:	0534b823          	sd	s3,80(s1)
   10574:	f884                	sd	s1,48(s1)
   10576:	07c9                	addi	a5,a5,18
   10578:	c81c                	sw	a5,16(s0)
   1057a:	0a042623          	sw	zero,172(s0)
   1057e:	00043023          	sd	zero,0(s0)
   10582:	00043423          	sd	zero,8(s0)
   10586:	00043c23          	sd	zero,24(s0)
   1058a:	02042023          	sw	zero,32(s0)
   1058e:	02042423          	sw	zero,40(s0)
   10592:	0a440513          	addi	a0,s0,164
   10596:	4621                	li	a2,8
   10598:	4581                	li	a1,0
   1059a:	c73ff0ef          	jal	ra,1020c <memset>
   1059e:	70e2                	ld	ra,56(sp)
   105a0:	03643c23          	sd	s6,56(s0)
   105a4:	05543023          	sd	s5,64(s0)
   105a8:	05443423          	sd	s4,72(s0)
   105ac:	05343823          	sd	s3,80(s0)
   105b0:	f800                	sd	s0,48(s0)
   105b2:	7442                	ld	s0,48(sp)
   105b4:	4785                	li	a5,1
   105b6:	04f92823          	sw	a5,80(s2)
   105ba:	74a2                	ld	s1,40(sp)
   105bc:	7902                	ld	s2,32(sp)
   105be:	69e2                	ld	s3,24(sp)
   105c0:	6a42                	ld	s4,16(sp)
   105c2:	6aa2                	ld	s5,8(sp)
   105c4:	6b02                	ld	s6,0(sp)
   105c6:	6121                	addi	sp,sp,64
   105c8:	8082                	ret

00000000000105ca <__fp_unlock>:
   105ca:	4501                	li	a0,0
   105cc:	8082                	ret

00000000000105ce <__sfmoreglue>:
   105ce:	1101                	addi	sp,sp,-32
   105d0:	e426                	sd	s1,8(sp)
   105d2:	0b000613          	li	a2,176
   105d6:	fff5849b          	addiw	s1,a1,-1
   105da:	02c484b3          	mul	s1,s1,a2
   105de:	e04a                	sd	s2,0(sp)
   105e0:	892e                	mv	s2,a1
   105e2:	e822                	sd	s0,16(sp)
   105e4:	ec06                	sd	ra,24(sp)
   105e6:	0c848593          	addi	a1,s1,200
   105ea:	588000ef          	jal	ra,10b72 <_malloc_r>
   105ee:	842a                	mv	s0,a0
   105f0:	cd01                	beqz	a0,10608 <__sfmoreglue+0x3a>
   105f2:	0561                	addi	a0,a0,24
   105f4:	00043023          	sd	zero,0(s0)
   105f8:	01242423          	sw	s2,8(s0)
   105fc:	e808                	sd	a0,16(s0)
   105fe:	0b048613          	addi	a2,s1,176
   10602:	4581                	li	a1,0
   10604:	c09ff0ef          	jal	ra,1020c <memset>
   10608:	60e2                	ld	ra,24(sp)
   1060a:	8522                	mv	a0,s0
   1060c:	6442                	ld	s0,16(sp)
   1060e:	64a2                	ld	s1,8(sp)
   10610:	6902                	ld	s2,0(sp)
   10612:	6105                	addi	sp,sp,32
   10614:	8082                	ret

0000000000010616 <__sfp>:
   10616:	7179                	addi	sp,sp,-48
   10618:	ec26                	sd	s1,24(sp)
   1061a:	7501b483          	ld	s1,1872(gp) # 14588 <_global_impure_ptr>
   1061e:	48bc                	lw	a5,80(s1)
   10620:	e84a                	sd	s2,16(sp)
   10622:	f406                	sd	ra,40(sp)
   10624:	f022                	sd	s0,32(sp)
   10626:	e44e                	sd	s3,8(sp)
   10628:	892a                	mv	s2,a0
   1062a:	c3c9                	beqz	a5,106ac <__sfp+0x96>
   1062c:	52048493          	addi	s1,s1,1312
   10630:	0b000993          	li	s3,176
   10634:	449c                	lw	a5,8(s1)
   10636:	6880                	ld	s0,16(s1)
   10638:	06f05663          	blez	a5,106a4 <__sfp+0x8e>
   1063c:	37fd                	addiw	a5,a5,-1
   1063e:	1782                	slli	a5,a5,0x20
   10640:	9381                	srli	a5,a5,0x20
   10642:	0785                	addi	a5,a5,1
   10644:	033787b3          	mul	a5,a5,s3
   10648:	97a2                	add	a5,a5,s0
   1064a:	a029                	j	10654 <__sfp+0x3e>
   1064c:	0b040413          	addi	s0,s0,176
   10650:	04878a63          	beq	a5,s0,106a4 <__sfp+0x8e>
   10654:	01041703          	lh	a4,16(s0)
   10658:	fb75                	bnez	a4,1064c <__sfp+0x36>
   1065a:	77c1                	lui	a5,0xffff0
   1065c:	0785                	addi	a5,a5,1
   1065e:	0a042623          	sw	zero,172(s0)
   10662:	00043023          	sd	zero,0(s0)
   10666:	00043423          	sd	zero,8(s0)
   1066a:	c81c                	sw	a5,16(s0)
   1066c:	00043c23          	sd	zero,24(s0)
   10670:	02042023          	sw	zero,32(s0)
   10674:	02042423          	sw	zero,40(s0)
   10678:	4621                	li	a2,8
   1067a:	4581                	li	a1,0
   1067c:	0a440513          	addi	a0,s0,164
   10680:	b8dff0ef          	jal	ra,1020c <memset>
   10684:	04043c23          	sd	zero,88(s0)
   10688:	06042023          	sw	zero,96(s0)
   1068c:	06043c23          	sd	zero,120(s0)
   10690:	08042023          	sw	zero,128(s0)
   10694:	70a2                	ld	ra,40(sp)
   10696:	8522                	mv	a0,s0
   10698:	7402                	ld	s0,32(sp)
   1069a:	64e2                	ld	s1,24(sp)
   1069c:	6942                	ld	s2,16(sp)
   1069e:	69a2                	ld	s3,8(sp)
   106a0:	6145                	addi	sp,sp,48
   106a2:	8082                	ret
   106a4:	6080                	ld	s0,0(s1)
   106a6:	c419                	beqz	s0,106b4 <__sfp+0x9e>
   106a8:	84a2                	mv	s1,s0
   106aa:	b769                	j	10634 <__sfp+0x1e>
   106ac:	8526                	mv	a0,s1
   106ae:	df5ff0ef          	jal	ra,104a2 <__sinit.part.0>
   106b2:	bfad                	j	1062c <__sfp+0x16>
   106b4:	4591                	li	a1,4
   106b6:	854a                	mv	a0,s2
   106b8:	f17ff0ef          	jal	ra,105ce <__sfmoreglue>
   106bc:	e088                	sd	a0,0(s1)
   106be:	842a                	mv	s0,a0
   106c0:	f565                	bnez	a0,106a8 <__sfp+0x92>
   106c2:	47b1                	li	a5,12
   106c4:	00f92023          	sw	a5,0(s2)
   106c8:	b7f1                	j	10694 <__sfp+0x7e>

00000000000106ca <_cleanup>:
   106ca:	00001597          	auipc	a1,0x1
   106ce:	3b058593          	addi	a1,a1,944 # 11a7a <_fclose_r>
   106d2:	7501b503          	ld	a0,1872(gp) # 14588 <_global_impure_ptr>
   106d6:	a909                	j	10ae8 <_fwalk_reent>

00000000000106d8 <__sinit>:
   106d8:	493c                	lw	a5,80(a0)
   106da:	c391                	beqz	a5,106de <__sinit+0x6>
   106dc:	8082                	ret
   106de:	b3d1                	j	104a2 <__sinit.part.0>

00000000000106e0 <__sfp_lock_acquire>:
   106e0:	8082                	ret

00000000000106e2 <__sfp_lock_release>:
   106e2:	8082                	ret

00000000000106e4 <__sinit_lock_acquire>:
   106e4:	8082                	ret

00000000000106e6 <__sinit_lock_release>:
   106e6:	8082                	ret

00000000000106e8 <__fp_lock_all>:
   106e8:	00000597          	auipc	a1,0x0
   106ec:	dac58593          	addi	a1,a1,-596 # 10494 <__fp_lock>
   106f0:	7601b503          	ld	a0,1888(gp) # 14598 <_impure_ptr>
   106f4:	ae8d                	j	10a66 <_fwalk>

00000000000106f6 <__fp_unlock_all>:
   106f6:	00000597          	auipc	a1,0x0
   106fa:	ed458593          	addi	a1,a1,-300 # 105ca <__fp_unlock>
   106fe:	7601b503          	ld	a0,1888(gp) # 14598 <_impure_ptr>
   10702:	a695                	j	10a66 <_fwalk>

0000000000010704 <__libc_fini_array>:
   10704:	1101                	addi	sp,sp,-32
   10706:	e822                	sd	s0,16(sp)
   10708:	00003797          	auipc	a5,0x3
   1070c:	f1078793          	addi	a5,a5,-240 # 13618 <__fini_array_end>
   10710:	00003417          	auipc	s0,0x3
   10714:	f0040413          	addi	s0,s0,-256 # 13610 <__init_array_end>
   10718:	8f81                	sub	a5,a5,s0
   1071a:	e426                	sd	s1,8(sp)
   1071c:	ec06                	sd	ra,24(sp)
   1071e:	4037d493          	srai	s1,a5,0x3
   10722:	c881                	beqz	s1,10732 <__libc_fini_array+0x2e>
   10724:	17e1                	addi	a5,a5,-8
   10726:	943e                	add	s0,s0,a5
   10728:	601c                	ld	a5,0(s0)
   1072a:	14fd                	addi	s1,s1,-1
   1072c:	1461                	addi	s0,s0,-8
   1072e:	9782                	jalr	a5
   10730:	fce5                	bnez	s1,10728 <__libc_fini_array+0x24>
   10732:	60e2                	ld	ra,24(sp)
   10734:	6442                	ld	s0,16(sp)
   10736:	64a2                	ld	s1,8(sp)
   10738:	6105                	addi	sp,sp,32
   1073a:	8082                	ret

000000000001073c <__sfvwrite_r>:
   1073c:	6a1c                	ld	a5,16(a2)
   1073e:	1a078c63          	beqz	a5,108f6 <__sfvwrite_r+0x1ba>
   10742:	0105d783          	lhu	a5,16(a1)
   10746:	711d                	addi	sp,sp,-96
   10748:	e8a2                	sd	s0,80(sp)
   1074a:	f852                	sd	s4,48(sp)
   1074c:	f456                	sd	s5,40(sp)
   1074e:	ec86                	sd	ra,88(sp)
   10750:	e4a6                	sd	s1,72(sp)
   10752:	e0ca                	sd	s2,64(sp)
   10754:	fc4e                	sd	s3,56(sp)
   10756:	f05a                	sd	s6,32(sp)
   10758:	ec5e                	sd	s7,24(sp)
   1075a:	e862                	sd	s8,16(sp)
   1075c:	e466                	sd	s9,8(sp)
   1075e:	e06a                	sd	s10,0(sp)
   10760:	0087f713          	andi	a4,a5,8
   10764:	8a32                	mv	s4,a2
   10766:	8aaa                	mv	s5,a0
   10768:	842e                	mv	s0,a1
   1076a:	c325                	beqz	a4,107ca <__sfvwrite_r+0x8e>
   1076c:	6d98                	ld	a4,24(a1)
   1076e:	cf31                	beqz	a4,107ca <__sfvwrite_r+0x8e>
   10770:	0027f713          	andi	a4,a5,2
   10774:	000a3903          	ld	s2,0(s4)
   10778:	c735                	beqz	a4,107e4 <__sfvwrite_r+0xa8>
   1077a:	603c                	ld	a5,64(s0)
   1077c:	780c                	ld	a1,48(s0)
   1077e:	80000b37          	lui	s6,0x80000
   10782:	4981                	li	s3,0
   10784:	4481                	li	s1,0
   10786:	c00b4b13          	xori	s6,s6,-1024
   1078a:	864e                	mv	a2,s3
   1078c:	8556                	mv	a0,s5
   1078e:	c885                	beqz	s1,107be <__sfvwrite_r+0x82>
   10790:	86a6                	mv	a3,s1
   10792:	009b7363          	bgeu	s6,s1,10798 <__sfvwrite_r+0x5c>
   10796:	86da                	mv	a3,s6
   10798:	2681                	sext.w	a3,a3
   1079a:	9782                	jalr	a5
   1079c:	14a05563          	blez	a0,108e6 <__sfvwrite_r+0x1aa>
   107a0:	010a3783          	ld	a5,16(s4)
   107a4:	99aa                	add	s3,s3,a0
   107a6:	8c89                	sub	s1,s1,a0
   107a8:	40a78533          	sub	a0,a5,a0
   107ac:	00aa3823          	sd	a0,16(s4)
   107b0:	10050763          	beqz	a0,108be <__sfvwrite_r+0x182>
   107b4:	603c                	ld	a5,64(s0)
   107b6:	780c                	ld	a1,48(s0)
   107b8:	864e                	mv	a2,s3
   107ba:	8556                	mv	a0,s5
   107bc:	f8f1                	bnez	s1,10790 <__sfvwrite_r+0x54>
   107be:	00093983          	ld	s3,0(s2)
   107c2:	00893483          	ld	s1,8(s2)
   107c6:	0941                	addi	s2,s2,16
   107c8:	b7c9                	j	1078a <__sfvwrite_r+0x4e>
   107ca:	85a2                	mv	a1,s0
   107cc:	8556                	mv	a0,s5
   107ce:	17a010ef          	jal	ra,11948 <__swsetup_r>
   107d2:	28051863          	bnez	a0,10a62 <__sfvwrite_r+0x326>
   107d6:	01045783          	lhu	a5,16(s0)
   107da:	000a3903          	ld	s2,0(s4)
   107de:	0027f713          	andi	a4,a5,2
   107e2:	ff41                	bnez	a4,1077a <__sfvwrite_r+0x3e>
   107e4:	0017f713          	andi	a4,a5,1
   107e8:	eb35                	bnez	a4,1085c <__sfvwrite_r+0x120>
   107ea:	4444                	lw	s1,12(s0)
   107ec:	6008                	ld	a0,0(s0)
   107ee:	80000b37          	lui	s6,0x80000
   107f2:	ffeb4b93          	xori	s7,s6,-2
   107f6:	4c01                	li	s8,0
   107f8:	4981                	li	s3,0
   107fa:	fffb4b13          	not	s6,s6
   107fe:	8ca6                	mv	s9,s1
   10800:	04098863          	beqz	s3,10850 <__sfvwrite_r+0x114>
   10804:	2007f713          	andi	a4,a5,512
   10808:	12070a63          	beqz	a4,1093c <__sfvwrite_r+0x200>
   1080c:	8d26                	mv	s10,s1
   1080e:	1899f763          	bgeu	s3,s1,1099c <__sfvwrite_r+0x260>
   10812:	8cce                	mv	s9,s3
   10814:	8d4e                	mv	s10,s3
   10816:	866a                	mv	a2,s10
   10818:	85e2                	mv	a1,s8
   1081a:	2fb000ef          	jal	ra,11314 <memmove>
   1081e:	4458                	lw	a4,12(s0)
   10820:	601c                	ld	a5,0(s0)
   10822:	84ce                	mv	s1,s3
   10824:	41970cbb          	subw	s9,a4,s9
   10828:	97ea                	add	a5,a5,s10
   1082a:	01942623          	sw	s9,12(s0)
   1082e:	e01c                	sd	a5,0(s0)
   10830:	4981                	li	s3,0
   10832:	010a3603          	ld	a2,16(s4)
   10836:	9c26                	add	s8,s8,s1
   10838:	409604b3          	sub	s1,a2,s1
   1083c:	009a3823          	sd	s1,16(s4)
   10840:	ccbd                	beqz	s1,108be <__sfvwrite_r+0x182>
   10842:	4444                	lw	s1,12(s0)
   10844:	6008                	ld	a0,0(s0)
   10846:	01045783          	lhu	a5,16(s0)
   1084a:	8ca6                	mv	s9,s1
   1084c:	fa099ce3          	bnez	s3,10804 <__sfvwrite_r+0xc8>
   10850:	00093c03          	ld	s8,0(s2)
   10854:	00893983          	ld	s3,8(s2)
   10858:	0941                	addi	s2,s2,16
   1085a:	b755                	j	107fe <__sfvwrite_r+0xc2>
   1085c:	4981                	li	s3,0
   1085e:	4501                	li	a0,0
   10860:	4c81                	li	s9,0
   10862:	4c01                	li	s8,0
   10864:	080c0b63          	beqz	s8,108fa <__sfvwrite_r+0x1be>
   10868:	c145                	beqz	a0,10908 <__sfvwrite_r+0x1cc>
   1086a:	8bce                	mv	s7,s3
   1086c:	013c7363          	bgeu	s8,s3,10872 <__sfvwrite_r+0x136>
   10870:	8be2                	mv	s7,s8
   10872:	6008                	ld	a0,0(s0)
   10874:	6c1c                	ld	a5,24(s0)
   10876:	5014                	lw	a3,32(s0)
   10878:	84de                	mv	s1,s7
   1087a:	00a7f763          	bgeu	a5,a0,10888 <__sfvwrite_r+0x14c>
   1087e:	445c                	lw	a5,12(s0)
   10880:	00d78b3b          	addw	s6,a5,a3
   10884:	097b4d63          	blt	s6,s7,1091e <__sfvwrite_r+0x1e2>
   10888:	18dbc463          	blt	s7,a3,10a10 <__sfvwrite_r+0x2d4>
   1088c:	603c                	ld	a5,64(s0)
   1088e:	780c                	ld	a1,48(s0)
   10890:	8666                	mv	a2,s9
   10892:	8556                	mv	a0,s5
   10894:	9782                	jalr	a5
   10896:	84aa                	mv	s1,a0
   10898:	04a05763          	blez	a0,108e6 <__sfvwrite_r+0x1aa>
   1089c:	0005079b          	sext.w	a5,a0
   108a0:	40f989bb          	subw	s3,s3,a5
   108a4:	4505                	li	a0,1
   108a6:	02098b63          	beqz	s3,108dc <__sfvwrite_r+0x1a0>
   108aa:	010a3783          	ld	a5,16(s4)
   108ae:	9ca6                	add	s9,s9,s1
   108b0:	409c0c33          	sub	s8,s8,s1
   108b4:	409784b3          	sub	s1,a5,s1
   108b8:	009a3823          	sd	s1,16(s4)
   108bc:	f4c5                	bnez	s1,10864 <__sfvwrite_r+0x128>
   108be:	4501                	li	a0,0
   108c0:	60e6                	ld	ra,88(sp)
   108c2:	6446                	ld	s0,80(sp)
   108c4:	64a6                	ld	s1,72(sp)
   108c6:	6906                	ld	s2,64(sp)
   108c8:	79e2                	ld	s3,56(sp)
   108ca:	7a42                	ld	s4,48(sp)
   108cc:	7aa2                	ld	s5,40(sp)
   108ce:	7b02                	ld	s6,32(sp)
   108d0:	6be2                	ld	s7,24(sp)
   108d2:	6c42                	ld	s8,16(sp)
   108d4:	6ca2                	ld	s9,8(sp)
   108d6:	6d02                	ld	s10,0(sp)
   108d8:	6125                	addi	sp,sp,96
   108da:	8082                	ret
   108dc:	85a2                	mv	a1,s0
   108de:	8556                	mv	a0,s5
   108e0:	3ea010ef          	jal	ra,11cca <_fflush_r>
   108e4:	d179                	beqz	a0,108aa <__sfvwrite_r+0x16e>
   108e6:	01041783          	lh	a5,16(s0)
   108ea:	0407e793          	ori	a5,a5,64
   108ee:	00f41823          	sh	a5,16(s0)
   108f2:	557d                	li	a0,-1
   108f4:	b7f1                	j	108c0 <__sfvwrite_r+0x184>
   108f6:	4501                	li	a0,0
   108f8:	8082                	ret
   108fa:	00893c03          	ld	s8,8(s2)
   108fe:	00093c83          	ld	s9,0(s2)
   10902:	0941                	addi	s2,s2,16
   10904:	fe0c0be3          	beqz	s8,108fa <__sfvwrite_r+0x1be>
   10908:	8662                	mv	a2,s8
   1090a:	45a9                	li	a1,10
   1090c:	8566                	mv	a0,s9
   1090e:	08b000ef          	jal	ra,11198 <memchr>
   10912:	12050f63          	beqz	a0,10a50 <__sfvwrite_r+0x314>
   10916:	0505                	addi	a0,a0,1
   10918:	419509bb          	subw	s3,a0,s9
   1091c:	b7b9                	j	1086a <__sfvwrite_r+0x12e>
   1091e:	85e6                	mv	a1,s9
   10920:	865a                	mv	a2,s6
   10922:	1f3000ef          	jal	ra,11314 <memmove>
   10926:	601c                	ld	a5,0(s0)
   10928:	85a2                	mv	a1,s0
   1092a:	8556                	mv	a0,s5
   1092c:	97da                	add	a5,a5,s6
   1092e:	e01c                	sd	a5,0(s0)
   10930:	39a010ef          	jal	ra,11cca <_fflush_r>
   10934:	f94d                	bnez	a0,108e6 <__sfvwrite_r+0x1aa>
   10936:	87da                	mv	a5,s6
   10938:	84da                	mv	s1,s6
   1093a:	b79d                	j	108a0 <__sfvwrite_r+0x164>
   1093c:	6c1c                	ld	a5,24(s0)
   1093e:	02a7e863          	bltu	a5,a0,1096e <__sfvwrite_r+0x232>
   10942:	501c                	lw	a5,32(s0)
   10944:	02f9e563          	bltu	s3,a5,1096e <__sfvwrite_r+0x232>
   10948:	86ce                	mv	a3,s3
   1094a:	013bf363          	bgeu	s7,s3,10950 <__sfvwrite_r+0x214>
   1094e:	86da                	mv	a3,s6
   10950:	02f6c6bb          	divw	a3,a3,a5
   10954:	6038                	ld	a4,64(s0)
   10956:	780c                	ld	a1,48(s0)
   10958:	8662                	mv	a2,s8
   1095a:	8556                	mv	a0,s5
   1095c:	02f686bb          	mulw	a3,a3,a5
   10960:	9702                	jalr	a4
   10962:	84aa                	mv	s1,a0
   10964:	f8a051e3          	blez	a0,108e6 <__sfvwrite_r+0x1aa>
   10968:	409989b3          	sub	s3,s3,s1
   1096c:	b5d9                	j	10832 <__sfvwrite_r+0xf6>
   1096e:	0099f363          	bgeu	s3,s1,10974 <__sfvwrite_r+0x238>
   10972:	84ce                	mv	s1,s3
   10974:	8626                	mv	a2,s1
   10976:	85e2                	mv	a1,s8
   10978:	19d000ef          	jal	ra,11314 <memmove>
   1097c:	445c                	lw	a5,12(s0)
   1097e:	6018                	ld	a4,0(s0)
   10980:	409786bb          	subw	a3,a5,s1
   10984:	9726                	add	a4,a4,s1
   10986:	c454                	sw	a3,12(s0)
   10988:	e018                	sd	a4,0(s0)
   1098a:	fef9                	bnez	a3,10968 <__sfvwrite_r+0x22c>
   1098c:	85a2                	mv	a1,s0
   1098e:	8556                	mv	a0,s5
   10990:	33a010ef          	jal	ra,11cca <_fflush_r>
   10994:	f929                	bnez	a0,108e6 <__sfvwrite_r+0x1aa>
   10996:	409989b3          	sub	s3,s3,s1
   1099a:	bd61                	j	10832 <__sfvwrite_r+0xf6>
   1099c:	4807f713          	andi	a4,a5,1152
   109a0:	e6070be3          	beqz	a4,10816 <__sfvwrite_r+0xda>
   109a4:	5004                	lw	s1,32(s0)
   109a6:	6c0c                	ld	a1,24(s0)
   109a8:	00198713          	addi	a4,s3,1
   109ac:	0014969b          	slliw	a3,s1,0x1
   109b0:	9ea5                	addw	a3,a3,s1
   109b2:	8d0d                	sub	a0,a0,a1
   109b4:	01f6d49b          	srliw	s1,a3,0x1f
   109b8:	00050d1b          	sext.w	s10,a0
   109bc:	9cb5                	addw	s1,s1,a3
   109be:	4014d49b          	sraiw	s1,s1,0x1
   109c2:	976a                	add	a4,a4,s10
   109c4:	00e4f563          	bgeu	s1,a4,109ce <__sfvwrite_r+0x292>
   109c8:	0019849b          	addiw	s1,s3,1
   109cc:	9ca9                	addw	s1,s1,a0
   109ce:	4007f793          	andi	a5,a5,1024
   109d2:	cfa9                	beqz	a5,10a2c <__sfvwrite_r+0x2f0>
   109d4:	85a6                	mv	a1,s1
   109d6:	8556                	mv	a0,s5
   109d8:	19a000ef          	jal	ra,10b72 <_malloc_r>
   109dc:	8caa                	mv	s9,a0
   109de:	cd25                	beqz	a0,10a56 <__sfvwrite_r+0x31a>
   109e0:	6c0c                	ld	a1,24(s0)
   109e2:	866a                	mv	a2,s10
   109e4:	053000ef          	jal	ra,11236 <memcpy>
   109e8:	01045783          	lhu	a5,16(s0)
   109ec:	b7f7f793          	andi	a5,a5,-1153
   109f0:	0807e793          	ori	a5,a5,128
   109f4:	00f41823          	sh	a5,16(s0)
   109f8:	01ac8533          	add	a0,s9,s10
   109fc:	41a487bb          	subw	a5,s1,s10
   10a00:	01943c23          	sd	s9,24(s0)
   10a04:	e008                	sd	a0,0(s0)
   10a06:	d004                	sw	s1,32(s0)
   10a08:	8cce                	mv	s9,s3
   10a0a:	c45c                	sw	a5,12(s0)
   10a0c:	8d4e                	mv	s10,s3
   10a0e:	b521                	j	10816 <__sfvwrite_r+0xda>
   10a10:	865e                	mv	a2,s7
   10a12:	85e6                	mv	a1,s9
   10a14:	101000ef          	jal	ra,11314 <memmove>
   10a18:	4458                	lw	a4,12(s0)
   10a1a:	6010                	ld	a2,0(s0)
   10a1c:	000b879b          	sext.w	a5,s7
   10a20:	4177073b          	subw	a4,a4,s7
   10a24:	965e                	add	a2,a2,s7
   10a26:	c458                	sw	a4,12(s0)
   10a28:	e010                	sd	a2,0(s0)
   10a2a:	bd9d                	j	108a0 <__sfvwrite_r+0x164>
   10a2c:	8626                	mv	a2,s1
   10a2e:	8556                	mv	a0,s5
   10a30:	1bf000ef          	jal	ra,113ee <_realloc_r>
   10a34:	8caa                	mv	s9,a0
   10a36:	f169                	bnez	a0,109f8 <__sfvwrite_r+0x2bc>
   10a38:	6c0c                	ld	a1,24(s0)
   10a3a:	8556                	mv	a0,s5
   10a3c:	3b4010ef          	jal	ra,11df0 <_free_r>
   10a40:	01041783          	lh	a5,16(s0)
   10a44:	4731                	li	a4,12
   10a46:	00eaa023          	sw	a4,0(s5)
   10a4a:	f7f7f793          	andi	a5,a5,-129
   10a4e:	bd71                	j	108ea <__sfvwrite_r+0x1ae>
   10a50:	001c099b          	addiw	s3,s8,1
   10a54:	bd19                	j	1086a <__sfvwrite_r+0x12e>
   10a56:	4731                	li	a4,12
   10a58:	01041783          	lh	a5,16(s0)
   10a5c:	00eaa023          	sw	a4,0(s5)
   10a60:	b569                	j	108ea <__sfvwrite_r+0x1ae>
   10a62:	557d                	li	a0,-1
   10a64:	bdb1                	j	108c0 <__sfvwrite_r+0x184>

0000000000010a66 <_fwalk>:
   10a66:	715d                	addi	sp,sp,-80
   10a68:	f84a                	sd	s2,48(sp)
   10a6a:	f44e                	sd	s3,40(sp)
   10a6c:	f052                	sd	s4,32(sp)
   10a6e:	ec56                	sd	s5,24(sp)
   10a70:	e85a                	sd	s6,16(sp)
   10a72:	e45e                	sd	s7,8(sp)
   10a74:	e486                	sd	ra,72(sp)
   10a76:	e0a2                	sd	s0,64(sp)
   10a78:	fc26                	sd	s1,56(sp)
   10a7a:	8a2e                	mv	s4,a1
   10a7c:	52050913          	addi	s2,a0,1312
   10a80:	4b01                	li	s6,0
   10a82:	0b000a93          	li	s5,176
   10a86:	4b85                	li	s7,1
   10a88:	59fd                	li	s3,-1
   10a8a:	00892783          	lw	a5,8(s2)
   10a8e:	01093403          	ld	s0,16(s2)
   10a92:	02f05b63          	blez	a5,10ac8 <_fwalk+0x62>
   10a96:	fff7849b          	addiw	s1,a5,-1
   10a9a:	1482                	slli	s1,s1,0x20
   10a9c:	9081                	srli	s1,s1,0x20
   10a9e:	0485                	addi	s1,s1,1
   10aa0:	035484b3          	mul	s1,s1,s5
   10aa4:	94a2                	add	s1,s1,s0
   10aa6:	01045783          	lhu	a5,16(s0)
   10aaa:	00fbfb63          	bgeu	s7,a5,10ac0 <_fwalk+0x5a>
   10aae:	01241783          	lh	a5,18(s0)
   10ab2:	8522                	mv	a0,s0
   10ab4:	01378663          	beq	a5,s3,10ac0 <_fwalk+0x5a>
   10ab8:	9a02                	jalr	s4
   10aba:	01656b33          	or	s6,a0,s6
   10abe:	2b01                	sext.w	s6,s6
   10ac0:	0b040413          	addi	s0,s0,176
   10ac4:	fe8491e3          	bne	s1,s0,10aa6 <_fwalk+0x40>
   10ac8:	00093903          	ld	s2,0(s2)
   10acc:	fa091fe3          	bnez	s2,10a8a <_fwalk+0x24>
   10ad0:	60a6                	ld	ra,72(sp)
   10ad2:	6406                	ld	s0,64(sp)
   10ad4:	74e2                	ld	s1,56(sp)
   10ad6:	7942                	ld	s2,48(sp)
   10ad8:	79a2                	ld	s3,40(sp)
   10ada:	7a02                	ld	s4,32(sp)
   10adc:	6ae2                	ld	s5,24(sp)
   10ade:	6ba2                	ld	s7,8(sp)
   10ae0:	855a                	mv	a0,s6
   10ae2:	6b42                	ld	s6,16(sp)
   10ae4:	6161                	addi	sp,sp,80
   10ae6:	8082                	ret

0000000000010ae8 <_fwalk_reent>:
   10ae8:	715d                	addi	sp,sp,-80
   10aea:	f84a                	sd	s2,48(sp)
   10aec:	f44e                	sd	s3,40(sp)
   10aee:	f052                	sd	s4,32(sp)
   10af0:	ec56                	sd	s5,24(sp)
   10af2:	e85a                	sd	s6,16(sp)
   10af4:	e45e                	sd	s7,8(sp)
   10af6:	e062                	sd	s8,0(sp)
   10af8:	e486                	sd	ra,72(sp)
   10afa:	e0a2                	sd	s0,64(sp)
   10afc:	fc26                	sd	s1,56(sp)
   10afe:	8c2a                	mv	s8,a0
   10b00:	8a2e                	mv	s4,a1
   10b02:	52050913          	addi	s2,a0,1312
   10b06:	4b01                	li	s6,0
   10b08:	0b000a93          	li	s5,176
   10b0c:	4b85                	li	s7,1
   10b0e:	59fd                	li	s3,-1
   10b10:	00892783          	lw	a5,8(s2)
   10b14:	01093403          	ld	s0,16(s2)
   10b18:	02f05c63          	blez	a5,10b50 <_fwalk_reent+0x68>
   10b1c:	fff7849b          	addiw	s1,a5,-1
   10b20:	1482                	slli	s1,s1,0x20
   10b22:	9081                	srli	s1,s1,0x20
   10b24:	0485                	addi	s1,s1,1
   10b26:	035484b3          	mul	s1,s1,s5
   10b2a:	94a2                	add	s1,s1,s0
   10b2c:	01045783          	lhu	a5,16(s0)
   10b30:	00fbfc63          	bgeu	s7,a5,10b48 <_fwalk_reent+0x60>
   10b34:	01241783          	lh	a5,18(s0)
   10b38:	85a2                	mv	a1,s0
   10b3a:	8562                	mv	a0,s8
   10b3c:	01378663          	beq	a5,s3,10b48 <_fwalk_reent+0x60>
   10b40:	9a02                	jalr	s4
   10b42:	01656b33          	or	s6,a0,s6
   10b46:	2b01                	sext.w	s6,s6
   10b48:	0b040413          	addi	s0,s0,176
   10b4c:	fe8490e3          	bne	s1,s0,10b2c <_fwalk_reent+0x44>
   10b50:	00093903          	ld	s2,0(s2)
   10b54:	fa091ee3          	bnez	s2,10b10 <_fwalk_reent+0x28>
   10b58:	60a6                	ld	ra,72(sp)
   10b5a:	6406                	ld	s0,64(sp)
   10b5c:	74e2                	ld	s1,56(sp)
   10b5e:	7942                	ld	s2,48(sp)
   10b60:	79a2                	ld	s3,40(sp)
   10b62:	7a02                	ld	s4,32(sp)
   10b64:	6ae2                	ld	s5,24(sp)
   10b66:	6ba2                	ld	s7,8(sp)
   10b68:	6c02                	ld	s8,0(sp)
   10b6a:	855a                	mv	a0,s6
   10b6c:	6b42                	ld	s6,16(sp)
   10b6e:	6161                	addi	sp,sp,80
   10b70:	8082                	ret

0000000000010b72 <_malloc_r>:
   10b72:	711d                	addi	sp,sp,-96
   10b74:	e4a6                	sd	s1,72(sp)
   10b76:	e0ca                	sd	s2,64(sp)
   10b78:	ec86                	sd	ra,88(sp)
   10b7a:	e8a2                	sd	s0,80(sp)
   10b7c:	fc4e                	sd	s3,56(sp)
   10b7e:	f852                	sd	s4,48(sp)
   10b80:	f456                	sd	s5,40(sp)
   10b82:	f05a                	sd	s6,32(sp)
   10b84:	ec5e                	sd	s7,24(sp)
   10b86:	e862                	sd	s8,16(sp)
   10b88:	e466                	sd	s9,8(sp)
   10b8a:	01758493          	addi	s1,a1,23
   10b8e:	02e00793          	li	a5,46
   10b92:	892a                	mv	s2,a0
   10b94:	0497e863          	bltu	a5,s1,10be4 <_malloc_r+0x72>
   10b98:	02000793          	li	a5,32
   10b9c:	1eb7e663          	bltu	a5,a1,10d88 <_malloc_r+0x216>
   10ba0:	04b000ef          	jal	ra,113ea <__malloc_lock>
   10ba4:	02000493          	li	s1,32
   10ba8:	4611                	li	a2,4
   10baa:	05000793          	li	a5,80
   10bae:	00003997          	auipc	s3,0x3
   10bb2:	1b298993          	addi	s3,s3,434 # 13d60 <__malloc_av_>
   10bb6:	97ce                	add	a5,a5,s3
   10bb8:	6780                	ld	s0,8(a5)
   10bba:	ff078713          	addi	a4,a5,-16
   10bbe:	1ee40663          	beq	s0,a4,10daa <_malloc_r+0x238>
   10bc2:	641c                	ld	a5,8(s0)
   10bc4:	6c14                	ld	a3,24(s0)
   10bc6:	6810                	ld	a2,16(s0)
   10bc8:	9bf1                	andi	a5,a5,-4
   10bca:	97a2                	add	a5,a5,s0
   10bcc:	6798                	ld	a4,8(a5)
   10bce:	ee14                	sd	a3,24(a2)
   10bd0:	ea90                	sd	a2,16(a3)
   10bd2:	00176713          	ori	a4,a4,1
   10bd6:	854a                	mv	a0,s2
   10bd8:	e798                	sd	a4,8(a5)
   10bda:	013000ef          	jal	ra,113ec <__malloc_unlock>
   10bde:	01040513          	addi	a0,s0,16
   10be2:	a27d                	j	10d90 <_malloc_r+0x21e>
   10be4:	800007b7          	lui	a5,0x80000
   10be8:	98c1                	andi	s1,s1,-16
   10bea:	fff7c793          	not	a5,a5
   10bee:	1897ed63          	bltu	a5,s1,10d88 <_malloc_r+0x216>
   10bf2:	18b4eb63          	bltu	s1,a1,10d88 <_malloc_r+0x216>
   10bf6:	7f4000ef          	jal	ra,113ea <__malloc_lock>
   10bfa:	1f700793          	li	a5,503
   10bfe:	3a97f563          	bgeu	a5,s1,10fa8 <_malloc_r+0x436>
   10c02:	0094d793          	srli	a5,s1,0x9
   10c06:	28078163          	beqz	a5,10e88 <_malloc_r+0x316>
   10c0a:	4711                	li	a4,4
   10c0c:	30f76563          	bltu	a4,a5,10f16 <_malloc_r+0x3a4>
   10c10:	0064d793          	srli	a5,s1,0x6
   10c14:	0397861b          	addiw	a2,a5,57
   10c18:	0016169b          	slliw	a3,a2,0x1
   10c1c:	0387851b          	addiw	a0,a5,56
   10c20:	068e                	slli	a3,a3,0x3
   10c22:	00003997          	auipc	s3,0x3
   10c26:	13e98993          	addi	s3,s3,318 # 13d60 <__malloc_av_>
   10c2a:	96ce                	add	a3,a3,s3
   10c2c:	6680                	ld	s0,8(a3)
   10c2e:	16c1                	addi	a3,a3,-16
   10c30:	18868163          	beq	a3,s0,10db2 <_malloc_r+0x240>
   10c34:	45fd                	li	a1,31
   10c36:	a031                	j	10c42 <_malloc_r+0xd0>
   10c38:	28075963          	bgez	a4,10eca <_malloc_r+0x358>
   10c3c:	6c00                	ld	s0,24(s0)
   10c3e:	16868a63          	beq	a3,s0,10db2 <_malloc_r+0x240>
   10c42:	641c                	ld	a5,8(s0)
   10c44:	9bf1                	andi	a5,a5,-4
   10c46:	40978733          	sub	a4,a5,s1
   10c4a:	fee5d7e3          	bge	a1,a4,10c38 <_malloc_r+0xc6>
   10c4e:	0209b403          	ld	s0,32(s3)
   10c52:	00003897          	auipc	a7,0x3
   10c56:	11e88893          	addi	a7,a7,286 # 13d70 <__malloc_av_+0x10>
   10c5a:	862a                	mv	a2,a0
   10c5c:	17141363          	bne	s0,a7,10dc2 <_malloc_r+0x250>
   10c60:	0089b783          	ld	a5,8(s3)
   10c64:	4026571b          	sraiw	a4,a2,0x2
   10c68:	4585                	li	a1,1
   10c6a:	00e595b3          	sll	a1,a1,a4
   10c6e:	1ab7fa63          	bgeu	a5,a1,10e22 <_malloc_r+0x2b0>
   10c72:	0109b403          	ld	s0,16(s3)
   10c76:	00843a03          	ld	s4,8(s0)
   10c7a:	ffca7a93          	andi	s5,s4,-4
   10c7e:	009ae763          	bltu	s5,s1,10c8c <_malloc_r+0x11a>
   10c82:	409a87b3          	sub	a5,s5,s1
   10c86:	477d                	li	a4,31
   10c88:	22f74263          	blt	a4,a5,10eac <_malloc_r+0x33a>
   10c8c:	76818c93          	addi	s9,gp,1896 # 145a0 <__malloc_sbrk_base>
   10c90:	000cb703          	ld	a4,0(s9)
   10c94:	7881ba03          	ld	s4,1928(gp) # 145c0 <__malloc_top_pad>
   10c98:	57fd                	li	a5,-1
   10c9a:	01540bb3          	add	s7,s0,s5
   10c9e:	9a26                	add	s4,s4,s1
   10ca0:	3af70263          	beq	a4,a5,11044 <_malloc_r+0x4d2>
   10ca4:	6785                	lui	a5,0x1
   10ca6:	07fd                	addi	a5,a5,31
   10ca8:	9a3e                	add	s4,s4,a5
   10caa:	77fd                	lui	a5,0xfffff
   10cac:	00fa7a33          	and	s4,s4,a5
   10cb0:	85d2                	mv	a1,s4
   10cb2:	854a                	mv	a0,s2
   10cb4:	349000ef          	jal	ra,117fc <_sbrk_r>
   10cb8:	57fd                	li	a5,-1
   10cba:	8b2a                	mv	s6,a0
   10cbc:	30f50b63          	beq	a0,a5,10fd2 <_malloc_r+0x460>
   10cc0:	31756763          	bltu	a0,s7,10fce <_malloc_r+0x45c>
   10cc4:	7d018c13          	addi	s8,gp,2000 # 14608 <__malloc_current_mallinfo>
   10cc8:	000c2703          	lw	a4,0(s8)
   10ccc:	014707bb          	addw	a5,a4,s4
   10cd0:	00fc2023          	sw	a5,0(s8)
   10cd4:	86be                	mv	a3,a5
   10cd6:	40ab8063          	beq	s7,a0,110d6 <_malloc_r+0x564>
   10cda:	000cb703          	ld	a4,0(s9)
   10cde:	57fd                	li	a5,-1
   10ce0:	40f70763          	beq	a4,a5,110ee <_malloc_r+0x57c>
   10ce4:	417b07b3          	sub	a5,s6,s7
   10ce8:	9fb5                	addw	a5,a5,a3
   10cea:	00fc2023          	sw	a5,0(s8)
   10cee:	00fb7b93          	andi	s7,s6,15
   10cf2:	360b8763          	beqz	s7,11060 <_malloc_r+0x4ee>
   10cf6:	6705                	lui	a4,0x1
   10cf8:	417b0b33          	sub	s6,s6,s7
   10cfc:	01070793          	addi	a5,a4,16 # 1010 <register_fini-0xf0a0>
   10d00:	0b41                	addi	s6,s6,16
   10d02:	417787b3          	sub	a5,a5,s7
   10d06:	014b0cb3          	add	s9,s6,s4
   10d0a:	41978a33          	sub	s4,a5,s9
   10d0e:	177d                	addi	a4,a4,-1
   10d10:	00ea7a33          	and	s4,s4,a4
   10d14:	85d2                	mv	a1,s4
   10d16:	854a                	mv	a0,s2
   10d18:	2e5000ef          	jal	ra,117fc <_sbrk_r>
   10d1c:	57fd                	li	a5,-1
   10d1e:	40f50d63          	beq	a0,a5,11138 <_malloc_r+0x5c6>
   10d22:	41650533          	sub	a0,a0,s6
   10d26:	000a071b          	sext.w	a4,s4
   10d2a:	9a2a                	add	s4,s4,a0
   10d2c:	000c2783          	lw	a5,0(s8)
   10d30:	0169b823          	sd	s6,16(s3)
   10d34:	001a6a13          	ori	s4,s4,1
   10d38:	9fb9                	addw	a5,a5,a4
   10d3a:	00fc2023          	sw	a5,0(s8)
   10d3e:	014b3423          	sd	s4,8(s6) # ffffffff80000008 <__BSS_END__+0xffffffff7ffeb9d0>
   10d42:	3b340963          	beq	s0,s3,110f4 <_malloc_r+0x582>
   10d46:	467d                	li	a2,31
   10d48:	3b567863          	bgeu	a2,s5,110f8 <_malloc_r+0x586>
   10d4c:	6414                	ld	a3,8(s0)
   10d4e:	fe8a8713          	addi	a4,s5,-24
   10d52:	9b41                	andi	a4,a4,-16
   10d54:	8a85                	andi	a3,a3,1
   10d56:	8ed9                	or	a3,a3,a4
   10d58:	e414                	sd	a3,8(s0)
   10d5a:	45a5                	li	a1,9
   10d5c:	00e406b3          	add	a3,s0,a4
   10d60:	e68c                	sd	a1,8(a3)
   10d62:	ea8c                	sd	a1,16(a3)
   10d64:	3ee66163          	bltu	a2,a4,11146 <_malloc_r+0x5d4>
   10d68:	008b3a03          	ld	s4,8(s6)
   10d6c:	845a                	mv	s0,s6
   10d6e:	78018713          	addi	a4,gp,1920 # 145b8 <__malloc_max_sbrked_mem>
   10d72:	6314                	ld	a3,0(a4)
   10d74:	00f6f363          	bgeu	a3,a5,10d7a <_malloc_r+0x208>
   10d78:	e31c                	sd	a5,0(a4)
   10d7a:	77818713          	addi	a4,gp,1912 # 145b0 <_edata>
   10d7e:	6314                	ld	a3,0(a4)
   10d80:	24f6fd63          	bgeu	a3,a5,10fda <_malloc_r+0x468>
   10d84:	e31c                	sd	a5,0(a4)
   10d86:	ac91                	j	10fda <_malloc_r+0x468>
   10d88:	47b1                	li	a5,12
   10d8a:	00f92023          	sw	a5,0(s2)
   10d8e:	4501                	li	a0,0
   10d90:	60e6                	ld	ra,88(sp)
   10d92:	6446                	ld	s0,80(sp)
   10d94:	64a6                	ld	s1,72(sp)
   10d96:	6906                	ld	s2,64(sp)
   10d98:	79e2                	ld	s3,56(sp)
   10d9a:	7a42                	ld	s4,48(sp)
   10d9c:	7aa2                	ld	s5,40(sp)
   10d9e:	7b02                	ld	s6,32(sp)
   10da0:	6be2                	ld	s7,24(sp)
   10da2:	6c42                	ld	s8,16(sp)
   10da4:	6ca2                	ld	s9,8(sp)
   10da6:	6125                	addi	sp,sp,96
   10da8:	8082                	ret
   10daa:	6f80                	ld	s0,24(a5)
   10dac:	2609                	addiw	a2,a2,2
   10dae:	e0879ae3          	bne	a5,s0,10bc2 <_malloc_r+0x50>
   10db2:	0209b403          	ld	s0,32(s3)
   10db6:	00003897          	auipc	a7,0x3
   10dba:	fba88893          	addi	a7,a7,-70 # 13d70 <__malloc_av_+0x10>
   10dbe:	eb1401e3          	beq	s0,a7,10c60 <_malloc_r+0xee>
   10dc2:	641c                	ld	a5,8(s0)
   10dc4:	46fd                	li	a3,31
   10dc6:	9bf1                	andi	a5,a5,-4
   10dc8:	40978733          	sub	a4,a5,s1
   10dcc:	1ae6c763          	blt	a3,a4,10f7a <_malloc_r+0x408>
   10dd0:	0319b423          	sd	a7,40(s3)
   10dd4:	0319b023          	sd	a7,32(s3)
   10dd8:	0a075f63          	bgez	a4,10e96 <_malloc_r+0x324>
   10ddc:	1ff00713          	li	a4,511
   10de0:	0ef76863          	bltu	a4,a5,10ed0 <_malloc_r+0x35e>
   10de4:	838d                	srli	a5,a5,0x3
   10de6:	0017871b          	addiw	a4,a5,1
   10dea:	0017171b          	slliw	a4,a4,0x1
   10dee:	070e                	slli	a4,a4,0x3
   10df0:	0089b503          	ld	a0,8(s3)
   10df4:	974e                	add	a4,a4,s3
   10df6:	630c                	ld	a1,0(a4)
   10df8:	4027d69b          	sraiw	a3,a5,0x2
   10dfc:	4785                	li	a5,1
   10dfe:	00d797b3          	sll	a5,a5,a3
   10e02:	8fc9                	or	a5,a5,a0
   10e04:	ff070693          	addi	a3,a4,-16
   10e08:	ec14                	sd	a3,24(s0)
   10e0a:	e80c                	sd	a1,16(s0)
   10e0c:	00f9b423          	sd	a5,8(s3)
   10e10:	e300                	sd	s0,0(a4)
   10e12:	ed80                	sd	s0,24(a1)
   10e14:	4026571b          	sraiw	a4,a2,0x2
   10e18:	4585                	li	a1,1
   10e1a:	00e595b3          	sll	a1,a1,a4
   10e1e:	e4b7eae3          	bltu	a5,a1,10c72 <_malloc_r+0x100>
   10e22:	00f5f733          	and	a4,a1,a5
   10e26:	ef01                	bnez	a4,10e3e <_malloc_r+0x2cc>
   10e28:	0586                	slli	a1,a1,0x1
   10e2a:	9a71                	andi	a2,a2,-4
   10e2c:	00f5f733          	and	a4,a1,a5
   10e30:	2611                	addiw	a2,a2,4
   10e32:	e711                	bnez	a4,10e3e <_malloc_r+0x2cc>
   10e34:	0586                	slli	a1,a1,0x1
   10e36:	00f5f733          	and	a4,a1,a5
   10e3a:	2611                	addiw	a2,a2,4
   10e3c:	df65                	beqz	a4,10e34 <_malloc_r+0x2c2>
   10e3e:	487d                	li	a6,31
   10e40:	0016031b          	addiw	t1,a2,1
   10e44:	0013131b          	slliw	t1,t1,0x1
   10e48:	030e                	slli	t1,t1,0x3
   10e4a:	1341                	addi	t1,t1,-16
   10e4c:	934e                	add	t1,t1,s3
   10e4e:	851a                	mv	a0,t1
   10e50:	6d1c                	ld	a5,24(a0)
   10e52:	8e32                	mv	t3,a2
   10e54:	0ef50263          	beq	a0,a5,10f38 <_malloc_r+0x3c6>
   10e58:	6798                	ld	a4,8(a5)
   10e5a:	843e                	mv	s0,a5
   10e5c:	6f9c                	ld	a5,24(a5)
   10e5e:	9b71                	andi	a4,a4,-4
   10e60:	409706b3          	sub	a3,a4,s1
   10e64:	0ed84163          	blt	a6,a3,10f46 <_malloc_r+0x3d4>
   10e68:	fe06c6e3          	bltz	a3,10e54 <_malloc_r+0x2e2>
   10e6c:	9722                	add	a4,a4,s0
   10e6e:	6714                	ld	a3,8(a4)
   10e70:	6810                	ld	a2,16(s0)
   10e72:	854a                	mv	a0,s2
   10e74:	0016e693          	ori	a3,a3,1
   10e78:	e714                	sd	a3,8(a4)
   10e7a:	ee1c                	sd	a5,24(a2)
   10e7c:	eb90                	sd	a2,16(a5)
   10e7e:	56e000ef          	jal	ra,113ec <__malloc_unlock>
   10e82:	01040513          	addi	a0,s0,16
   10e86:	b729                	j	10d90 <_malloc_r+0x21e>
   10e88:	40000693          	li	a3,1024
   10e8c:	04000613          	li	a2,64
   10e90:	03f00513          	li	a0,63
   10e94:	b379                	j	10c22 <_malloc_r+0xb0>
   10e96:	97a2                	add	a5,a5,s0
   10e98:	6798                	ld	a4,8(a5)
   10e9a:	854a                	mv	a0,s2
   10e9c:	00176713          	ori	a4,a4,1
   10ea0:	e798                	sd	a4,8(a5)
   10ea2:	54a000ef          	jal	ra,113ec <__malloc_unlock>
   10ea6:	01040513          	addi	a0,s0,16
   10eaa:	b5dd                	j	10d90 <_malloc_r+0x21e>
   10eac:	0014e713          	ori	a4,s1,1
   10eb0:	e418                	sd	a4,8(s0)
   10eb2:	94a2                	add	s1,s1,s0
   10eb4:	0099b823          	sd	s1,16(s3)
   10eb8:	0017e793          	ori	a5,a5,1
   10ebc:	854a                	mv	a0,s2
   10ebe:	e49c                	sd	a5,8(s1)
   10ec0:	52c000ef          	jal	ra,113ec <__malloc_unlock>
   10ec4:	01040513          	addi	a0,s0,16
   10ec8:	b5e1                	j	10d90 <_malloc_r+0x21e>
   10eca:	6c14                	ld	a3,24(s0)
   10ecc:	6810                	ld	a2,16(s0)
   10ece:	b9f5                	j	10bca <_malloc_r+0x58>
   10ed0:	0097d713          	srli	a4,a5,0x9
   10ed4:	4691                	li	a3,4
   10ed6:	0ee6f263          	bgeu	a3,a4,10fba <_malloc_r+0x448>
   10eda:	46d1                	li	a3,20
   10edc:	1ae6e863          	bltu	a3,a4,1108c <_malloc_r+0x51a>
   10ee0:	05c7059b          	addiw	a1,a4,92
   10ee4:	0015959b          	slliw	a1,a1,0x1
   10ee8:	05b7069b          	addiw	a3,a4,91
   10eec:	058e                	slli	a1,a1,0x3
   10eee:	95ce                	add	a1,a1,s3
   10ef0:	6198                	ld	a4,0(a1)
   10ef2:	15c1                	addi	a1,a1,-16
   10ef4:	14e58b63          	beq	a1,a4,1104a <_malloc_r+0x4d8>
   10ef8:	6714                	ld	a3,8(a4)
   10efa:	9af1                	andi	a3,a3,-4
   10efc:	00d7f563          	bgeu	a5,a3,10f06 <_malloc_r+0x394>
   10f00:	6b18                	ld	a4,16(a4)
   10f02:	fee59be3          	bne	a1,a4,10ef8 <_malloc_r+0x386>
   10f06:	6f0c                	ld	a1,24(a4)
   10f08:	0089b783          	ld	a5,8(s3)
   10f0c:	ec0c                	sd	a1,24(s0)
   10f0e:	e818                	sd	a4,16(s0)
   10f10:	e980                	sd	s0,16(a1)
   10f12:	ef00                	sd	s0,24(a4)
   10f14:	b701                	j	10e14 <_malloc_r+0x2a2>
   10f16:	4751                	li	a4,20
   10f18:	0cf77f63          	bgeu	a4,a5,10ff6 <_malloc_r+0x484>
   10f1c:	05400713          	li	a4,84
   10f20:	18f76463          	bltu	a4,a5,110a8 <_malloc_r+0x536>
   10f24:	00c4d793          	srli	a5,s1,0xc
   10f28:	06f7861b          	addiw	a2,a5,111
   10f2c:	0016169b          	slliw	a3,a2,0x1
   10f30:	06e7851b          	addiw	a0,a5,110
   10f34:	068e                	slli	a3,a3,0x3
   10f36:	b1f5                	j	10c22 <_malloc_r+0xb0>
   10f38:	2e05                	addiw	t3,t3,1
   10f3a:	003e7793          	andi	a5,t3,3
   10f3e:	0541                	addi	a0,a0,16
   10f40:	cbe1                	beqz	a5,11010 <_malloc_r+0x49e>
   10f42:	6d1c                	ld	a5,24(a0)
   10f44:	bf01                	j	10e54 <_malloc_r+0x2e2>
   10f46:	6810                	ld	a2,16(s0)
   10f48:	0014e593          	ori	a1,s1,1
   10f4c:	e40c                	sd	a1,8(s0)
   10f4e:	ee1c                	sd	a5,24(a2)
   10f50:	eb90                	sd	a2,16(a5)
   10f52:	94a2                	add	s1,s1,s0
   10f54:	0299b423          	sd	s1,40(s3)
   10f58:	0299b023          	sd	s1,32(s3)
   10f5c:	0016e793          	ori	a5,a3,1
   10f60:	0114bc23          	sd	a7,24(s1)
   10f64:	0114b823          	sd	a7,16(s1)
   10f68:	e49c                	sd	a5,8(s1)
   10f6a:	9722                	add	a4,a4,s0
   10f6c:	854a                	mv	a0,s2
   10f6e:	e314                	sd	a3,0(a4)
   10f70:	47c000ef          	jal	ra,113ec <__malloc_unlock>
   10f74:	01040513          	addi	a0,s0,16
   10f78:	bd21                	j	10d90 <_malloc_r+0x21e>
   10f7a:	0014e693          	ori	a3,s1,1
   10f7e:	e414                	sd	a3,8(s0)
   10f80:	94a2                	add	s1,s1,s0
   10f82:	0299b423          	sd	s1,40(s3)
   10f86:	0299b023          	sd	s1,32(s3)
   10f8a:	00176693          	ori	a3,a4,1
   10f8e:	0114bc23          	sd	a7,24(s1)
   10f92:	0114b823          	sd	a7,16(s1)
   10f96:	e494                	sd	a3,8(s1)
   10f98:	97a2                	add	a5,a5,s0
   10f9a:	854a                	mv	a0,s2
   10f9c:	e398                	sd	a4,0(a5)
   10f9e:	44e000ef          	jal	ra,113ec <__malloc_unlock>
   10fa2:	01040513          	addi	a0,s0,16
   10fa6:	b3ed                	j	10d90 <_malloc_r+0x21e>
   10fa8:	0034d613          	srli	a2,s1,0x3
   10fac:	0016079b          	addiw	a5,a2,1
   10fb0:	0017979b          	slliw	a5,a5,0x1
   10fb4:	2601                	sext.w	a2,a2
   10fb6:	078e                	slli	a5,a5,0x3
   10fb8:	bedd                	j	10bae <_malloc_r+0x3c>
   10fba:	0067d713          	srli	a4,a5,0x6
   10fbe:	0397059b          	addiw	a1,a4,57
   10fc2:	0015959b          	slliw	a1,a1,0x1
   10fc6:	0387069b          	addiw	a3,a4,56
   10fca:	058e                	slli	a1,a1,0x3
   10fcc:	b70d                	j	10eee <_malloc_r+0x37c>
   10fce:	0f340b63          	beq	s0,s3,110c4 <_malloc_r+0x552>
   10fd2:	0109b403          	ld	s0,16(s3)
   10fd6:	00843a03          	ld	s4,8(s0)
   10fda:	ffca7a13          	andi	s4,s4,-4
   10fde:	409a07b3          	sub	a5,s4,s1
   10fe2:	009a6563          	bltu	s4,s1,10fec <_malloc_r+0x47a>
   10fe6:	477d                	li	a4,31
   10fe8:	ecf742e3          	blt	a4,a5,10eac <_malloc_r+0x33a>
   10fec:	854a                	mv	a0,s2
   10fee:	3fe000ef          	jal	ra,113ec <__malloc_unlock>
   10ff2:	4501                	li	a0,0
   10ff4:	bb71                	j	10d90 <_malloc_r+0x21e>
   10ff6:	05c7861b          	addiw	a2,a5,92
   10ffa:	0016169b          	slliw	a3,a2,0x1
   10ffe:	05b7851b          	addiw	a0,a5,91
   11002:	068e                	slli	a3,a3,0x3
   11004:	b939                	j	10c22 <_malloc_r+0xb0>
   11006:	01033783          	ld	a5,16(t1) # 1016c <main+0x6>
   1100a:	367d                	addiw	a2,a2,-1
   1100c:	18679363          	bne	a5,t1,11192 <_malloc_r+0x620>
   11010:	00367793          	andi	a5,a2,3
   11014:	1341                	addi	t1,t1,-16
   11016:	fbe5                	bnez	a5,11006 <_malloc_r+0x494>
   11018:	0089b703          	ld	a4,8(s3)
   1101c:	fff5c793          	not	a5,a1
   11020:	8ff9                	and	a5,a5,a4
   11022:	00f9b423          	sd	a5,8(s3)
   11026:	0586                	slli	a1,a1,0x1
   11028:	c4b7e5e3          	bltu	a5,a1,10c72 <_malloc_r+0x100>
   1102c:	c40583e3          	beqz	a1,10c72 <_malloc_r+0x100>
   11030:	00f5f733          	and	a4,a1,a5
   11034:	e711                	bnez	a4,11040 <_malloc_r+0x4ce>
   11036:	0586                	slli	a1,a1,0x1
   11038:	00f5f733          	and	a4,a1,a5
   1103c:	2e11                	addiw	t3,t3,4
   1103e:	df65                	beqz	a4,11036 <_malloc_r+0x4c4>
   11040:	8672                	mv	a2,t3
   11042:	bbfd                	j	10e40 <_malloc_r+0x2ce>
   11044:	020a0a13          	addi	s4,s4,32
   11048:	b1a5                	j	10cb0 <_malloc_r+0x13e>
   1104a:	0089b503          	ld	a0,8(s3)
   1104e:	4026d69b          	sraiw	a3,a3,0x2
   11052:	4785                	li	a5,1
   11054:	00d797b3          	sll	a5,a5,a3
   11058:	8fc9                	or	a5,a5,a0
   1105a:	00f9b423          	sd	a5,8(s3)
   1105e:	b57d                	j	10f0c <_malloc_r+0x39a>
   11060:	014b0bb3          	add	s7,s6,s4
   11064:	41700bb3          	neg	s7,s7
   11068:	1bd2                	slli	s7,s7,0x34
   1106a:	034bdb93          	srli	s7,s7,0x34
   1106e:	85de                	mv	a1,s7
   11070:	854a                	mv	a0,s2
   11072:	78a000ef          	jal	ra,117fc <_sbrk_r>
   11076:	57fd                	li	a5,-1
   11078:	4701                	li	a4,0
   1107a:	caf509e3          	beq	a0,a5,10d2c <_malloc_r+0x1ba>
   1107e:	41650533          	sub	a0,a0,s6
   11082:	000b871b          	sext.w	a4,s7
   11086:	01750a33          	add	s4,a0,s7
   1108a:	b14d                	j	10d2c <_malloc_r+0x1ba>
   1108c:	05400693          	li	a3,84
   11090:	06e6e863          	bltu	a3,a4,11100 <_malloc_r+0x58e>
   11094:	00c7d713          	srli	a4,a5,0xc
   11098:	06f7059b          	addiw	a1,a4,111
   1109c:	0015959b          	slliw	a1,a1,0x1
   110a0:	06e7069b          	addiw	a3,a4,110
   110a4:	058e                	slli	a1,a1,0x3
   110a6:	b5a1                	j	10eee <_malloc_r+0x37c>
   110a8:	15400713          	li	a4,340
   110ac:	06f76863          	bltu	a4,a5,1111c <_malloc_r+0x5aa>
   110b0:	00f4d793          	srli	a5,s1,0xf
   110b4:	0787861b          	addiw	a2,a5,120
   110b8:	0016169b          	slliw	a3,a2,0x1
   110bc:	0777851b          	addiw	a0,a5,119
   110c0:	068e                	slli	a3,a3,0x3
   110c2:	b685                	j	10c22 <_malloc_r+0xb0>
   110c4:	7d018c13          	addi	s8,gp,2000 # 14608 <__malloc_current_mallinfo>
   110c8:	000c2783          	lw	a5,0(s8)
   110cc:	014786bb          	addw	a3,a5,s4
   110d0:	00dc2023          	sw	a3,0(s8)
   110d4:	b119                	j	10cda <_malloc_r+0x168>
   110d6:	034b9713          	slli	a4,s7,0x34
   110da:	c00710e3          	bnez	a4,10cda <_malloc_r+0x168>
   110de:	0109b403          	ld	s0,16(s3)
   110e2:	9a56                	add	s4,s4,s5
   110e4:	001a6a13          	ori	s4,s4,1
   110e8:	01443423          	sd	s4,8(s0)
   110ec:	b149                	j	10d6e <_malloc_r+0x1fc>
   110ee:	016cb023          	sd	s6,0(s9)
   110f2:	bef5                	j	10cee <_malloc_r+0x17c>
   110f4:	845a                	mv	s0,s6
   110f6:	b9a5                	j	10d6e <_malloc_r+0x1fc>
   110f8:	4785                	li	a5,1
   110fa:	00fb3423          	sd	a5,8(s6)
   110fe:	b5fd                	j	10fec <_malloc_r+0x47a>
   11100:	15400693          	li	a3,340
   11104:	04e6ed63          	bltu	a3,a4,1115e <_malloc_r+0x5ec>
   11108:	00f7d713          	srli	a4,a5,0xf
   1110c:	0787059b          	addiw	a1,a4,120
   11110:	0015959b          	slliw	a1,a1,0x1
   11114:	0777069b          	addiw	a3,a4,119
   11118:	058e                	slli	a1,a1,0x3
   1111a:	bbd1                	j	10eee <_malloc_r+0x37c>
   1111c:	55400713          	li	a4,1364
   11120:	04f76d63          	bltu	a4,a5,1117a <_malloc_r+0x608>
   11124:	0124d793          	srli	a5,s1,0x12
   11128:	07d7861b          	addiw	a2,a5,125
   1112c:	0016169b          	slliw	a3,a2,0x1
   11130:	07c7851b          	addiw	a0,a5,124
   11134:	068e                	slli	a3,a3,0x3
   11136:	b4f5                	j	10c22 <_malloc_r+0xb0>
   11138:	1bc1                	addi	s7,s7,-16
   1113a:	017c8a33          	add	s4,s9,s7
   1113e:	416a0a33          	sub	s4,s4,s6
   11142:	4701                	li	a4,0
   11144:	b6e5                	j	10d2c <_malloc_r+0x1ba>
   11146:	01040593          	addi	a1,s0,16
   1114a:	854a                	mv	a0,s2
   1114c:	4a5000ef          	jal	ra,11df0 <_free_r>
   11150:	0109b403          	ld	s0,16(s3)
   11154:	000c2783          	lw	a5,0(s8)
   11158:	00843a03          	ld	s4,8(s0)
   1115c:	b909                	j	10d6e <_malloc_r+0x1fc>
   1115e:	55400693          	li	a3,1364
   11162:	02e6e363          	bltu	a3,a4,11188 <_malloc_r+0x616>
   11166:	0127d713          	srli	a4,a5,0x12
   1116a:	07d7059b          	addiw	a1,a4,125
   1116e:	0015959b          	slliw	a1,a1,0x1
   11172:	07c7069b          	addiw	a3,a4,124
   11176:	058e                	slli	a1,a1,0x3
   11178:	bb9d                	j	10eee <_malloc_r+0x37c>
   1117a:	7f000693          	li	a3,2032
   1117e:	07f00613          	li	a2,127
   11182:	07e00513          	li	a0,126
   11186:	bc71                	j	10c22 <_malloc_r+0xb0>
   11188:	7f000593          	li	a1,2032
   1118c:	07e00693          	li	a3,126
   11190:	bbb9                	j	10eee <_malloc_r+0x37c>
   11192:	0089b783          	ld	a5,8(s3)
   11196:	bd41                	j	11026 <_malloc_r+0x4b4>

0000000000011198 <memchr>:
   11198:	00757793          	andi	a5,a0,7
   1119c:	0ff5f693          	andi	a3,a1,255
   111a0:	c395                	beqz	a5,111c4 <memchr+0x2c>
   111a2:	fff60793          	addi	a5,a2,-1
   111a6:	c605                	beqz	a2,111ce <memchr+0x36>
   111a8:	567d                	li	a2,-1
   111aa:	a801                	j	111ba <memchr+0x22>
   111ac:	0505                	addi	a0,a0,1
   111ae:	00757713          	andi	a4,a0,7
   111b2:	cb11                	beqz	a4,111c6 <memchr+0x2e>
   111b4:	17fd                	addi	a5,a5,-1
   111b6:	00c78c63          	beq	a5,a2,111ce <memchr+0x36>
   111ba:	00054703          	lbu	a4,0(a0)
   111be:	fed717e3          	bne	a4,a3,111ac <memchr+0x14>
   111c2:	8082                	ret
   111c4:	87b2                	mv	a5,a2
   111c6:	471d                	li	a4,7
   111c8:	00f76f63          	bltu	a4,a5,111e6 <memchr+0x4e>
   111cc:	e399                	bnez	a5,111d2 <memchr+0x3a>
   111ce:	4501                	li	a0,0
   111d0:	8082                	ret
   111d2:	97aa                	add	a5,a5,a0
   111d4:	a021                	j	111dc <memchr+0x44>
   111d6:	0505                	addi	a0,a0,1
   111d8:	fea78be3          	beq	a5,a0,111ce <memchr+0x36>
   111dc:	00054703          	lbu	a4,0(a0)
   111e0:	fed71be3          	bne	a4,a3,111d6 <memchr+0x3e>
   111e4:	8082                	ret
   111e6:	6641                	lui	a2,0x10
   111e8:	0085971b          	slliw	a4,a1,0x8
   111ec:	167d                	addi	a2,a2,-1
   111ee:	8f71                	and	a4,a4,a2
   111f0:	0ff5f593          	andi	a1,a1,255
   111f4:	8dd9                	or	a1,a1,a4
   111f6:	2581                	sext.w	a1,a1
   111f8:	01059713          	slli	a4,a1,0x10
   111fc:	8f4d                	or	a4,a4,a1
   111fe:	02071593          	slli	a1,a4,0x20
   11202:	8dd9                	or	a1,a1,a4
   11204:	00003897          	auipc	a7,0x3
   11208:	3748b883          	ld	a7,884(a7) # 14578 <__SDATA_BEGIN__+0x8>
   1120c:	00003817          	auipc	a6,0x3
   11210:	37483803          	ld	a6,884(a6) # 14580 <__SDATA_BEGIN__+0x10>
   11214:	431d                	li	t1,7
   11216:	6118                	ld	a4,0(a0)
   11218:	8f2d                	xor	a4,a4,a1
   1121a:	01170633          	add	a2,a4,a7
   1121e:	fff74713          	not	a4,a4
   11222:	8f71                	and	a4,a4,a2
   11224:	01077733          	and	a4,a4,a6
   11228:	f74d                	bnez	a4,111d2 <memchr+0x3a>
   1122a:	17e1                	addi	a5,a5,-8
   1122c:	0521                	addi	a0,a0,8
   1122e:	fef364e3          	bltu	t1,a5,11216 <memchr+0x7e>
   11232:	f3c5                	bnez	a5,111d2 <memchr+0x3a>
   11234:	bf69                	j	111ce <memchr+0x36>

0000000000011236 <memcpy>:
   11236:	00a5c7b3          	xor	a5,a1,a0
   1123a:	8b9d                	andi	a5,a5,7
   1123c:	00c508b3          	add	a7,a0,a2
   11240:	e7a1                	bnez	a5,11288 <memcpy+0x52>
   11242:	479d                	li	a5,7
   11244:	04c7f263          	bgeu	a5,a2,11288 <memcpy+0x52>
   11248:	00757793          	andi	a5,a0,7
   1124c:	872a                	mv	a4,a0
   1124e:	eba9                	bnez	a5,112a0 <memcpy+0x6a>
   11250:	ff88f613          	andi	a2,a7,-8
   11254:	fc060793          	addi	a5,a2,-64 # ffc0 <register_fini-0xf0>
   11258:	06f76763          	bltu	a4,a5,112c6 <memcpy+0x90>
   1125c:	02c77363          	bgeu	a4,a2,11282 <memcpy+0x4c>
   11260:	86ae                	mv	a3,a1
   11262:	87ba                	mv	a5,a4
   11264:	0006b803          	ld	a6,0(a3)
   11268:	07a1                	addi	a5,a5,8
   1126a:	06a1                	addi	a3,a3,8
   1126c:	ff07bc23          	sd	a6,-8(a5) # ffffffffffffeff8 <__BSS_END__+0xfffffffffffea9c0>
   11270:	fec7eae3          	bltu	a5,a2,11264 <memcpy+0x2e>
   11274:	fff60793          	addi	a5,a2,-1
   11278:	8f99                	sub	a5,a5,a4
   1127a:	9be1                	andi	a5,a5,-8
   1127c:	07a1                	addi	a5,a5,8
   1127e:	973e                	add	a4,a4,a5
   11280:	95be                	add	a1,a1,a5
   11282:	01176663          	bltu	a4,a7,1128e <memcpy+0x58>
   11286:	8082                	ret
   11288:	872a                	mv	a4,a0
   1128a:	ff157ee3          	bgeu	a0,a7,11286 <memcpy+0x50>
   1128e:	0005c783          	lbu	a5,0(a1)
   11292:	0705                	addi	a4,a4,1
   11294:	0585                	addi	a1,a1,1
   11296:	fef70fa3          	sb	a5,-1(a4)
   1129a:	ff176ae3          	bltu	a4,a7,1128e <memcpy+0x58>
   1129e:	8082                	ret
   112a0:	0005c683          	lbu	a3,0(a1)
   112a4:	0705                	addi	a4,a4,1
   112a6:	00777793          	andi	a5,a4,7
   112aa:	fed70fa3          	sb	a3,-1(a4)
   112ae:	0585                	addi	a1,a1,1
   112b0:	d3c5                	beqz	a5,11250 <memcpy+0x1a>
   112b2:	0005c683          	lbu	a3,0(a1)
   112b6:	0705                	addi	a4,a4,1
   112b8:	00777793          	andi	a5,a4,7
   112bc:	fed70fa3          	sb	a3,-1(a4)
   112c0:	0585                	addi	a1,a1,1
   112c2:	fff9                	bnez	a5,112a0 <memcpy+0x6a>
   112c4:	b771                	j	11250 <memcpy+0x1a>
   112c6:	6594                	ld	a3,8(a1)
   112c8:	0005b283          	ld	t0,0(a1)
   112cc:	0105bf83          	ld	t6,16(a1)
   112d0:	0185bf03          	ld	t5,24(a1)
   112d4:	0205be83          	ld	t4,32(a1)
   112d8:	0285be03          	ld	t3,40(a1)
   112dc:	0305b303          	ld	t1,48(a1)
   112e0:	0385b803          	ld	a6,56(a1)
   112e4:	e714                	sd	a3,8(a4)
   112e6:	61b4                	ld	a3,64(a1)
   112e8:	00573023          	sd	t0,0(a4)
   112ec:	01f73823          	sd	t6,16(a4)
   112f0:	01e73c23          	sd	t5,24(a4)
   112f4:	03d73023          	sd	t4,32(a4)
   112f8:	03c73423          	sd	t3,40(a4)
   112fc:	02673823          	sd	t1,48(a4)
   11300:	03073c23          	sd	a6,56(a4)
   11304:	e334                	sd	a3,64(a4)
   11306:	04870713          	addi	a4,a4,72
   1130a:	04858593          	addi	a1,a1,72
   1130e:	faf76ce3          	bltu	a4,a5,112c6 <memcpy+0x90>
   11312:	b7a9                	j	1125c <memcpy+0x26>

0000000000011314 <memmove>:
   11314:	02a5f263          	bgeu	a1,a0,11338 <memmove+0x24>
   11318:	00c587b3          	add	a5,a1,a2
   1131c:	00f57e63          	bgeu	a0,a5,11338 <memmove+0x24>
   11320:	00c50733          	add	a4,a0,a2
   11324:	ca5d                	beqz	a2,113da <memmove+0xc6>
   11326:	fff7c683          	lbu	a3,-1(a5)
   1132a:	17fd                	addi	a5,a5,-1
   1132c:	177d                	addi	a4,a4,-1
   1132e:	00d70023          	sb	a3,0(a4)
   11332:	fef59ae3          	bne	a1,a5,11326 <memmove+0x12>
   11336:	8082                	ret
   11338:	47fd                	li	a5,31
   1133a:	02c7e163          	bltu	a5,a2,1135c <memmove+0x48>
   1133e:	87aa                	mv	a5,a0
   11340:	fff60693          	addi	a3,a2,-1
   11344:	c245                	beqz	a2,113e4 <memmove+0xd0>
   11346:	0685                	addi	a3,a3,1
   11348:	96be                	add	a3,a3,a5
   1134a:	0005c703          	lbu	a4,0(a1)
   1134e:	0785                	addi	a5,a5,1
   11350:	0585                	addi	a1,a1,1
   11352:	fee78fa3          	sb	a4,-1(a5)
   11356:	fed79ae3          	bne	a5,a3,1134a <memmove+0x36>
   1135a:	8082                	ret
   1135c:	00a5e7b3          	or	a5,a1,a0
   11360:	8b9d                	andi	a5,a5,7
   11362:	efad                	bnez	a5,113dc <memmove+0xc8>
   11364:	fe060893          	addi	a7,a2,-32
   11368:	fe08f893          	andi	a7,a7,-32
   1136c:	02088893          	addi	a7,a7,32
   11370:	01150833          	add	a6,a0,a7
   11374:	872e                	mv	a4,a1
   11376:	87aa                	mv	a5,a0
   11378:	6314                	ld	a3,0(a4)
   1137a:	02070713          	addi	a4,a4,32
   1137e:	02078793          	addi	a5,a5,32
   11382:	fed7b023          	sd	a3,-32(a5)
   11386:	fe873683          	ld	a3,-24(a4)
   1138a:	fed7b423          	sd	a3,-24(a5)
   1138e:	ff073683          	ld	a3,-16(a4)
   11392:	fed7b823          	sd	a3,-16(a5)
   11396:	ff873683          	ld	a3,-8(a4)
   1139a:	fed7bc23          	sd	a3,-8(a5)
   1139e:	fcf81de3          	bne	a6,a5,11378 <memmove+0x64>
   113a2:	01867713          	andi	a4,a2,24
   113a6:	95c6                	add	a1,a1,a7
   113a8:	01f67813          	andi	a6,a2,31
   113ac:	cf0d                	beqz	a4,113e6 <memmove+0xd2>
   113ae:	872e                	mv	a4,a1
   113b0:	88be                	mv	a7,a5
   113b2:	4e1d                	li	t3,7
   113b4:	00073303          	ld	t1,0(a4)
   113b8:	0721                	addi	a4,a4,8
   113ba:	40e806b3          	sub	a3,a6,a4
   113be:	0068b023          	sd	t1,0(a7)
   113c2:	96ae                	add	a3,a3,a1
   113c4:	08a1                	addi	a7,a7,8
   113c6:	fede67e3          	bltu	t3,a3,113b4 <memmove+0xa0>
   113ca:	ff880713          	addi	a4,a6,-8
   113ce:	9b61                	andi	a4,a4,-8
   113d0:	0721                	addi	a4,a4,8
   113d2:	8a1d                	andi	a2,a2,7
   113d4:	97ba                	add	a5,a5,a4
   113d6:	95ba                	add	a1,a1,a4
   113d8:	b7a5                	j	11340 <memmove+0x2c>
   113da:	8082                	ret
   113dc:	fff60693          	addi	a3,a2,-1
   113e0:	87aa                	mv	a5,a0
   113e2:	b795                	j	11346 <memmove+0x32>
   113e4:	8082                	ret
   113e6:	8642                	mv	a2,a6
   113e8:	bfa1                	j	11340 <memmove+0x2c>

00000000000113ea <__malloc_lock>:
   113ea:	8082                	ret

00000000000113ec <__malloc_unlock>:
   113ec:	8082                	ret

00000000000113ee <_realloc_r>:
   113ee:	715d                	addi	sp,sp,-80
   113f0:	f84a                	sd	s2,48(sp)
   113f2:	e486                	sd	ra,72(sp)
   113f4:	e0a2                	sd	s0,64(sp)
   113f6:	fc26                	sd	s1,56(sp)
   113f8:	f44e                	sd	s3,40(sp)
   113fa:	f052                	sd	s4,32(sp)
   113fc:	ec56                	sd	s5,24(sp)
   113fe:	e85a                	sd	s6,16(sp)
   11400:	e45e                	sd	s7,8(sp)
   11402:	e062                	sd	s8,0(sp)
   11404:	8932                	mv	s2,a2
   11406:	1a058163          	beqz	a1,115a8 <_realloc_r+0x1ba>
   1140a:	842e                	mv	s0,a1
   1140c:	8aaa                	mv	s5,a0
   1140e:	fddff0ef          	jal	ra,113ea <__malloc_lock>
   11412:	ff843703          	ld	a4,-8(s0)
   11416:	01790493          	addi	s1,s2,23
   1141a:	02e00793          	li	a5,46
   1141e:	ff040b13          	addi	s6,s0,-16
   11422:	ffc77a13          	andi	s4,a4,-4
   11426:	0a97ff63          	bgeu	a5,s1,114e4 <_realloc_r+0xf6>
   1142a:	800007b7          	lui	a5,0x80000
   1142e:	98c1                	andi	s1,s1,-16
   11430:	fff7c793          	not	a5,a5
   11434:	0a97ec63          	bltu	a5,s1,114ec <_realloc_r+0xfe>
   11438:	0b24ea63          	bltu	s1,s2,114ec <_realloc_r+0xfe>
   1143c:	014b09b3          	add	s3,s6,s4
   11440:	129a5263          	bge	s4,s1,11564 <_realloc_r+0x176>
   11444:	00003b97          	auipc	s7,0x3
   11448:	91cb8b93          	addi	s7,s7,-1764 # 13d60 <__malloc_av_>
   1144c:	010bb683          	ld	a3,16(s7)
   11450:	0089b783          	ld	a5,8(s3)
   11454:	19368b63          	beq	a3,s3,115ea <_realloc_r+0x1fc>
   11458:	ffe7f693          	andi	a3,a5,-2
   1145c:	96ce                	add	a3,a3,s3
   1145e:	6694                	ld	a3,8(a3)
   11460:	8a85                	andi	a3,a3,1
   11462:	12069863          	bnez	a3,11592 <_realloc_r+0x1a4>
   11466:	9bf1                	andi	a5,a5,-4
   11468:	00fa06b3          	add	a3,s4,a5
   1146c:	2496df63          	bge	a3,s1,116ca <_realloc_r+0x2dc>
   11470:	8b05                	andi	a4,a4,1
   11472:	e30d                	bnez	a4,11494 <_realloc_r+0xa6>
   11474:	ff043c03          	ld	s8,-16(s0)
   11478:	418b0c33          	sub	s8,s6,s8
   1147c:	008c3703          	ld	a4,8(s8)
   11480:	9b71                	andi	a4,a4,-4
   11482:	97ba                	add	a5,a5,a4
   11484:	01478bb3          	add	s7,a5,s4
   11488:	269bd663          	bge	s7,s1,116f4 <_realloc_r+0x306>
   1148c:	00ea0bb3          	add	s7,s4,a4
   11490:	069bdf63          	bge	s7,s1,1150e <_realloc_r+0x120>
   11494:	85ca                	mv	a1,s2
   11496:	8556                	mv	a0,s5
   11498:	edaff0ef          	jal	ra,10b72 <_malloc_r>
   1149c:	892a                	mv	s2,a0
   1149e:	cd1d                	beqz	a0,114dc <_realloc_r+0xee>
   114a0:	ff843783          	ld	a5,-8(s0)
   114a4:	ff050713          	addi	a4,a0,-16
   114a8:	9bf9                	andi	a5,a5,-2
   114aa:	97da                	add	a5,a5,s6
   114ac:	22e78963          	beq	a5,a4,116de <_realloc_r+0x2f0>
   114b0:	ff8a0613          	addi	a2,s4,-8
   114b4:	04800793          	li	a5,72
   114b8:	22c7ea63          	bltu	a5,a2,116ec <_realloc_r+0x2fe>
   114bc:	02700713          	li	a4,39
   114c0:	6014                	ld	a3,0(s0)
   114c2:	1cc76363          	bltu	a4,a2,11688 <_realloc_r+0x29a>
   114c6:	87aa                	mv	a5,a0
   114c8:	8722                	mv	a4,s0
   114ca:	e394                	sd	a3,0(a5)
   114cc:	6714                	ld	a3,8(a4)
   114ce:	e794                	sd	a3,8(a5)
   114d0:	6b18                	ld	a4,16(a4)
   114d2:	eb98                	sd	a4,16(a5)
   114d4:	85a2                	mv	a1,s0
   114d6:	8556                	mv	a0,s5
   114d8:	119000ef          	jal	ra,11df0 <_free_r>
   114dc:	8556                	mv	a0,s5
   114de:	f0fff0ef          	jal	ra,113ec <__malloc_unlock>
   114e2:	a809                	j	114f4 <_realloc_r+0x106>
   114e4:	02000493          	li	s1,32
   114e8:	f524fae3          	bgeu	s1,s2,1143c <_realloc_r+0x4e>
   114ec:	47b1                	li	a5,12
   114ee:	00faa023          	sw	a5,0(s5)
   114f2:	4901                	li	s2,0
   114f4:	60a6                	ld	ra,72(sp)
   114f6:	6406                	ld	s0,64(sp)
   114f8:	74e2                	ld	s1,56(sp)
   114fa:	79a2                	ld	s3,40(sp)
   114fc:	7a02                	ld	s4,32(sp)
   114fe:	6ae2                	ld	s5,24(sp)
   11500:	6b42                	ld	s6,16(sp)
   11502:	6ba2                	ld	s7,8(sp)
   11504:	6c02                	ld	s8,0(sp)
   11506:	854a                	mv	a0,s2
   11508:	7942                	ld	s2,48(sp)
   1150a:	6161                	addi	sp,sp,80
   1150c:	8082                	ret
   1150e:	018c3783          	ld	a5,24(s8)
   11512:	010c3703          	ld	a4,16(s8)
   11516:	ff8a0613          	addi	a2,s4,-8
   1151a:	04800693          	li	a3,72
   1151e:	ef1c                	sd	a5,24(a4)
   11520:	eb98                	sd	a4,16(a5)
   11522:	010c0913          	addi	s2,s8,16
   11526:	017c09b3          	add	s3,s8,s7
   1152a:	22c6ea63          	bltu	a3,a2,1175e <_realloc_r+0x370>
   1152e:	02700593          	li	a1,39
   11532:	6018                	ld	a4,0(s0)
   11534:	87ca                	mv	a5,s2
   11536:	00c5ff63          	bgeu	a1,a2,11554 <_realloc_r+0x166>
   1153a:	00ec3823          	sd	a4,16(s8)
   1153e:	6418                	ld	a4,8(s0)
   11540:	03700793          	li	a5,55
   11544:	00ec3c23          	sd	a4,24(s8)
   11548:	22c7ef63          	bltu	a5,a2,11786 <_realloc_r+0x398>
   1154c:	6818                	ld	a4,16(s0)
   1154e:	020c0793          	addi	a5,s8,32
   11552:	0441                	addi	s0,s0,16
   11554:	e398                	sd	a4,0(a5)
   11556:	6418                	ld	a4,8(s0)
   11558:	8a5e                	mv	s4,s7
   1155a:	8b62                	mv	s6,s8
   1155c:	e798                	sd	a4,8(a5)
   1155e:	6818                	ld	a4,16(s0)
   11560:	844a                	mv	s0,s2
   11562:	eb98                	sd	a4,16(a5)
   11564:	008b3783          	ld	a5,8(s6)
   11568:	409a0733          	sub	a4,s4,s1
   1156c:	46fd                	li	a3,31
   1156e:	8b85                	andi	a5,a5,1
   11570:	04e6ea63          	bltu	a3,a4,115c4 <_realloc_r+0x1d6>
   11574:	00fa67b3          	or	a5,s4,a5
   11578:	00fb3423          	sd	a5,8(s6)
   1157c:	0089b783          	ld	a5,8(s3)
   11580:	0017e793          	ori	a5,a5,1
   11584:	00f9b423          	sd	a5,8(s3)
   11588:	8556                	mv	a0,s5
   1158a:	e63ff0ef          	jal	ra,113ec <__malloc_unlock>
   1158e:	8922                	mv	s2,s0
   11590:	b795                	j	114f4 <_realloc_r+0x106>
   11592:	8b05                	andi	a4,a4,1
   11594:	f00710e3          	bnez	a4,11494 <_realloc_r+0xa6>
   11598:	ff043c03          	ld	s8,-16(s0)
   1159c:	418b0c33          	sub	s8,s6,s8
   115a0:	008c3703          	ld	a4,8(s8)
   115a4:	9b71                	andi	a4,a4,-4
   115a6:	b5dd                	j	1148c <_realloc_r+0x9e>
   115a8:	6406                	ld	s0,64(sp)
   115aa:	60a6                	ld	ra,72(sp)
   115ac:	74e2                	ld	s1,56(sp)
   115ae:	7942                	ld	s2,48(sp)
   115b0:	79a2                	ld	s3,40(sp)
   115b2:	7a02                	ld	s4,32(sp)
   115b4:	6ae2                	ld	s5,24(sp)
   115b6:	6b42                	ld	s6,16(sp)
   115b8:	6ba2                	ld	s7,8(sp)
   115ba:	6c02                	ld	s8,0(sp)
   115bc:	85b2                	mv	a1,a2
   115be:	6161                	addi	sp,sp,80
   115c0:	db2ff06f          	j	10b72 <_malloc_r>
   115c4:	8fc5                	or	a5,a5,s1
   115c6:	00fb3423          	sd	a5,8(s6)
   115ca:	009b05b3          	add	a1,s6,s1
   115ce:	00176713          	ori	a4,a4,1
   115d2:	e598                	sd	a4,8(a1)
   115d4:	0089b783          	ld	a5,8(s3)
   115d8:	05c1                	addi	a1,a1,16
   115da:	8556                	mv	a0,s5
   115dc:	0017e793          	ori	a5,a5,1
   115e0:	00f9b423          	sd	a5,8(s3)
   115e4:	00d000ef          	jal	ra,11df0 <_free_r>
   115e8:	b745                	j	11588 <_realloc_r+0x19a>
   115ea:	9bf1                	andi	a5,a5,-4
   115ec:	00fa06b3          	add	a3,s4,a5
   115f0:	02048613          	addi	a2,s1,32
   115f4:	0ac6d763          	bge	a3,a2,116a2 <_realloc_r+0x2b4>
   115f8:	8b05                	andi	a4,a4,1
   115fa:	e8071de3          	bnez	a4,11494 <_realloc_r+0xa6>
   115fe:	ff043c03          	ld	s8,-16(s0)
   11602:	418b0c33          	sub	s8,s6,s8
   11606:	008c3703          	ld	a4,8(s8)
   1160a:	9b71                	andi	a4,a4,-4
   1160c:	97ba                	add	a5,a5,a4
   1160e:	014789b3          	add	s3,a5,s4
   11612:	e6c9cde3          	blt	s3,a2,1148c <_realloc_r+0x9e>
   11616:	018c3783          	ld	a5,24(s8)
   1161a:	010c3703          	ld	a4,16(s8)
   1161e:	ff8a0613          	addi	a2,s4,-8
   11622:	04800693          	li	a3,72
   11626:	ef1c                	sd	a5,24(a4)
   11628:	eb98                	sd	a4,16(a5)
   1162a:	010c0913          	addi	s2,s8,16
   1162e:	18c6e963          	bltu	a3,a2,117c0 <_realloc_r+0x3d2>
   11632:	02700593          	li	a1,39
   11636:	6018                	ld	a4,0(s0)
   11638:	87ca                	mv	a5,s2
   1163a:	00c5ff63          	bgeu	a1,a2,11658 <_realloc_r+0x26a>
   1163e:	00ec3823          	sd	a4,16(s8)
   11642:	6418                	ld	a4,8(s0)
   11644:	03700793          	li	a5,55
   11648:	00ec3c23          	sd	a4,24(s8)
   1164c:	16c7ef63          	bltu	a5,a2,117ca <_realloc_r+0x3dc>
   11650:	6818                	ld	a4,16(s0)
   11652:	020c0793          	addi	a5,s8,32
   11656:	0441                	addi	s0,s0,16
   11658:	e398                	sd	a4,0(a5)
   1165a:	6418                	ld	a4,8(s0)
   1165c:	e798                	sd	a4,8(a5)
   1165e:	6818                	ld	a4,16(s0)
   11660:	eb98                	sd	a4,16(a5)
   11662:	009c0733          	add	a4,s8,s1
   11666:	409987b3          	sub	a5,s3,s1
   1166a:	00ebb823          	sd	a4,16(s7)
   1166e:	0017e793          	ori	a5,a5,1
   11672:	e71c                	sd	a5,8(a4)
   11674:	008c3783          	ld	a5,8(s8)
   11678:	8556                	mv	a0,s5
   1167a:	8b85                	andi	a5,a5,1
   1167c:	8cdd                	or	s1,s1,a5
   1167e:	009c3423          	sd	s1,8(s8)
   11682:	d6bff0ef          	jal	ra,113ec <__malloc_unlock>
   11686:	b5bd                	j	114f4 <_realloc_r+0x106>
   11688:	e114                	sd	a3,0(a0)
   1168a:	6414                	ld	a3,8(s0)
   1168c:	03700713          	li	a4,55
   11690:	e514                	sd	a3,8(a0)
   11692:	0cc76e63          	bltu	a4,a2,1176e <_realloc_r+0x380>
   11696:	6814                	ld	a3,16(s0)
   11698:	01040713          	addi	a4,s0,16
   1169c:	01050793          	addi	a5,a0,16
   116a0:	b52d                	j	114ca <_realloc_r+0xdc>
   116a2:	9b26                	add	s6,s6,s1
   116a4:	409687b3          	sub	a5,a3,s1
   116a8:	016bb823          	sd	s6,16(s7)
   116ac:	0017e793          	ori	a5,a5,1
   116b0:	00fb3423          	sd	a5,8(s6)
   116b4:	ff843783          	ld	a5,-8(s0)
   116b8:	8556                	mv	a0,s5
   116ba:	8922                	mv	s2,s0
   116bc:	8b85                	andi	a5,a5,1
   116be:	8cdd                	or	s1,s1,a5
   116c0:	fe943c23          	sd	s1,-8(s0)
   116c4:	d29ff0ef          	jal	ra,113ec <__malloc_unlock>
   116c8:	b535                	j	114f4 <_realloc_r+0x106>
   116ca:	0189b783          	ld	a5,24(s3)
   116ce:	0109b703          	ld	a4,16(s3)
   116d2:	8a36                	mv	s4,a3
   116d4:	00db09b3          	add	s3,s6,a3
   116d8:	ef1c                	sd	a5,24(a4)
   116da:	eb98                	sd	a4,16(a5)
   116dc:	b561                	j	11564 <_realloc_r+0x176>
   116de:	ff853783          	ld	a5,-8(a0)
   116e2:	9bf1                	andi	a5,a5,-4
   116e4:	9a3e                	add	s4,s4,a5
   116e6:	014b09b3          	add	s3,s6,s4
   116ea:	bdad                	j	11564 <_realloc_r+0x176>
   116ec:	85a2                	mv	a1,s0
   116ee:	c27ff0ef          	jal	ra,11314 <memmove>
   116f2:	b3cd                	j	114d4 <_realloc_r+0xe6>
   116f4:	0189b783          	ld	a5,24(s3)
   116f8:	0109b703          	ld	a4,16(s3)
   116fc:	ff8a0613          	addi	a2,s4,-8
   11700:	04800693          	li	a3,72
   11704:	ef1c                	sd	a5,24(a4)
   11706:	eb98                	sd	a4,16(a5)
   11708:	010c3703          	ld	a4,16(s8)
   1170c:	018c3783          	ld	a5,24(s8)
   11710:	010c0913          	addi	s2,s8,16
   11714:	017c09b3          	add	s3,s8,s7
   11718:	ef1c                	sd	a5,24(a4)
   1171a:	eb98                	sd	a4,16(a5)
   1171c:	04c6e163          	bltu	a3,a2,1175e <_realloc_r+0x370>
   11720:	02700693          	li	a3,39
   11724:	6018                	ld	a4,0(s0)
   11726:	87ca                	mv	a5,s2
   11728:	e2c6f6e3          	bgeu	a3,a2,11554 <_realloc_r+0x166>
   1172c:	00ec3823          	sd	a4,16(s8)
   11730:	6418                	ld	a4,8(s0)
   11732:	03700793          	li	a5,55
   11736:	00ec3c23          	sd	a4,24(s8)
   1173a:	6818                	ld	a4,16(s0)
   1173c:	e0c7f9e3          	bgeu	a5,a2,1154e <_realloc_r+0x160>
   11740:	02ec3023          	sd	a4,32(s8)
   11744:	6c18                	ld	a4,24(s0)
   11746:	04800793          	li	a5,72
   1174a:	02ec3423          	sd	a4,40(s8)
   1174e:	7018                	ld	a4,32(s0)
   11750:	04f60463          	beq	a2,a5,11798 <_realloc_r+0x3aa>
   11754:	030c0793          	addi	a5,s8,48
   11758:	02040413          	addi	s0,s0,32
   1175c:	bbe5                	j	11554 <_realloc_r+0x166>
   1175e:	85a2                	mv	a1,s0
   11760:	854a                	mv	a0,s2
   11762:	bb3ff0ef          	jal	ra,11314 <memmove>
   11766:	844a                	mv	s0,s2
   11768:	8a5e                	mv	s4,s7
   1176a:	8b62                	mv	s6,s8
   1176c:	bbe5                	j	11564 <_realloc_r+0x176>
   1176e:	6818                	ld	a4,16(s0)
   11770:	e918                	sd	a4,16(a0)
   11772:	6c18                	ld	a4,24(s0)
   11774:	ed18                	sd	a4,24(a0)
   11776:	7014                	ld	a3,32(s0)
   11778:	02f60b63          	beq	a2,a5,117ae <_realloc_r+0x3c0>
   1177c:	02040713          	addi	a4,s0,32
   11780:	02050793          	addi	a5,a0,32
   11784:	b399                	j	114ca <_realloc_r+0xdc>
   11786:	681c                	ld	a5,16(s0)
   11788:	02fc3023          	sd	a5,32(s8)
   1178c:	6c1c                	ld	a5,24(s0)
   1178e:	02fc3423          	sd	a5,40(s8)
   11792:	7018                	ld	a4,32(s0)
   11794:	fcd610e3          	bne	a2,a3,11754 <_realloc_r+0x366>
   11798:	02ec3823          	sd	a4,48(s8)
   1179c:	7418                	ld	a4,40(s0)
   1179e:	040c0793          	addi	a5,s8,64
   117a2:	03040413          	addi	s0,s0,48
   117a6:	02ec3c23          	sd	a4,56(s8)
   117aa:	6018                	ld	a4,0(s0)
   117ac:	b365                	j	11554 <_realloc_r+0x166>
   117ae:	f114                	sd	a3,32(a0)
   117b0:	7414                	ld	a3,40(s0)
   117b2:	03040713          	addi	a4,s0,48
   117b6:	03050793          	addi	a5,a0,48
   117ba:	f514                	sd	a3,40(a0)
   117bc:	7814                	ld	a3,48(s0)
   117be:	b331                	j	114ca <_realloc_r+0xdc>
   117c0:	85a2                	mv	a1,s0
   117c2:	854a                	mv	a0,s2
   117c4:	b51ff0ef          	jal	ra,11314 <memmove>
   117c8:	bd69                	j	11662 <_realloc_r+0x274>
   117ca:	681c                	ld	a5,16(s0)
   117cc:	02fc3023          	sd	a5,32(s8)
   117d0:	6c1c                	ld	a5,24(s0)
   117d2:	02fc3423          	sd	a5,40(s8)
   117d6:	7018                	ld	a4,32(s0)
   117d8:	00d60763          	beq	a2,a3,117e6 <_realloc_r+0x3f8>
   117dc:	030c0793          	addi	a5,s8,48
   117e0:	02040413          	addi	s0,s0,32
   117e4:	bd95                	j	11658 <_realloc_r+0x26a>
   117e6:	02ec3823          	sd	a4,48(s8)
   117ea:	7418                	ld	a4,40(s0)
   117ec:	040c0793          	addi	a5,s8,64
   117f0:	03040413          	addi	s0,s0,48
   117f4:	02ec3c23          	sd	a4,56(s8)
   117f8:	6018                	ld	a4,0(s0)
   117fa:	bdb9                	j	11658 <_realloc_r+0x26a>

00000000000117fc <_sbrk_r>:
   117fc:	1141                	addi	sp,sp,-16
   117fe:	e022                	sd	s0,0(sp)
   11800:	842a                	mv	s0,a0
   11802:	852e                	mv	a0,a1
   11804:	00003797          	auipc	a5,0x3
   11808:	e207a623          	sw	zero,-468(a5) # 14630 <errno>
   1180c:	e406                	sd	ra,8(sp)
   1180e:	4cf000ef          	jal	ra,124dc <_sbrk>
   11812:	57fd                	li	a5,-1
   11814:	00f50663          	beq	a0,a5,11820 <_sbrk_r+0x24>
   11818:	60a2                	ld	ra,8(sp)
   1181a:	6402                	ld	s0,0(sp)
   1181c:	0141                	addi	sp,sp,16
   1181e:	8082                	ret
   11820:	00003797          	auipc	a5,0x3
   11824:	e107a783          	lw	a5,-496(a5) # 14630 <errno>
   11828:	dbe5                	beqz	a5,11818 <_sbrk_r+0x1c>
   1182a:	60a2                	ld	ra,8(sp)
   1182c:	c01c                	sw	a5,0(s0)
   1182e:	6402                	ld	s0,0(sp)
   11830:	0141                	addi	sp,sp,16
   11832:	8082                	ret

0000000000011834 <__sread>:
   11834:	1141                	addi	sp,sp,-16
   11836:	e022                	sd	s0,0(sp)
   11838:	842e                	mv	s0,a1
   1183a:	01259583          	lh	a1,18(a1)
   1183e:	e406                	sd	ra,8(sp)
   11840:	17d000ef          	jal	ra,121bc <_read_r>
   11844:	00054963          	bltz	a0,11856 <__sread+0x22>
   11848:	685c                	ld	a5,144(s0)
   1184a:	60a2                	ld	ra,8(sp)
   1184c:	97aa                	add	a5,a5,a0
   1184e:	e85c                	sd	a5,144(s0)
   11850:	6402                	ld	s0,0(sp)
   11852:	0141                	addi	sp,sp,16
   11854:	8082                	ret
   11856:	01045783          	lhu	a5,16(s0)
   1185a:	777d                	lui	a4,0xfffff
   1185c:	177d                	addi	a4,a4,-1
   1185e:	8ff9                	and	a5,a5,a4
   11860:	60a2                	ld	ra,8(sp)
   11862:	00f41823          	sh	a5,16(s0)
   11866:	6402                	ld	s0,0(sp)
   11868:	0141                	addi	sp,sp,16
   1186a:	8082                	ret

000000000001186c <__seofread>:
   1186c:	4501                	li	a0,0
   1186e:	8082                	ret

0000000000011870 <__swrite>:
   11870:	01059783          	lh	a5,16(a1)
   11874:	7179                	addi	sp,sp,-48
   11876:	f022                	sd	s0,32(sp)
   11878:	ec26                	sd	s1,24(sp)
   1187a:	e84a                	sd	s2,16(sp)
   1187c:	e44e                	sd	s3,8(sp)
   1187e:	f406                	sd	ra,40(sp)
   11880:	1007f713          	andi	a4,a5,256
   11884:	842e                	mv	s0,a1
   11886:	84aa                	mv	s1,a0
   11888:	01259583          	lh	a1,18(a1)
   1188c:	8932                	mv	s2,a2
   1188e:	89b6                	mv	s3,a3
   11890:	e305                	bnez	a4,118b0 <__swrite+0x40>
   11892:	777d                	lui	a4,0xfffff
   11894:	177d                	addi	a4,a4,-1
   11896:	8ff9                	and	a5,a5,a4
   11898:	00f41823          	sh	a5,16(s0)
   1189c:	7402                	ld	s0,32(sp)
   1189e:	70a2                	ld	ra,40(sp)
   118a0:	86ce                	mv	a3,s3
   118a2:	864a                	mv	a2,s2
   118a4:	69a2                	ld	s3,8(sp)
   118a6:	6942                	ld	s2,16(sp)
   118a8:	8526                	mv	a0,s1
   118aa:	64e2                	ld	s1,24(sp)
   118ac:	6145                	addi	sp,sp,48
   118ae:	a8b1                	j	1190a <_write_r>
   118b0:	4689                	li	a3,2
   118b2:	4601                	li	a2,0
   118b4:	78c000ef          	jal	ra,12040 <_lseek_r>
   118b8:	01041783          	lh	a5,16(s0)
   118bc:	01241583          	lh	a1,18(s0)
   118c0:	bfc9                	j	11892 <__swrite+0x22>

00000000000118c2 <__sseek>:
   118c2:	1141                	addi	sp,sp,-16
   118c4:	e022                	sd	s0,0(sp)
   118c6:	842e                	mv	s0,a1
   118c8:	01259583          	lh	a1,18(a1)
   118cc:	e406                	sd	ra,8(sp)
   118ce:	772000ef          	jal	ra,12040 <_lseek_r>
   118d2:	57fd                	li	a5,-1
   118d4:	00f50d63          	beq	a0,a5,118ee <__sseek+0x2c>
   118d8:	01045783          	lhu	a5,16(s0)
   118dc:	6705                	lui	a4,0x1
   118de:	60a2                	ld	ra,8(sp)
   118e0:	8fd9                	or	a5,a5,a4
   118e2:	e848                	sd	a0,144(s0)
   118e4:	00f41823          	sh	a5,16(s0)
   118e8:	6402                	ld	s0,0(sp)
   118ea:	0141                	addi	sp,sp,16
   118ec:	8082                	ret
   118ee:	01045783          	lhu	a5,16(s0)
   118f2:	777d                	lui	a4,0xfffff
   118f4:	177d                	addi	a4,a4,-1
   118f6:	8ff9                	and	a5,a5,a4
   118f8:	60a2                	ld	ra,8(sp)
   118fa:	00f41823          	sh	a5,16(s0)
   118fe:	6402                	ld	s0,0(sp)
   11900:	0141                	addi	sp,sp,16
   11902:	8082                	ret

0000000000011904 <__sclose>:
   11904:	01259583          	lh	a1,18(a1)
   11908:	aa2d                	j	11a42 <_close_r>

000000000001190a <_write_r>:
   1190a:	1141                	addi	sp,sp,-16
   1190c:	872e                	mv	a4,a1
   1190e:	e022                	sd	s0,0(sp)
   11910:	85b2                	mv	a1,a2
   11912:	842a                	mv	s0,a0
   11914:	8636                	mv	a2,a3
   11916:	853a                	mv	a0,a4
   11918:	00003797          	auipc	a5,0x3
   1191c:	d007ac23          	sw	zero,-744(a5) # 14630 <errno>
   11920:	e406                	sd	ra,8(sp)
   11922:	425000ef          	jal	ra,12546 <_write>
   11926:	57fd                	li	a5,-1
   11928:	00f50663          	beq	a0,a5,11934 <_write_r+0x2a>
   1192c:	60a2                	ld	ra,8(sp)
   1192e:	6402                	ld	s0,0(sp)
   11930:	0141                	addi	sp,sp,16
   11932:	8082                	ret
   11934:	00003797          	auipc	a5,0x3
   11938:	cfc7a783          	lw	a5,-772(a5) # 14630 <errno>
   1193c:	dbe5                	beqz	a5,1192c <_write_r+0x22>
   1193e:	60a2                	ld	ra,8(sp)
   11940:	c01c                	sw	a5,0(s0)
   11942:	6402                	ld	s0,0(sp)
   11944:	0141                	addi	sp,sp,16
   11946:	8082                	ret

0000000000011948 <__swsetup_r>:
   11948:	1101                	addi	sp,sp,-32
   1194a:	e822                	sd	s0,16(sp)
   1194c:	e426                	sd	s1,8(sp)
   1194e:	ec06                	sd	ra,24(sp)
   11950:	7601b783          	ld	a5,1888(gp) # 14598 <_impure_ptr>
   11954:	84aa                	mv	s1,a0
   11956:	842e                	mv	s0,a1
   11958:	c399                	beqz	a5,1195e <__swsetup_r+0x16>
   1195a:	4bb8                	lw	a4,80(a5)
   1195c:	cf49                	beqz	a4,119f6 <__swsetup_r+0xae>
   1195e:	01041703          	lh	a4,16(s0)
   11962:	03071793          	slli	a5,a4,0x30
   11966:	00877693          	andi	a3,a4,8
   1196a:	93c1                	srli	a5,a5,0x30
   1196c:	c29d                	beqz	a3,11992 <__swsetup_r+0x4a>
   1196e:	6c14                	ld	a3,24(s0)
   11970:	ce9d                	beqz	a3,119ae <__swsetup_r+0x66>
   11972:	0017f613          	andi	a2,a5,1
   11976:	ce39                	beqz	a2,119d4 <__swsetup_r+0x8c>
   11978:	5010                	lw	a2,32(s0)
   1197a:	00042623          	sw	zero,12(s0)
   1197e:	4501                	li	a0,0
   11980:	40c0063b          	negw	a2,a2
   11984:	d410                	sw	a2,40(s0)
   11986:	ceb9                	beqz	a3,119e4 <__swsetup_r+0x9c>
   11988:	60e2                	ld	ra,24(sp)
   1198a:	6442                	ld	s0,16(sp)
   1198c:	64a2                	ld	s1,8(sp)
   1198e:	6105                	addi	sp,sp,32
   11990:	8082                	ret
   11992:	0107f693          	andi	a3,a5,16
   11996:	cac1                	beqz	a3,11a26 <__swsetup_r+0xde>
   11998:	8b91                	andi	a5,a5,4
   1199a:	e3b5                	bnez	a5,119fe <__swsetup_r+0xb6>
   1199c:	6c14                	ld	a3,24(s0)
   1199e:	00876713          	ori	a4,a4,8
   119a2:	03071793          	slli	a5,a4,0x30
   119a6:	00e41823          	sh	a4,16(s0)
   119aa:	93c1                	srli	a5,a5,0x30
   119ac:	f2f9                	bnez	a3,11972 <__swsetup_r+0x2a>
   119ae:	2807f613          	andi	a2,a5,640
   119b2:	20000593          	li	a1,512
   119b6:	fab60ee3          	beq	a2,a1,11972 <__swsetup_r+0x2a>
   119ba:	85a2                	mv	a1,s0
   119bc:	8526                	mv	a0,s1
   119be:	742000ef          	jal	ra,12100 <__smakebuf_r>
   119c2:	01041703          	lh	a4,16(s0)
   119c6:	6c14                	ld	a3,24(s0)
   119c8:	03071793          	slli	a5,a4,0x30
   119cc:	93c1                	srli	a5,a5,0x30
   119ce:	0017f613          	andi	a2,a5,1
   119d2:	f25d                	bnez	a2,11978 <__swsetup_r+0x30>
   119d4:	0027f613          	andi	a2,a5,2
   119d8:	4581                	li	a1,0
   119da:	e211                	bnez	a2,119de <__swsetup_r+0x96>
   119dc:	500c                	lw	a1,32(s0)
   119de:	c44c                	sw	a1,12(s0)
   119e0:	4501                	li	a0,0
   119e2:	f2dd                	bnez	a3,11988 <__swsetup_r+0x40>
   119e4:	0807f793          	andi	a5,a5,128
   119e8:	d3c5                	beqz	a5,11988 <__swsetup_r+0x40>
   119ea:	04076713          	ori	a4,a4,64
   119ee:	00e41823          	sh	a4,16(s0)
   119f2:	557d                	li	a0,-1
   119f4:	bf51                	j	11988 <__swsetup_r+0x40>
   119f6:	853e                	mv	a0,a5
   119f8:	ce1fe0ef          	jal	ra,106d8 <__sinit>
   119fc:	b78d                	j	1195e <__swsetup_r+0x16>
   119fe:	6c2c                	ld	a1,88(s0)
   11a00:	cd81                	beqz	a1,11a18 <__swsetup_r+0xd0>
   11a02:	07440793          	addi	a5,s0,116
   11a06:	00f58763          	beq	a1,a5,11a14 <__swsetup_r+0xcc>
   11a0a:	8526                	mv	a0,s1
   11a0c:	3e4000ef          	jal	ra,11df0 <_free_r>
   11a10:	01041703          	lh	a4,16(s0)
   11a14:	04043c23          	sd	zero,88(s0)
   11a18:	6c14                	ld	a3,24(s0)
   11a1a:	fdb77713          	andi	a4,a4,-37
   11a1e:	00042423          	sw	zero,8(s0)
   11a22:	e014                	sd	a3,0(s0)
   11a24:	bfad                	j	1199e <__swsetup_r+0x56>
   11a26:	47a5                	li	a5,9
   11a28:	c09c                	sw	a5,0(s1)
   11a2a:	04076713          	ori	a4,a4,64
   11a2e:	00e41823          	sh	a4,16(s0)
   11a32:	557d                	li	a0,-1
   11a34:	bf91                	j	11988 <__swsetup_r+0x40>

0000000000011a36 <atexit>:
   11a36:	85aa                	mv	a1,a0
   11a38:	4681                	li	a3,0
   11a3a:	4601                	li	a2,0
   11a3c:	4501                	li	a0,0
   11a3e:	0810006f          	j	122be <__register_exitproc>

0000000000011a42 <_close_r>:
   11a42:	1141                	addi	sp,sp,-16
   11a44:	e022                	sd	s0,0(sp)
   11a46:	842a                	mv	s0,a0
   11a48:	852e                	mv	a0,a1
   11a4a:	00003797          	auipc	a5,0x3
   11a4e:	be07a323          	sw	zero,-1050(a5) # 14630 <errno>
   11a52:	e406                	sd	ra,8(sp)
   11a54:	155000ef          	jal	ra,123a8 <_close>
   11a58:	57fd                	li	a5,-1
   11a5a:	00f50663          	beq	a0,a5,11a66 <_close_r+0x24>
   11a5e:	60a2                	ld	ra,8(sp)
   11a60:	6402                	ld	s0,0(sp)
   11a62:	0141                	addi	sp,sp,16
   11a64:	8082                	ret
   11a66:	00003797          	auipc	a5,0x3
   11a6a:	bca7a783          	lw	a5,-1078(a5) # 14630 <errno>
   11a6e:	dbe5                	beqz	a5,11a5e <_close_r+0x1c>
   11a70:	60a2                	ld	ra,8(sp)
   11a72:	c01c                	sw	a5,0(s0)
   11a74:	6402                	ld	s0,0(sp)
   11a76:	0141                	addi	sp,sp,16
   11a78:	8082                	ret

0000000000011a7a <_fclose_r>:
   11a7a:	1101                	addi	sp,sp,-32
   11a7c:	ec06                	sd	ra,24(sp)
   11a7e:	e822                	sd	s0,16(sp)
   11a80:	e426                	sd	s1,8(sp)
   11a82:	e04a                	sd	s2,0(sp)
   11a84:	c989                	beqz	a1,11a96 <_fclose_r+0x1c>
   11a86:	842e                	mv	s0,a1
   11a88:	84aa                	mv	s1,a0
   11a8a:	c119                	beqz	a0,11a90 <_fclose_r+0x16>
   11a8c:	493c                	lw	a5,80(a0)
   11a8e:	cfa5                	beqz	a5,11b06 <_fclose_r+0x8c>
   11a90:	01041783          	lh	a5,16(s0)
   11a94:	eb89                	bnez	a5,11aa6 <_fclose_r+0x2c>
   11a96:	60e2                	ld	ra,24(sp)
   11a98:	6442                	ld	s0,16(sp)
   11a9a:	4901                	li	s2,0
   11a9c:	64a2                	ld	s1,8(sp)
   11a9e:	854a                	mv	a0,s2
   11aa0:	6902                	ld	s2,0(sp)
   11aa2:	6105                	addi	sp,sp,32
   11aa4:	8082                	ret
   11aa6:	85a2                	mv	a1,s0
   11aa8:	8526                	mv	a0,s1
   11aaa:	086000ef          	jal	ra,11b30 <__sflush_r>
   11aae:	683c                	ld	a5,80(s0)
   11ab0:	892a                	mv	s2,a0
   11ab2:	c791                	beqz	a5,11abe <_fclose_r+0x44>
   11ab4:	780c                	ld	a1,48(s0)
   11ab6:	8526                	mv	a0,s1
   11ab8:	9782                	jalr	a5
   11aba:	04054c63          	bltz	a0,11b12 <_fclose_r+0x98>
   11abe:	01045783          	lhu	a5,16(s0)
   11ac2:	0807f793          	andi	a5,a5,128
   11ac6:	efa1                	bnez	a5,11b1e <_fclose_r+0xa4>
   11ac8:	6c2c                	ld	a1,88(s0)
   11aca:	c991                	beqz	a1,11ade <_fclose_r+0x64>
   11acc:	07440793          	addi	a5,s0,116
   11ad0:	00f58563          	beq	a1,a5,11ada <_fclose_r+0x60>
   11ad4:	8526                	mv	a0,s1
   11ad6:	31a000ef          	jal	ra,11df0 <_free_r>
   11ada:	04043c23          	sd	zero,88(s0)
   11ade:	7c2c                	ld	a1,120(s0)
   11ae0:	c591                	beqz	a1,11aec <_fclose_r+0x72>
   11ae2:	8526                	mv	a0,s1
   11ae4:	30c000ef          	jal	ra,11df0 <_free_r>
   11ae8:	06043c23          	sd	zero,120(s0)
   11aec:	bf5fe0ef          	jal	ra,106e0 <__sfp_lock_acquire>
   11af0:	00041823          	sh	zero,16(s0)
   11af4:	beffe0ef          	jal	ra,106e2 <__sfp_lock_release>
   11af8:	60e2                	ld	ra,24(sp)
   11afa:	6442                	ld	s0,16(sp)
   11afc:	64a2                	ld	s1,8(sp)
   11afe:	854a                	mv	a0,s2
   11b00:	6902                	ld	s2,0(sp)
   11b02:	6105                	addi	sp,sp,32
   11b04:	8082                	ret
   11b06:	bd3fe0ef          	jal	ra,106d8 <__sinit>
   11b0a:	01041783          	lh	a5,16(s0)
   11b0e:	d7c1                	beqz	a5,11a96 <_fclose_r+0x1c>
   11b10:	bf59                	j	11aa6 <_fclose_r+0x2c>
   11b12:	01045783          	lhu	a5,16(s0)
   11b16:	597d                	li	s2,-1
   11b18:	0807f793          	andi	a5,a5,128
   11b1c:	d7d5                	beqz	a5,11ac8 <_fclose_r+0x4e>
   11b1e:	6c0c                	ld	a1,24(s0)
   11b20:	8526                	mv	a0,s1
   11b22:	2ce000ef          	jal	ra,11df0 <_free_r>
   11b26:	b74d                	j	11ac8 <_fclose_r+0x4e>

0000000000011b28 <fclose>:
   11b28:	85aa                	mv	a1,a0
   11b2a:	7601b503          	ld	a0,1888(gp) # 14598 <_impure_ptr>
   11b2e:	b7b1                	j	11a7a <_fclose_r>

0000000000011b30 <__sflush_r>:
   11b30:	01059783          	lh	a5,16(a1)
   11b34:	7179                	addi	sp,sp,-48
   11b36:	f022                	sd	s0,32(sp)
   11b38:	e44e                	sd	s3,8(sp)
   11b3a:	f406                	sd	ra,40(sp)
   11b3c:	ec26                	sd	s1,24(sp)
   11b3e:	e84a                	sd	s2,16(sp)
   11b40:	0087f693          	andi	a3,a5,8
   11b44:	842e                	mv	s0,a1
   11b46:	89aa                	mv	s3,a0
   11b48:	eecd                	bnez	a3,11c02 <__sflush_r+0xd2>
   11b4a:	6705                	lui	a4,0x1
   11b4c:	80070713          	addi	a4,a4,-2048 # 800 <register_fini-0xf8b0>
   11b50:	4594                	lw	a3,8(a1)
   11b52:	8fd9                	or	a5,a5,a4
   11b54:	00f59823          	sh	a5,16(a1)
   11b58:	10d05363          	blez	a3,11c5e <__sflush_r+0x12e>
   11b5c:	6438                	ld	a4,72(s0)
   11b5e:	cb51                	beqz	a4,11bf2 <__sflush_r+0xc2>
   11b60:	0009a483          	lw	s1,0(s3)
   11b64:	03079693          	slli	a3,a5,0x30
   11b68:	0009a023          	sw	zero,0(s3)
   11b6c:	03379613          	slli	a2,a5,0x33
   11b70:	780c                	ld	a1,48(s0)
   11b72:	92c1                	srli	a3,a3,0x30
   11b74:	0e064963          	bltz	a2,11c66 <__sflush_r+0x136>
   11b78:	4601                	li	a2,0
   11b7a:	4685                	li	a3,1
   11b7c:	854e                	mv	a0,s3
   11b7e:	9702                	jalr	a4
   11b80:	57fd                	li	a5,-1
   11b82:	862a                	mv	a2,a0
   11b84:	10f50963          	beq	a0,a5,11c96 <__sflush_r+0x166>
   11b88:	01045683          	lhu	a3,16(s0)
   11b8c:	6438                	ld	a4,72(s0)
   11b8e:	780c                	ld	a1,48(s0)
   11b90:	8a91                	andi	a3,a3,4
   11b92:	c699                	beqz	a3,11ba0 <__sflush_r+0x70>
   11b94:	4414                	lw	a3,8(s0)
   11b96:	6c3c                	ld	a5,88(s0)
   11b98:	8e15                	sub	a2,a2,a3
   11b9a:	c399                	beqz	a5,11ba0 <__sflush_r+0x70>
   11b9c:	583c                	lw	a5,112(s0)
   11b9e:	8e1d                	sub	a2,a2,a5
   11ba0:	4681                	li	a3,0
   11ba2:	854e                	mv	a0,s3
   11ba4:	9702                	jalr	a4
   11ba6:	57fd                	li	a5,-1
   11ba8:	0cf51163          	bne	a0,a5,11c6a <__sflush_r+0x13a>
   11bac:	0009a703          	lw	a4,0(s3)
   11bb0:	01041783          	lh	a5,16(s0)
   11bb4:	0e070f63          	beqz	a4,11cb2 <__sflush_r+0x182>
   11bb8:	46f5                	li	a3,29
   11bba:	00d70563          	beq	a4,a3,11bc4 <__sflush_r+0x94>
   11bbe:	46d9                	li	a3,22
   11bc0:	0ed71f63          	bne	a4,a3,11cbe <__sflush_r+0x18e>
   11bc4:	6c14                	ld	a3,24(s0)
   11bc6:	777d                	lui	a4,0xfffff
   11bc8:	7ff70713          	addi	a4,a4,2047 # fffffffffffff7ff <__BSS_END__+0xfffffffffffeb1c7>
   11bcc:	8ff9                	and	a5,a5,a4
   11bce:	00f41823          	sh	a5,16(s0)
   11bd2:	00042423          	sw	zero,8(s0)
   11bd6:	e014                	sd	a3,0(s0)
   11bd8:	6c2c                	ld	a1,88(s0)
   11bda:	0099a023          	sw	s1,0(s3)
   11bde:	c991                	beqz	a1,11bf2 <__sflush_r+0xc2>
   11be0:	07440793          	addi	a5,s0,116
   11be4:	00f58563          	beq	a1,a5,11bee <__sflush_r+0xbe>
   11be8:	854e                	mv	a0,s3
   11bea:	206000ef          	jal	ra,11df0 <_free_r>
   11bee:	04043c23          	sd	zero,88(s0)
   11bf2:	4501                	li	a0,0
   11bf4:	70a2                	ld	ra,40(sp)
   11bf6:	7402                	ld	s0,32(sp)
   11bf8:	64e2                	ld	s1,24(sp)
   11bfa:	6942                	ld	s2,16(sp)
   11bfc:	69a2                	ld	s3,8(sp)
   11bfe:	6145                	addi	sp,sp,48
   11c00:	8082                	ret
   11c02:	0185b903          	ld	s2,24(a1)
   11c06:	fe0906e3          	beqz	s2,11bf2 <__sflush_r+0xc2>
   11c0a:	6184                	ld	s1,0(a1)
   11c0c:	03079713          	slli	a4,a5,0x30
   11c10:	9341                	srli	a4,a4,0x30
   11c12:	8b0d                	andi	a4,a4,3
   11c14:	0125b023          	sd	s2,0(a1)
   11c18:	412484bb          	subw	s1,s1,s2
   11c1c:	4781                	li	a5,0
   11c1e:	e311                	bnez	a4,11c22 <__sflush_r+0xf2>
   11c20:	519c                	lw	a5,32(a1)
   11c22:	c45c                	sw	a5,12(s0)
   11c24:	00904663          	bgtz	s1,11c30 <__sflush_r+0x100>
   11c28:	b7e9                	j	11bf2 <__sflush_r+0xc2>
   11c2a:	992a                	add	s2,s2,a0
   11c2c:	fc9053e3          	blez	s1,11bf2 <__sflush_r+0xc2>
   11c30:	603c                	ld	a5,64(s0)
   11c32:	780c                	ld	a1,48(s0)
   11c34:	86a6                	mv	a3,s1
   11c36:	864a                	mv	a2,s2
   11c38:	854e                	mv	a0,s3
   11c3a:	9782                	jalr	a5
   11c3c:	9c89                	subw	s1,s1,a0
   11c3e:	fea046e3          	bgtz	a0,11c2a <__sflush_r+0xfa>
   11c42:	01045783          	lhu	a5,16(s0)
   11c46:	70a2                	ld	ra,40(sp)
   11c48:	64e2                	ld	s1,24(sp)
   11c4a:	0407e793          	ori	a5,a5,64
   11c4e:	00f41823          	sh	a5,16(s0)
   11c52:	7402                	ld	s0,32(sp)
   11c54:	6942                	ld	s2,16(sp)
   11c56:	69a2                	ld	s3,8(sp)
   11c58:	557d                	li	a0,-1
   11c5a:	6145                	addi	sp,sp,48
   11c5c:	8082                	ret
   11c5e:	59b8                	lw	a4,112(a1)
   11c60:	eee04ee3          	bgtz	a4,11b5c <__sflush_r+0x2c>
   11c64:	b779                	j	11bf2 <__sflush_r+0xc2>
   11c66:	6850                	ld	a2,144(s0)
   11c68:	b725                	j	11b90 <__sflush_r+0x60>
   11c6a:	01045783          	lhu	a5,16(s0)
   11c6e:	777d                	lui	a4,0xfffff
   11c70:	7ff70713          	addi	a4,a4,2047 # fffffffffffff7ff <__BSS_END__+0xfffffffffffeb1c7>
   11c74:	8ff9                	and	a5,a5,a4
   11c76:	6c14                	ld	a3,24(s0)
   11c78:	0107979b          	slliw	a5,a5,0x10
   11c7c:	4107d79b          	sraiw	a5,a5,0x10
   11c80:	00f41823          	sh	a5,16(s0)
   11c84:	00042423          	sw	zero,8(s0)
   11c88:	e014                	sd	a3,0(s0)
   11c8a:	03379713          	slli	a4,a5,0x33
   11c8e:	f40755e3          	bgez	a4,11bd8 <__sflush_r+0xa8>
   11c92:	e848                	sd	a0,144(s0)
   11c94:	b791                	j	11bd8 <__sflush_r+0xa8>
   11c96:	0009a783          	lw	a5,0(s3)
   11c9a:	ee0787e3          	beqz	a5,11b88 <__sflush_r+0x58>
   11c9e:	4775                	li	a4,29
   11ca0:	00e78563          	beq	a5,a4,11caa <__sflush_r+0x17a>
   11ca4:	4759                	li	a4,22
   11ca6:	f8e79ee3          	bne	a5,a4,11c42 <__sflush_r+0x112>
   11caa:	0099a023          	sw	s1,0(s3)
   11cae:	4501                	li	a0,0
   11cb0:	b791                	j	11bf4 <__sflush_r+0xc4>
   11cb2:	777d                	lui	a4,0xfffff
   11cb4:	7ff70713          	addi	a4,a4,2047 # fffffffffffff7ff <__BSS_END__+0xfffffffffffeb1c7>
   11cb8:	6c14                	ld	a3,24(s0)
   11cba:	8ff9                	and	a5,a5,a4
   11cbc:	b7d1                	j	11c80 <__sflush_r+0x150>
   11cbe:	0407e793          	ori	a5,a5,64
   11cc2:	00f41823          	sh	a5,16(s0)
   11cc6:	557d                	li	a0,-1
   11cc8:	b735                	j	11bf4 <__sflush_r+0xc4>

0000000000011cca <_fflush_r>:
   11cca:	1101                	addi	sp,sp,-32
   11ccc:	e822                	sd	s0,16(sp)
   11cce:	ec06                	sd	ra,24(sp)
   11cd0:	842a                	mv	s0,a0
   11cd2:	c119                	beqz	a0,11cd8 <_fflush_r+0xe>
   11cd4:	493c                	lw	a5,80(a0)
   11cd6:	cb89                	beqz	a5,11ce8 <_fflush_r+0x1e>
   11cd8:	01059783          	lh	a5,16(a1)
   11cdc:	ef89                	bnez	a5,11cf6 <_fflush_r+0x2c>
   11cde:	60e2                	ld	ra,24(sp)
   11ce0:	6442                	ld	s0,16(sp)
   11ce2:	4501                	li	a0,0
   11ce4:	6105                	addi	sp,sp,32
   11ce6:	8082                	ret
   11ce8:	e42e                	sd	a1,8(sp)
   11cea:	9effe0ef          	jal	ra,106d8 <__sinit>
   11cee:	65a2                	ld	a1,8(sp)
   11cf0:	01059783          	lh	a5,16(a1)
   11cf4:	d7ed                	beqz	a5,11cde <_fflush_r+0x14>
   11cf6:	8522                	mv	a0,s0
   11cf8:	6442                	ld	s0,16(sp)
   11cfa:	60e2                	ld	ra,24(sp)
   11cfc:	6105                	addi	sp,sp,32
   11cfe:	bd0d                	j	11b30 <__sflush_r>

0000000000011d00 <fflush>:
   11d00:	85aa                	mv	a1,a0
   11d02:	c501                	beqz	a0,11d0a <fflush+0xa>
   11d04:	7601b503          	ld	a0,1888(gp) # 14598 <_impure_ptr>
   11d08:	b7c9                	j	11cca <_fflush_r>
   11d0a:	00000597          	auipc	a1,0x0
   11d0e:	fc058593          	addi	a1,a1,-64 # 11cca <_fflush_r>
   11d12:	7501b503          	ld	a0,1872(gp) # 14588 <_global_impure_ptr>
   11d16:	dd3fe06f          	j	10ae8 <_fwalk_reent>

0000000000011d1a <_malloc_trim_r>:
   11d1a:	7179                	addi	sp,sp,-48
   11d1c:	f022                	sd	s0,32(sp)
   11d1e:	ec26                	sd	s1,24(sp)
   11d20:	e84a                	sd	s2,16(sp)
   11d22:	e44e                	sd	s3,8(sp)
   11d24:	e052                	sd	s4,0(sp)
   11d26:	89ae                	mv	s3,a1
   11d28:	f406                	sd	ra,40(sp)
   11d2a:	00002a17          	auipc	s4,0x2
   11d2e:	036a0a13          	addi	s4,s4,54 # 13d60 <__malloc_av_>
   11d32:	892a                	mv	s2,a0
   11d34:	eb6ff0ef          	jal	ra,113ea <__malloc_lock>
   11d38:	010a3703          	ld	a4,16(s4)
   11d3c:	6785                	lui	a5,0x1
   11d3e:	fdf78413          	addi	s0,a5,-33 # fdf <register_fini-0xf0d1>
   11d42:	6704                	ld	s1,8(a4)
   11d44:	41340433          	sub	s0,s0,s3
   11d48:	98f1                	andi	s1,s1,-4
   11d4a:	9426                	add	s0,s0,s1
   11d4c:	8031                	srli	s0,s0,0xc
   11d4e:	147d                	addi	s0,s0,-1
   11d50:	0432                	slli	s0,s0,0xc
   11d52:	00f44b63          	blt	s0,a5,11d68 <_malloc_trim_r+0x4e>
   11d56:	4581                	li	a1,0
   11d58:	854a                	mv	a0,s2
   11d5a:	aa3ff0ef          	jal	ra,117fc <_sbrk_r>
   11d5e:	010a3783          	ld	a5,16(s4)
   11d62:	97a6                	add	a5,a5,s1
   11d64:	00f50e63          	beq	a0,a5,11d80 <_malloc_trim_r+0x66>
   11d68:	854a                	mv	a0,s2
   11d6a:	e82ff0ef          	jal	ra,113ec <__malloc_unlock>
   11d6e:	70a2                	ld	ra,40(sp)
   11d70:	7402                	ld	s0,32(sp)
   11d72:	64e2                	ld	s1,24(sp)
   11d74:	6942                	ld	s2,16(sp)
   11d76:	69a2                	ld	s3,8(sp)
   11d78:	6a02                	ld	s4,0(sp)
   11d7a:	4501                	li	a0,0
   11d7c:	6145                	addi	sp,sp,48
   11d7e:	8082                	ret
   11d80:	408005b3          	neg	a1,s0
   11d84:	854a                	mv	a0,s2
   11d86:	a77ff0ef          	jal	ra,117fc <_sbrk_r>
   11d8a:	57fd                	li	a5,-1
   11d8c:	02f50c63          	beq	a0,a5,11dc4 <_malloc_trim_r+0xaa>
   11d90:	00003717          	auipc	a4,0x3
   11d94:	87870713          	addi	a4,a4,-1928 # 14608 <__malloc_current_mallinfo>
   11d98:	431c                	lw	a5,0(a4)
   11d9a:	010a3683          	ld	a3,16(s4)
   11d9e:	8c81                	sub	s1,s1,s0
   11da0:	0014e493          	ori	s1,s1,1
   11da4:	4087843b          	subw	s0,a5,s0
   11da8:	854a                	mv	a0,s2
   11daa:	e684                	sd	s1,8(a3)
   11dac:	c300                	sw	s0,0(a4)
   11dae:	e3eff0ef          	jal	ra,113ec <__malloc_unlock>
   11db2:	70a2                	ld	ra,40(sp)
   11db4:	7402                	ld	s0,32(sp)
   11db6:	64e2                	ld	s1,24(sp)
   11db8:	6942                	ld	s2,16(sp)
   11dba:	69a2                	ld	s3,8(sp)
   11dbc:	6a02                	ld	s4,0(sp)
   11dbe:	4505                	li	a0,1
   11dc0:	6145                	addi	sp,sp,48
   11dc2:	8082                	ret
   11dc4:	4581                	li	a1,0
   11dc6:	854a                	mv	a0,s2
   11dc8:	a35ff0ef          	jal	ra,117fc <_sbrk_r>
   11dcc:	010a3703          	ld	a4,16(s4)
   11dd0:	46fd                	li	a3,31
   11dd2:	40e507b3          	sub	a5,a0,a4
   11dd6:	f8f6d9e3          	bge	a3,a5,11d68 <_malloc_trim_r+0x4e>
   11dda:	7681b683          	ld	a3,1896(gp) # 145a0 <__malloc_sbrk_base>
   11dde:	8d15                	sub	a0,a0,a3
   11de0:	0017e793          	ori	a5,a5,1
   11de4:	00003697          	auipc	a3,0x3
   11de8:	82a6a223          	sw	a0,-2012(a3) # 14608 <__malloc_current_mallinfo>
   11dec:	e71c                	sd	a5,8(a4)
   11dee:	bfad                	j	11d68 <_malloc_trim_r+0x4e>

0000000000011df0 <_free_r>:
   11df0:	c5f5                	beqz	a1,11edc <_free_r+0xec>
   11df2:	1101                	addi	sp,sp,-32
   11df4:	e822                	sd	s0,16(sp)
   11df6:	e426                	sd	s1,8(sp)
   11df8:	842e                	mv	s0,a1
   11dfa:	84aa                	mv	s1,a0
   11dfc:	ec06                	sd	ra,24(sp)
   11dfe:	decff0ef          	jal	ra,113ea <__malloc_lock>
   11e02:	ff843583          	ld	a1,-8(s0)
   11e06:	ff040713          	addi	a4,s0,-16
   11e0a:	00002517          	auipc	a0,0x2
   11e0e:	f5650513          	addi	a0,a0,-170 # 13d60 <__malloc_av_>
   11e12:	ffe5f793          	andi	a5,a1,-2
   11e16:	00f70633          	add	a2,a4,a5
   11e1a:	6614                	ld	a3,8(a2)
   11e1c:	01053803          	ld	a6,16(a0)
   11e20:	9af1                	andi	a3,a3,-4
   11e22:	14c80063          	beq	a6,a2,11f62 <_free_r+0x172>
   11e26:	e614                	sd	a3,8(a2)
   11e28:	8985                	andi	a1,a1,1
   11e2a:	00d60833          	add	a6,a2,a3
   11e2e:	e1c1                	bnez	a1,11eae <_free_r+0xbe>
   11e30:	ff043303          	ld	t1,-16(s0)
   11e34:	00883583          	ld	a1,8(a6)
   11e38:	00002897          	auipc	a7,0x2
   11e3c:	f3888893          	addi	a7,a7,-200 # 13d70 <__malloc_av_+0x10>
   11e40:	40670733          	sub	a4,a4,t1
   11e44:	01073803          	ld	a6,16(a4)
   11e48:	979a                	add	a5,a5,t1
   11e4a:	8985                	andi	a1,a1,1
   11e4c:	0f180863          	beq	a6,a7,11f3c <_free_r+0x14c>
   11e50:	01873303          	ld	t1,24(a4)
   11e54:	00683c23          	sd	t1,24(a6)
   11e58:	01033823          	sd	a6,16(t1)
   11e5c:	14058d63          	beqz	a1,11fb6 <_free_r+0x1c6>
   11e60:	0017e693          	ori	a3,a5,1
   11e64:	e714                	sd	a3,8(a4)
   11e66:	e21c                	sd	a5,0(a2)
   11e68:	1ff00693          	li	a3,511
   11e6c:	08f6e263          	bltu	a3,a5,11ef0 <_free_r+0x100>
   11e70:	838d                	srli	a5,a5,0x3
   11e72:	0017869b          	addiw	a3,a5,1
   11e76:	0016969b          	slliw	a3,a3,0x1
   11e7a:	068e                	slli	a3,a3,0x3
   11e7c:	00853803          	ld	a6,8(a0)
   11e80:	96aa                	add	a3,a3,a0
   11e82:	628c                	ld	a1,0(a3)
   11e84:	4027d61b          	sraiw	a2,a5,0x2
   11e88:	4785                	li	a5,1
   11e8a:	00c797b3          	sll	a5,a5,a2
   11e8e:	0107e7b3          	or	a5,a5,a6
   11e92:	ff068613          	addi	a2,a3,-16
   11e96:	ef10                	sd	a2,24(a4)
   11e98:	eb0c                	sd	a1,16(a4)
   11e9a:	e51c                	sd	a5,8(a0)
   11e9c:	e298                	sd	a4,0(a3)
   11e9e:	ed98                	sd	a4,24(a1)
   11ea0:	6442                	ld	s0,16(sp)
   11ea2:	60e2                	ld	ra,24(sp)
   11ea4:	8526                	mv	a0,s1
   11ea6:	64a2                	ld	s1,8(sp)
   11ea8:	6105                	addi	sp,sp,32
   11eaa:	d42ff06f          	j	113ec <__malloc_unlock>
   11eae:	00883583          	ld	a1,8(a6)
   11eb2:	8985                	andi	a1,a1,1
   11eb4:	e58d                	bnez	a1,11ede <_free_r+0xee>
   11eb6:	97b6                	add	a5,a5,a3
   11eb8:	00002897          	auipc	a7,0x2
   11ebc:	eb888893          	addi	a7,a7,-328 # 13d70 <__malloc_av_+0x10>
   11ec0:	6a14                	ld	a3,16(a2)
   11ec2:	0017e813          	ori	a6,a5,1
   11ec6:	00f705b3          	add	a1,a4,a5
   11eca:	11168063          	beq	a3,a7,11fca <_free_r+0x1da>
   11ece:	6e10                	ld	a2,24(a2)
   11ed0:	ee90                	sd	a2,24(a3)
   11ed2:	ea14                	sd	a3,16(a2)
   11ed4:	01073423          	sd	a6,8(a4)
   11ed8:	e19c                	sd	a5,0(a1)
   11eda:	b779                	j	11e68 <_free_r+0x78>
   11edc:	8082                	ret
   11ede:	0017e693          	ori	a3,a5,1
   11ee2:	fed43c23          	sd	a3,-8(s0)
   11ee6:	e21c                	sd	a5,0(a2)
   11ee8:	1ff00693          	li	a3,511
   11eec:	f8f6f2e3          	bgeu	a3,a5,11e70 <_free_r+0x80>
   11ef0:	0097d693          	srli	a3,a5,0x9
   11ef4:	4611                	li	a2,4
   11ef6:	08d66f63          	bltu	a2,a3,11f94 <_free_r+0x1a4>
   11efa:	0067d693          	srli	a3,a5,0x6
   11efe:	0396859b          	addiw	a1,a3,57
   11f02:	0015959b          	slliw	a1,a1,0x1
   11f06:	0386861b          	addiw	a2,a3,56
   11f0a:	058e                	slli	a1,a1,0x3
   11f0c:	95aa                	add	a1,a1,a0
   11f0e:	6194                	ld	a3,0(a1)
   11f10:	15c1                	addi	a1,a1,-16
   11f12:	0cd58663          	beq	a1,a3,11fde <_free_r+0x1ee>
   11f16:	6690                	ld	a2,8(a3)
   11f18:	9a71                	andi	a2,a2,-4
   11f1a:	00c7f563          	bgeu	a5,a2,11f24 <_free_r+0x134>
   11f1e:	6a94                	ld	a3,16(a3)
   11f20:	fed59be3          	bne	a1,a3,11f16 <_free_r+0x126>
   11f24:	6e8c                	ld	a1,24(a3)
   11f26:	ef0c                	sd	a1,24(a4)
   11f28:	eb14                	sd	a3,16(a4)
   11f2a:	6442                	ld	s0,16(sp)
   11f2c:	60e2                	ld	ra,24(sp)
   11f2e:	e998                	sd	a4,16(a1)
   11f30:	8526                	mv	a0,s1
   11f32:	64a2                	ld	s1,8(sp)
   11f34:	ee98                	sd	a4,24(a3)
   11f36:	6105                	addi	sp,sp,32
   11f38:	cb4ff06f          	j	113ec <__malloc_unlock>
   11f3c:	0e059d63          	bnez	a1,12036 <_free_r+0x246>
   11f40:	6e0c                	ld	a1,24(a2)
   11f42:	6a10                	ld	a2,16(a2)
   11f44:	97b6                	add	a5,a5,a3
   11f46:	6442                	ld	s0,16(sp)
   11f48:	ee0c                	sd	a1,24(a2)
   11f4a:	e990                	sd	a2,16(a1)
   11f4c:	0017e693          	ori	a3,a5,1
   11f50:	60e2                	ld	ra,24(sp)
   11f52:	e714                	sd	a3,8(a4)
   11f54:	8526                	mv	a0,s1
   11f56:	973e                	add	a4,a4,a5
   11f58:	64a2                	ld	s1,8(sp)
   11f5a:	e31c                	sd	a5,0(a4)
   11f5c:	6105                	addi	sp,sp,32
   11f5e:	c8eff06f          	j	113ec <__malloc_unlock>
   11f62:	8985                	andi	a1,a1,1
   11f64:	97b6                	add	a5,a5,a3
   11f66:	e989                	bnez	a1,11f78 <_free_r+0x188>
   11f68:	ff043583          	ld	a1,-16(s0)
   11f6c:	8f0d                	sub	a4,a4,a1
   11f6e:	6f14                	ld	a3,24(a4)
   11f70:	6b10                	ld	a2,16(a4)
   11f72:	97ae                	add	a5,a5,a1
   11f74:	ee14                	sd	a3,24(a2)
   11f76:	ea90                	sd	a2,16(a3)
   11f78:	0017e693          	ori	a3,a5,1
   11f7c:	e714                	sd	a3,8(a4)
   11f7e:	e918                	sd	a4,16(a0)
   11f80:	7701b703          	ld	a4,1904(gp) # 145a8 <__malloc_trim_threshold>
   11f84:	f0e7eee3          	bltu	a5,a4,11ea0 <_free_r+0xb0>
   11f88:	7881b583          	ld	a1,1928(gp) # 145c0 <__malloc_top_pad>
   11f8c:	8526                	mv	a0,s1
   11f8e:	d8dff0ef          	jal	ra,11d1a <_malloc_trim_r>
   11f92:	b739                	j	11ea0 <_free_r+0xb0>
   11f94:	4651                	li	a2,20
   11f96:	02d67263          	bgeu	a2,a3,11fba <_free_r+0x1ca>
   11f9a:	05400613          	li	a2,84
   11f9e:	04d66b63          	bltu	a2,a3,11ff4 <_free_r+0x204>
   11fa2:	00c7d693          	srli	a3,a5,0xc
   11fa6:	06f6859b          	addiw	a1,a3,111
   11faa:	0015959b          	slliw	a1,a1,0x1
   11fae:	06e6861b          	addiw	a2,a3,110
   11fb2:	058e                	slli	a1,a1,0x3
   11fb4:	bfa1                	j	11f0c <_free_r+0x11c>
   11fb6:	97b6                	add	a5,a5,a3
   11fb8:	b721                	j	11ec0 <_free_r+0xd0>
   11fba:	05c6859b          	addiw	a1,a3,92
   11fbe:	0015959b          	slliw	a1,a1,0x1
   11fc2:	05b6861b          	addiw	a2,a3,91
   11fc6:	058e                	slli	a1,a1,0x3
   11fc8:	b791                	j	11f0c <_free_r+0x11c>
   11fca:	f518                	sd	a4,40(a0)
   11fcc:	f118                	sd	a4,32(a0)
   11fce:	01173c23          	sd	a7,24(a4)
   11fd2:	01173823          	sd	a7,16(a4)
   11fd6:	01073423          	sd	a6,8(a4)
   11fda:	e19c                	sd	a5,0(a1)
   11fdc:	b5d1                	j	11ea0 <_free_r+0xb0>
   11fde:	00853803          	ld	a6,8(a0)
   11fe2:	4026561b          	sraiw	a2,a2,0x2
   11fe6:	4785                	li	a5,1
   11fe8:	00c79633          	sll	a2,a5,a2
   11fec:	01066633          	or	a2,a2,a6
   11ff0:	e510                	sd	a2,8(a0)
   11ff2:	bf15                	j	11f26 <_free_r+0x136>
   11ff4:	15400613          	li	a2,340
   11ff8:	00d66c63          	bltu	a2,a3,12010 <_free_r+0x220>
   11ffc:	00f7d693          	srli	a3,a5,0xf
   12000:	0786859b          	addiw	a1,a3,120
   12004:	0015959b          	slliw	a1,a1,0x1
   12008:	0776861b          	addiw	a2,a3,119
   1200c:	058e                	slli	a1,a1,0x3
   1200e:	bdfd                	j	11f0c <_free_r+0x11c>
   12010:	55400613          	li	a2,1364
   12014:	00d66c63          	bltu	a2,a3,1202c <_free_r+0x23c>
   12018:	0127d693          	srli	a3,a5,0x12
   1201c:	07d6859b          	addiw	a1,a3,125
   12020:	0015959b          	slliw	a1,a1,0x1
   12024:	07c6861b          	addiw	a2,a3,124
   12028:	058e                	slli	a1,a1,0x3
   1202a:	b5cd                	j	11f0c <_free_r+0x11c>
   1202c:	7f000593          	li	a1,2032
   12030:	07e00613          	li	a2,126
   12034:	bde1                	j	11f0c <_free_r+0x11c>
   12036:	0017e693          	ori	a3,a5,1
   1203a:	e714                	sd	a3,8(a4)
   1203c:	e21c                	sd	a5,0(a2)
   1203e:	b58d                	j	11ea0 <_free_r+0xb0>

0000000000012040 <_lseek_r>:
   12040:	1141                	addi	sp,sp,-16
   12042:	872e                	mv	a4,a1
   12044:	e022                	sd	s0,0(sp)
   12046:	85b2                	mv	a1,a2
   12048:	842a                	mv	s0,a0
   1204a:	8636                	mv	a2,a3
   1204c:	853a                	mv	a0,a4
   1204e:	00002797          	auipc	a5,0x2
   12052:	5e07a123          	sw	zero,1506(a5) # 14630 <errno>
   12056:	e406                	sd	ra,8(sp)
   12058:	420000ef          	jal	ra,12478 <_lseek>
   1205c:	57fd                	li	a5,-1
   1205e:	00f50663          	beq	a0,a5,1206a <_lseek_r+0x2a>
   12062:	60a2                	ld	ra,8(sp)
   12064:	6402                	ld	s0,0(sp)
   12066:	0141                	addi	sp,sp,16
   12068:	8082                	ret
   1206a:	00002797          	auipc	a5,0x2
   1206e:	5c67a783          	lw	a5,1478(a5) # 14630 <errno>
   12072:	dbe5                	beqz	a5,12062 <_lseek_r+0x22>
   12074:	60a2                	ld	ra,8(sp)
   12076:	c01c                	sw	a5,0(s0)
   12078:	6402                	ld	s0,0(sp)
   1207a:	0141                	addi	sp,sp,16
   1207c:	8082                	ret

000000000001207e <__swhatbuf_r>:
   1207e:	7175                	addi	sp,sp,-144
   12080:	e122                	sd	s0,128(sp)
   12082:	842e                	mv	s0,a1
   12084:	01259583          	lh	a1,18(a1)
   12088:	fca6                	sd	s1,120(sp)
   1208a:	f8ca                	sd	s2,112(sp)
   1208c:	e506                	sd	ra,136(sp)
   1208e:	84b2                	mv	s1,a2
   12090:	8936                	mv	s2,a3
   12092:	0205cc63          	bltz	a1,120ca <__swhatbuf_r+0x4c>
   12096:	0030                	addi	a2,sp,8
   12098:	29c000ef          	jal	ra,12334 <_fstat_r>
   1209c:	02054763          	bltz	a0,120ca <__swhatbuf_r+0x4c>
   120a0:	47b2                	lw	a5,12(sp)
   120a2:	673d                	lui	a4,0xf
   120a4:	60aa                	ld	ra,136(sp)
   120a6:	8ff9                	and	a5,a5,a4
   120a8:	6709                	lui	a4,0x2
   120aa:	8f99                	sub	a5,a5,a4
   120ac:	640a                	ld	s0,128(sp)
   120ae:	0017b793          	seqz	a5,a5
   120b2:	00f92023          	sw	a5,0(s2)
   120b6:	40000793          	li	a5,1024
   120ba:	e09c                	sd	a5,0(s1)
   120bc:	6505                	lui	a0,0x1
   120be:	74e6                	ld	s1,120(sp)
   120c0:	7946                	ld	s2,112(sp)
   120c2:	80050513          	addi	a0,a0,-2048 # 800 <register_fini-0xf8b0>
   120c6:	6149                	addi	sp,sp,144
   120c8:	8082                	ret
   120ca:	01045783          	lhu	a5,16(s0)
   120ce:	00092023          	sw	zero,0(s2)
   120d2:	0807f793          	andi	a5,a5,128
   120d6:	cb99                	beqz	a5,120ec <__swhatbuf_r+0x6e>
   120d8:	60aa                	ld	ra,136(sp)
   120da:	640a                	ld	s0,128(sp)
   120dc:	04000793          	li	a5,64
   120e0:	e09c                	sd	a5,0(s1)
   120e2:	7946                	ld	s2,112(sp)
   120e4:	74e6                	ld	s1,120(sp)
   120e6:	4501                	li	a0,0
   120e8:	6149                	addi	sp,sp,144
   120ea:	8082                	ret
   120ec:	60aa                	ld	ra,136(sp)
   120ee:	640a                	ld	s0,128(sp)
   120f0:	40000793          	li	a5,1024
   120f4:	e09c                	sd	a5,0(s1)
   120f6:	7946                	ld	s2,112(sp)
   120f8:	74e6                	ld	s1,120(sp)
   120fa:	4501                	li	a0,0
   120fc:	6149                	addi	sp,sp,144
   120fe:	8082                	ret

0000000000012100 <__smakebuf_r>:
   12100:	0105d783          	lhu	a5,16(a1)
   12104:	7179                	addi	sp,sp,-48
   12106:	f022                	sd	s0,32(sp)
   12108:	f406                	sd	ra,40(sp)
   1210a:	ec26                	sd	s1,24(sp)
   1210c:	e84a                	sd	s2,16(sp)
   1210e:	8b89                	andi	a5,a5,2
   12110:	842e                	mv	s0,a1
   12112:	cf89                	beqz	a5,1212c <__smakebuf_r+0x2c>
   12114:	07758793          	addi	a5,a1,119
   12118:	e19c                	sd	a5,0(a1)
   1211a:	ed9c                	sd	a5,24(a1)
   1211c:	4785                	li	a5,1
   1211e:	d19c                	sw	a5,32(a1)
   12120:	70a2                	ld	ra,40(sp)
   12122:	7402                	ld	s0,32(sp)
   12124:	64e2                	ld	s1,24(sp)
   12126:	6942                	ld	s2,16(sp)
   12128:	6145                	addi	sp,sp,48
   1212a:	8082                	ret
   1212c:	0054                	addi	a3,sp,4
   1212e:	0030                	addi	a2,sp,8
   12130:	84aa                	mv	s1,a0
   12132:	f4dff0ef          	jal	ra,1207e <__swhatbuf_r>
   12136:	65a2                	ld	a1,8(sp)
   12138:	892a                	mv	s2,a0
   1213a:	8526                	mv	a0,s1
   1213c:	a37fe0ef          	jal	ra,10b72 <_malloc_r>
   12140:	01041783          	lh	a5,16(s0)
   12144:	c915                	beqz	a0,12178 <__smakebuf_r+0x78>
   12146:	ffffe697          	auipc	a3,0xffffe
   1214a:	35268693          	addi	a3,a3,850 # 10498 <_cleanup_r>
   1214e:	ecb4                	sd	a3,88(s1)
   12150:	66a2                	ld	a3,8(sp)
   12152:	4712                	lw	a4,4(sp)
   12154:	0807e793          	ori	a5,a5,128
   12158:	00f41823          	sh	a5,16(s0)
   1215c:	e008                	sd	a0,0(s0)
   1215e:	ec08                	sd	a0,24(s0)
   12160:	d014                	sw	a3,32(s0)
   12162:	eb15                	bnez	a4,12196 <__smakebuf_r+0x96>
   12164:	0127e7b3          	or	a5,a5,s2
   12168:	70a2                	ld	ra,40(sp)
   1216a:	00f41823          	sh	a5,16(s0)
   1216e:	7402                	ld	s0,32(sp)
   12170:	64e2                	ld	s1,24(sp)
   12172:	6942                	ld	s2,16(sp)
   12174:	6145                	addi	sp,sp,48
   12176:	8082                	ret
   12178:	2007f713          	andi	a4,a5,512
   1217c:	f355                	bnez	a4,12120 <__smakebuf_r+0x20>
   1217e:	9bf1                	andi	a5,a5,-4
   12180:	0027e793          	ori	a5,a5,2
   12184:	07740713          	addi	a4,s0,119
   12188:	00f41823          	sh	a5,16(s0)
   1218c:	4785                	li	a5,1
   1218e:	e018                	sd	a4,0(s0)
   12190:	ec18                	sd	a4,24(s0)
   12192:	d01c                	sw	a5,32(s0)
   12194:	b771                	j	12120 <__smakebuf_r+0x20>
   12196:	01241583          	lh	a1,18(s0)
   1219a:	8526                	mv	a0,s1
   1219c:	1d4000ef          	jal	ra,12370 <_isatty_r>
   121a0:	e501                	bnez	a0,121a8 <__smakebuf_r+0xa8>
   121a2:	01041783          	lh	a5,16(s0)
   121a6:	bf7d                	j	12164 <__smakebuf_r+0x64>
   121a8:	01045703          	lhu	a4,16(s0)
   121ac:	9b71                	andi	a4,a4,-4
   121ae:	00176713          	ori	a4,a4,1
   121b2:	0107179b          	slliw	a5,a4,0x10
   121b6:	4107d79b          	sraiw	a5,a5,0x10
   121ba:	b76d                	j	12164 <__smakebuf_r+0x64>

00000000000121bc <_read_r>:
   121bc:	1141                	addi	sp,sp,-16
   121be:	872e                	mv	a4,a1
   121c0:	e022                	sd	s0,0(sp)
   121c2:	85b2                	mv	a1,a2
   121c4:	842a                	mv	s0,a0
   121c6:	8636                	mv	a2,a3
   121c8:	853a                	mv	a0,a4
   121ca:	00002797          	auipc	a5,0x2
   121ce:	4607a323          	sw	zero,1126(a5) # 14630 <errno>
   121d2:	e406                	sd	ra,8(sp)
   121d4:	2d6000ef          	jal	ra,124aa <_read>
   121d8:	57fd                	li	a5,-1
   121da:	00f50663          	beq	a0,a5,121e6 <_read_r+0x2a>
   121de:	60a2                	ld	ra,8(sp)
   121e0:	6402                	ld	s0,0(sp)
   121e2:	0141                	addi	sp,sp,16
   121e4:	8082                	ret
   121e6:	00002797          	auipc	a5,0x2
   121ea:	44a7a783          	lw	a5,1098(a5) # 14630 <errno>
   121ee:	dbe5                	beqz	a5,121de <_read_r+0x22>
   121f0:	60a2                	ld	ra,8(sp)
   121f2:	c01c                	sw	a5,0(s0)
   121f4:	6402                	ld	s0,0(sp)
   121f6:	0141                	addi	sp,sp,16
   121f8:	8082                	ret

00000000000121fa <cleanup_glue>:
   121fa:	1101                	addi	sp,sp,-32
   121fc:	e822                	sd	s0,16(sp)
   121fe:	842e                	mv	s0,a1
   12200:	618c                	ld	a1,0(a1)
   12202:	e426                	sd	s1,8(sp)
   12204:	ec06                	sd	ra,24(sp)
   12206:	84aa                	mv	s1,a0
   12208:	c199                	beqz	a1,1220e <cleanup_glue+0x14>
   1220a:	ff1ff0ef          	jal	ra,121fa <cleanup_glue>
   1220e:	85a2                	mv	a1,s0
   12210:	6442                	ld	s0,16(sp)
   12212:	60e2                	ld	ra,24(sp)
   12214:	8526                	mv	a0,s1
   12216:	64a2                	ld	s1,8(sp)
   12218:	6105                	addi	sp,sp,32
   1221a:	bed9                	j	11df0 <_free_r>

000000000001221c <_reclaim_reent>:
   1221c:	7601b783          	ld	a5,1888(gp) # 14598 <_impure_ptr>
   12220:	08a78e63          	beq	a5,a0,122bc <_reclaim_reent+0xa0>
   12224:	7d2c                	ld	a1,120(a0)
   12226:	7179                	addi	sp,sp,-48
   12228:	ec26                	sd	s1,24(sp)
   1222a:	f406                	sd	ra,40(sp)
   1222c:	f022                	sd	s0,32(sp)
   1222e:	e84a                	sd	s2,16(sp)
   12230:	e44e                	sd	s3,8(sp)
   12232:	84aa                	mv	s1,a0
   12234:	c58d                	beqz	a1,1225e <_reclaim_reent+0x42>
   12236:	4901                	li	s2,0
   12238:	20000993          	li	s3,512
   1223c:	012587b3          	add	a5,a1,s2
   12240:	6380                	ld	s0,0(a5)
   12242:	c801                	beqz	s0,12252 <_reclaim_reent+0x36>
   12244:	85a2                	mv	a1,s0
   12246:	6000                	ld	s0,0(s0)
   12248:	8526                	mv	a0,s1
   1224a:	ba7ff0ef          	jal	ra,11df0 <_free_r>
   1224e:	f87d                	bnez	s0,12244 <_reclaim_reent+0x28>
   12250:	7cac                	ld	a1,120(s1)
   12252:	0921                	addi	s2,s2,8
   12254:	ff3914e3          	bne	s2,s3,1223c <_reclaim_reent+0x20>
   12258:	8526                	mv	a0,s1
   1225a:	b97ff0ef          	jal	ra,11df0 <_free_r>
   1225e:	70ac                	ld	a1,96(s1)
   12260:	c581                	beqz	a1,12268 <_reclaim_reent+0x4c>
   12262:	8526                	mv	a0,s1
   12264:	b8dff0ef          	jal	ra,11df0 <_free_r>
   12268:	1f84b403          	ld	s0,504(s1)
   1226c:	cc01                	beqz	s0,12284 <_reclaim_reent+0x68>
   1226e:	20048913          	addi	s2,s1,512
   12272:	01240963          	beq	s0,s2,12284 <_reclaim_reent+0x68>
   12276:	85a2                	mv	a1,s0
   12278:	6000                	ld	s0,0(s0)
   1227a:	8526                	mv	a0,s1
   1227c:	b75ff0ef          	jal	ra,11df0 <_free_r>
   12280:	fe891be3          	bne	s2,s0,12276 <_reclaim_reent+0x5a>
   12284:	64cc                	ld	a1,136(s1)
   12286:	c581                	beqz	a1,1228e <_reclaim_reent+0x72>
   12288:	8526                	mv	a0,s1
   1228a:	b67ff0ef          	jal	ra,11df0 <_free_r>
   1228e:	48bc                	lw	a5,80(s1)
   12290:	cf99                	beqz	a5,122ae <_reclaim_reent+0x92>
   12292:	6cbc                	ld	a5,88(s1)
   12294:	8526                	mv	a0,s1
   12296:	9782                	jalr	a5
   12298:	5204b583          	ld	a1,1312(s1)
   1229c:	c989                	beqz	a1,122ae <_reclaim_reent+0x92>
   1229e:	7402                	ld	s0,32(sp)
   122a0:	70a2                	ld	ra,40(sp)
   122a2:	6942                	ld	s2,16(sp)
   122a4:	69a2                	ld	s3,8(sp)
   122a6:	8526                	mv	a0,s1
   122a8:	64e2                	ld	s1,24(sp)
   122aa:	6145                	addi	sp,sp,48
   122ac:	b7b9                	j	121fa <cleanup_glue>
   122ae:	70a2                	ld	ra,40(sp)
   122b0:	7402                	ld	s0,32(sp)
   122b2:	64e2                	ld	s1,24(sp)
   122b4:	6942                	ld	s2,16(sp)
   122b6:	69a2                	ld	s3,8(sp)
   122b8:	6145                	addi	sp,sp,48
   122ba:	8082                	ret
   122bc:	8082                	ret

00000000000122be <__register_exitproc>:
   122be:	7501b703          	ld	a4,1872(gp) # 14588 <_global_impure_ptr>
   122c2:	1f873783          	ld	a5,504(a4) # 21f8 <register_fini-0xdeb8>
   122c6:	c3b1                	beqz	a5,1230a <__register_exitproc+0x4c>
   122c8:	4798                	lw	a4,8(a5)
   122ca:	487d                	li	a6,31
   122cc:	06e84263          	blt	a6,a4,12330 <__register_exitproc+0x72>
   122d0:	c505                	beqz	a0,122f8 <__register_exitproc+0x3a>
   122d2:	00371813          	slli	a6,a4,0x3
   122d6:	983e                	add	a6,a6,a5
   122d8:	10c83823          	sd	a2,272(a6)
   122dc:	3107a883          	lw	a7,784(a5)
   122e0:	4605                	li	a2,1
   122e2:	00e6163b          	sllw	a2,a2,a4
   122e6:	00c8e8b3          	or	a7,a7,a2
   122ea:	3117a823          	sw	a7,784(a5)
   122ee:	20d83823          	sd	a3,528(a6)
   122f2:	4689                	li	a3,2
   122f4:	02d50063          	beq	a0,a3,12314 <__register_exitproc+0x56>
   122f8:	00270693          	addi	a3,a4,2
   122fc:	068e                	slli	a3,a3,0x3
   122fe:	2705                	addiw	a4,a4,1
   12300:	c798                	sw	a4,8(a5)
   12302:	97b6                	add	a5,a5,a3
   12304:	e38c                	sd	a1,0(a5)
   12306:	4501                	li	a0,0
   12308:	8082                	ret
   1230a:	20070793          	addi	a5,a4,512
   1230e:	1ef73c23          	sd	a5,504(a4)
   12312:	bf5d                	j	122c8 <__register_exitproc+0xa>
   12314:	3147a683          	lw	a3,788(a5)
   12318:	4501                	li	a0,0
   1231a:	8e55                	or	a2,a2,a3
   1231c:	00270693          	addi	a3,a4,2
   12320:	068e                	slli	a3,a3,0x3
   12322:	2705                	addiw	a4,a4,1
   12324:	30c7aa23          	sw	a2,788(a5)
   12328:	c798                	sw	a4,8(a5)
   1232a:	97b6                	add	a5,a5,a3
   1232c:	e38c                	sd	a1,0(a5)
   1232e:	8082                	ret
   12330:	557d                	li	a0,-1
   12332:	8082                	ret

0000000000012334 <_fstat_r>:
   12334:	1141                	addi	sp,sp,-16
   12336:	872e                	mv	a4,a1
   12338:	e022                	sd	s0,0(sp)
   1233a:	85b2                	mv	a1,a2
   1233c:	842a                	mv	s0,a0
   1233e:	853a                	mv	a0,a4
   12340:	00002797          	auipc	a5,0x2
   12344:	2e07a823          	sw	zero,752(a5) # 14630 <errno>
   12348:	e406                	sd	ra,8(sp)
   1234a:	0c0000ef          	jal	ra,1240a <_fstat>
   1234e:	57fd                	li	a5,-1
   12350:	00f50663          	beq	a0,a5,1235c <_fstat_r+0x28>
   12354:	60a2                	ld	ra,8(sp)
   12356:	6402                	ld	s0,0(sp)
   12358:	0141                	addi	sp,sp,16
   1235a:	8082                	ret
   1235c:	00002797          	auipc	a5,0x2
   12360:	2d47a783          	lw	a5,724(a5) # 14630 <errno>
   12364:	dbe5                	beqz	a5,12354 <_fstat_r+0x20>
   12366:	60a2                	ld	ra,8(sp)
   12368:	c01c                	sw	a5,0(s0)
   1236a:	6402                	ld	s0,0(sp)
   1236c:	0141                	addi	sp,sp,16
   1236e:	8082                	ret

0000000000012370 <_isatty_r>:
   12370:	1141                	addi	sp,sp,-16
   12372:	e022                	sd	s0,0(sp)
   12374:	842a                	mv	s0,a0
   12376:	852e                	mv	a0,a1
   12378:	00002797          	auipc	a5,0x2
   1237c:	2a07ac23          	sw	zero,696(a5) # 14630 <errno>
   12380:	e406                	sd	ra,8(sp)
   12382:	0d0000ef          	jal	ra,12452 <_isatty>
   12386:	57fd                	li	a5,-1
   12388:	00f50663          	beq	a0,a5,12394 <_isatty_r+0x24>
   1238c:	60a2                	ld	ra,8(sp)
   1238e:	6402                	ld	s0,0(sp)
   12390:	0141                	addi	sp,sp,16
   12392:	8082                	ret
   12394:	00002797          	auipc	a5,0x2
   12398:	29c7a783          	lw	a5,668(a5) # 14630 <errno>
   1239c:	dbe5                	beqz	a5,1238c <_isatty_r+0x1c>
   1239e:	60a2                	ld	ra,8(sp)
   123a0:	c01c                	sw	a5,0(s0)
   123a2:	6402                	ld	s0,0(sp)
   123a4:	0141                	addi	sp,sp,16
   123a6:	8082                	ret

00000000000123a8 <_close>:
   123a8:	1141                	addi	sp,sp,-16
   123aa:	e406                	sd	ra,8(sp)
   123ac:	e022                	sd	s0,0(sp)
   123ae:	4581                	li	a1,0
   123b0:	4601                	li	a2,0
   123b2:	4681                	li	a3,0
   123b4:	4701                	li	a4,0
   123b6:	4781                	li	a5,0
   123b8:	03900893          	li	a7,57
   123bc:	00000073          	ecall
   123c0:	842a                	mv	s0,a0
   123c2:	00054763          	bltz	a0,123d0 <_close+0x28>
   123c6:	2501                	sext.w	a0,a0
   123c8:	60a2                	ld	ra,8(sp)
   123ca:	6402                	ld	s0,0(sp)
   123cc:	0141                	addi	sp,sp,16
   123ce:	8082                	ret
   123d0:	202000ef          	jal	ra,125d2 <__errno>
   123d4:	4080043b          	negw	s0,s0
   123d8:	c100                	sw	s0,0(a0)
   123da:	557d                	li	a0,-1
   123dc:	b7f5                	j	123c8 <_close+0x20>

00000000000123de <_exit>:
   123de:	4581                	li	a1,0
   123e0:	4601                	li	a2,0
   123e2:	4681                	li	a3,0
   123e4:	4701                	li	a4,0
   123e6:	4781                	li	a5,0
   123e8:	05d00893          	li	a7,93
   123ec:	00000073          	ecall
   123f0:	00054363          	bltz	a0,123f6 <_exit+0x18>
   123f4:	a001                	j	123f4 <_exit+0x16>
   123f6:	1141                	addi	sp,sp,-16
   123f8:	e022                	sd	s0,0(sp)
   123fa:	842a                	mv	s0,a0
   123fc:	e406                	sd	ra,8(sp)
   123fe:	4080043b          	negw	s0,s0
   12402:	1d0000ef          	jal	ra,125d2 <__errno>
   12406:	c100                	sw	s0,0(a0)
   12408:	a001                	j	12408 <_exit+0x2a>

000000000001240a <_fstat>:
   1240a:	7135                	addi	sp,sp,-160
   1240c:	e526                	sd	s1,136(sp)
   1240e:	ed06                	sd	ra,152(sp)
   12410:	84ae                	mv	s1,a1
   12412:	e922                	sd	s0,144(sp)
   12414:	858a                	mv	a1,sp
   12416:	4601                	li	a2,0
   12418:	4681                	li	a3,0
   1241a:	4701                	li	a4,0
   1241c:	4781                	li	a5,0
   1241e:	05000893          	li	a7,80
   12422:	00000073          	ecall
   12426:	842a                	mv	s0,a0
   12428:	00054e63          	bltz	a0,12444 <_fstat+0x3a>
   1242c:	0005041b          	sext.w	s0,a0
   12430:	8526                	mv	a0,s1
   12432:	858a                	mv	a1,sp
   12434:	144000ef          	jal	ra,12578 <_conv_stat>
   12438:	60ea                	ld	ra,152(sp)
   1243a:	8522                	mv	a0,s0
   1243c:	644a                	ld	s0,144(sp)
   1243e:	64aa                	ld	s1,136(sp)
   12440:	610d                	addi	sp,sp,160
   12442:	8082                	ret
   12444:	4080043b          	negw	s0,s0
   12448:	18a000ef          	jal	ra,125d2 <__errno>
   1244c:	c100                	sw	s0,0(a0)
   1244e:	547d                	li	s0,-1
   12450:	b7c5                	j	12430 <_fstat+0x26>

0000000000012452 <_isatty>:
   12452:	7119                	addi	sp,sp,-128
   12454:	002c                	addi	a1,sp,8
   12456:	fc86                	sd	ra,120(sp)
   12458:	fb3ff0ef          	jal	ra,1240a <_fstat>
   1245c:	57fd                	li	a5,-1
   1245e:	00f50963          	beq	a0,a5,12470 <_isatty+0x1e>
   12462:	4532                	lw	a0,12(sp)
   12464:	70e6                	ld	ra,120(sp)
   12466:	40d5551b          	sraiw	a0,a0,0xd
   1246a:	8905                	andi	a0,a0,1
   1246c:	6109                	addi	sp,sp,128
   1246e:	8082                	ret
   12470:	70e6                	ld	ra,120(sp)
   12472:	4501                	li	a0,0
   12474:	6109                	addi	sp,sp,128
   12476:	8082                	ret

0000000000012478 <_lseek>:
   12478:	1141                	addi	sp,sp,-16
   1247a:	e406                	sd	ra,8(sp)
   1247c:	e022                	sd	s0,0(sp)
   1247e:	4681                	li	a3,0
   12480:	4701                	li	a4,0
   12482:	4781                	li	a5,0
   12484:	03e00893          	li	a7,62
   12488:	00000073          	ecall
   1248c:	842a                	mv	s0,a0
   1248e:	00054763          	bltz	a0,1249c <_lseek+0x24>
   12492:	60a2                	ld	ra,8(sp)
   12494:	8522                	mv	a0,s0
   12496:	6402                	ld	s0,0(sp)
   12498:	0141                	addi	sp,sp,16
   1249a:	8082                	ret
   1249c:	4080043b          	negw	s0,s0
   124a0:	132000ef          	jal	ra,125d2 <__errno>
   124a4:	c100                	sw	s0,0(a0)
   124a6:	547d                	li	s0,-1
   124a8:	b7ed                	j	12492 <_lseek+0x1a>

00000000000124aa <_read>:
   124aa:	1141                	addi	sp,sp,-16
   124ac:	e406                	sd	ra,8(sp)
   124ae:	e022                	sd	s0,0(sp)
   124b0:	4681                	li	a3,0
   124b2:	4701                	li	a4,0
   124b4:	4781                	li	a5,0
   124b6:	03f00893          	li	a7,63
   124ba:	00000073          	ecall
   124be:	842a                	mv	s0,a0
   124c0:	00054763          	bltz	a0,124ce <_read+0x24>
   124c4:	60a2                	ld	ra,8(sp)
   124c6:	8522                	mv	a0,s0
   124c8:	6402                	ld	s0,0(sp)
   124ca:	0141                	addi	sp,sp,16
   124cc:	8082                	ret
   124ce:	4080043b          	negw	s0,s0
   124d2:	100000ef          	jal	ra,125d2 <__errno>
   124d6:	c100                	sw	s0,0(a0)
   124d8:	547d                	li	s0,-1
   124da:	b7ed                	j	124c4 <_read+0x1a>

00000000000124dc <_sbrk>:
   124dc:	79018313          	addi	t1,gp,1936 # 145c8 <heap_end.1850>
   124e0:	00033783          	ld	a5,0(t1)
   124e4:	1141                	addi	sp,sp,-16
   124e6:	e406                	sd	ra,8(sp)
   124e8:	882a                	mv	a6,a0
   124ea:	e385                	bnez	a5,1250a <_sbrk+0x2e>
   124ec:	4501                	li	a0,0
   124ee:	4581                	li	a1,0
   124f0:	4601                	li	a2,0
   124f2:	4681                	li	a3,0
   124f4:	4701                	li	a4,0
   124f6:	0d600893          	li	a7,214
   124fa:	00000073          	ecall
   124fe:	577d                	li	a4,-1
   12500:	87aa                	mv	a5,a0
   12502:	02e50a63          	beq	a0,a4,12536 <_sbrk+0x5a>
   12506:	00a33023          	sd	a0,0(t1)
   1250a:	00f80533          	add	a0,a6,a5
   1250e:	4581                	li	a1,0
   12510:	4601                	li	a2,0
   12512:	4681                	li	a3,0
   12514:	4701                	li	a4,0
   12516:	4781                	li	a5,0
   12518:	0d600893          	li	a7,214
   1251c:	00000073          	ecall
   12520:	00033783          	ld	a5,0(t1)
   12524:	983e                	add	a6,a6,a5
   12526:	01051863          	bne	a0,a6,12536 <_sbrk+0x5a>
   1252a:	60a2                	ld	ra,8(sp)
   1252c:	00a33023          	sd	a0,0(t1)
   12530:	853e                	mv	a0,a5
   12532:	0141                	addi	sp,sp,16
   12534:	8082                	ret
   12536:	09c000ef          	jal	ra,125d2 <__errno>
   1253a:	60a2                	ld	ra,8(sp)
   1253c:	47b1                	li	a5,12
   1253e:	c11c                	sw	a5,0(a0)
   12540:	557d                	li	a0,-1
   12542:	0141                	addi	sp,sp,16
   12544:	8082                	ret

0000000000012546 <_write>:
   12546:	1141                	addi	sp,sp,-16
   12548:	e406                	sd	ra,8(sp)
   1254a:	e022                	sd	s0,0(sp)
   1254c:	4681                	li	a3,0
   1254e:	4701                	li	a4,0
   12550:	4781                	li	a5,0
   12552:	04000893          	li	a7,64
   12556:	00000073          	ecall
   1255a:	842a                	mv	s0,a0
   1255c:	00054763          	bltz	a0,1256a <_write+0x24>
   12560:	60a2                	ld	ra,8(sp)
   12562:	8522                	mv	a0,s0
   12564:	6402                	ld	s0,0(sp)
   12566:	0141                	addi	sp,sp,16
   12568:	8082                	ret
   1256a:	4080043b          	negw	s0,s0
   1256e:	064000ef          	jal	ra,125d2 <__errno>
   12572:	c100                	sw	s0,0(a0)
   12574:	547d                	li	s0,-1
   12576:	b7ed                	j	12560 <_write+0x1a>

0000000000012578 <_conv_stat>:
   12578:	0005b383          	ld	t2,0(a1)
   1257c:	0085b283          	ld	t0,8(a1)
   12580:	0105af83          	lw	t6,16(a1)
   12584:	0145af03          	lw	t5,20(a1)
   12588:	0185ae83          	lw	t4,24(a1)
   1258c:	01c5ae03          	lw	t3,28(a1)
   12590:	0205b303          	ld	t1,32(a1)
   12594:	0305b883          	ld	a7,48(a1)
   12598:	0405b803          	ld	a6,64(a1)
   1259c:	5d90                	lw	a2,56(a1)
   1259e:	65b4                	ld	a3,72(a1)
   125a0:	6db8                	ld	a4,88(a1)
   125a2:	75bc                	ld	a5,104(a1)
   125a4:	00751023          	sh	t2,0(a0)
   125a8:	00551123          	sh	t0,2(a0)
   125ac:	01f52223          	sw	t6,4(a0)
   125b0:	01e51423          	sh	t5,8(a0)
   125b4:	01d51523          	sh	t4,10(a0)
   125b8:	01c51623          	sh	t3,12(a0)
   125bc:	00651723          	sh	t1,14(a0)
   125c0:	01153823          	sd	a7,16(a0)
   125c4:	05053823          	sd	a6,80(a0)
   125c8:	e530                	sd	a2,72(a0)
   125ca:	ed14                	sd	a3,24(a0)
   125cc:	f518                	sd	a4,40(a0)
   125ce:	fd1c                	sd	a5,56(a0)
   125d0:	8082                	ret

00000000000125d2 <__errno>:
   125d2:	7601b503          	ld	a0,1888(gp) # 14598 <_impure_ptr>
   125d6:	8082                	ret
