
bin/spectre-v1.riscv：     文件格式 elf64-littleriscv


Disassembly of section .text:

00000000000100b0 <register_fini>:
   100b0:	ffff0797          	auipc	a5,0xffff0
   100b4:	f5078793          	addi	a5,a5,-176 # 0 <register_fini-0x100b0>
   100b8:	c799                	beqz	a5,100c6 <register_fini+0x16>
   100ba:	00003517          	auipc	a0,0x3
   100be:	b5450513          	addi	a0,a0,-1196 # 12c0e <__libc_fini_array>
   100c2:	38d0906f          	j	19c4e <atexit>
   100c6:	8082                	ret

00000000000100c8 <_start>:
   100c8:	00010197          	auipc	gp,0x10
   100cc:	cc018193          	addi	gp,gp,-832 # 1fd88 <__global_pointer$>
   100d0:	86818513          	addi	a0,gp,-1944 # 1f5f0 <_edata>
   100d4:	00028617          	auipc	a2,0x28
   100d8:	e2c60613          	addi	a2,a2,-468 # 37f00 <__BSS_END__>
   100dc:	8e09                	sub	a2,a2,a0
   100de:	4581                	li	a1,0
   100e0:	652000ef          	jal	ra,10732 <memset>
   100e4:	0000a517          	auipc	a0,0xa
   100e8:	b6a50513          	addi	a0,a0,-1174 # 19c4e <atexit>
   100ec:	c519                	beqz	a0,100fa <_start+0x32>
   100ee:	00003517          	auipc	a0,0x3
   100f2:	b2050513          	addi	a0,a0,-1248 # 12c0e <__libc_fini_array>
   100f6:	359090ef          	jal	ra,19c4e <atexit>
   100fa:	5ce000ef          	jal	ra,106c8 <__libc_init_array>
   100fe:	4502                	lw	a0,0(sp)
   10100:	002c                	addi	a1,sp,8
   10102:	4601                	li	a2,0
   10104:	2b2000ef          	jal	ra,103b6 <main>
   10108:	a34d                	j	106aa <exit>

000000000001010a <__do_global_dtors_aux>:
   1010a:	89018793          	addi	a5,gp,-1904 # 1f618 <completed.5527>
   1010e:	0007c703          	lbu	a4,0(a5)
   10112:	eb0d                	bnez	a4,10144 <__do_global_dtors_aux+0x3a>
   10114:	1141                	addi	sp,sp,-16
   10116:	e022                	sd	s0,0(sp)
   10118:	e406                	sd	ra,8(sp)
   1011a:	843e                	mv	s0,a5
   1011c:	ffff0797          	auipc	a5,0xffff0
   10120:	ee478793          	addi	a5,a5,-284 # 0 <register_fini-0x100b0>
   10124:	cb89                	beqz	a5,10136 <__do_global_dtors_aux+0x2c>
   10126:	0000e517          	auipc	a0,0xe
   1012a:	2a250513          	addi	a0,a0,674 # 1e3c8 <__FRAME_END__>
   1012e:	00000097          	auipc	ra,0x0
   10132:	000000e7          	jalr	zero # 0 <register_fini-0x100b0>
   10136:	4785                	li	a5,1
   10138:	60a2                	ld	ra,8(sp)
   1013a:	00f40023          	sb	a5,0(s0)
   1013e:	6402                	ld	s0,0(sp)
   10140:	0141                	addi	sp,sp,16
   10142:	8082                	ret
   10144:	8082                	ret

0000000000010146 <frame_dummy>:
   10146:	ffff0797          	auipc	a5,0xffff0
   1014a:	eba78793          	addi	a5,a5,-326 # 0 <register_fini-0x100b0>
   1014e:	cb99                	beqz	a5,10164 <frame_dummy+0x1e>
   10150:	89818593          	addi	a1,gp,-1896 # 1f620 <object.5532>
   10154:	0000e517          	auipc	a0,0xe
   10158:	27450513          	addi	a0,a0,628 # 1e3c8 <__FRAME_END__>
   1015c:	00000317          	auipc	t1,0x0
   10160:	00000067          	jr	zero # 0 <register_fini-0x100b0>
   10164:	8082                	ret

0000000000010166 <flushCache>:
   10166:	711d                	addi	sp,sp,-96
   10168:	eca2                	sd	s0,88(sp)
   1016a:	1080                	addi	s0,sp,96
   1016c:	faa43423          	sd	a0,-88(s0)
   10170:	fab43023          	sd	a1,-96(s0)
   10174:	fa043783          	ld	a5,-96(s0)
   10178:	8399                	srli	a5,a5,0x6
   1017a:	fef43423          	sd	a5,-24(s0)
   1017e:	fa043783          	ld	a5,-96(s0)
   10182:	03f7f793          	andi	a5,a5,63
   10186:	c791                	beqz	a5,10192 <flushCache+0x2c>
   10188:	fe843783          	ld	a5,-24(s0)
   1018c:	0785                	addi	a5,a5,1
   1018e:	fef43423          	sd	a5,-24(s0)
   10192:	fe843703          	ld	a4,-24(s0)
   10196:	04000793          	li	a5,64
   1019a:	00e7f663          	bgeu	a5,a4,101a6 <flushCache+0x40>
   1019e:	04000793          	li	a5,64
   101a2:	fef43423          	sd	a5,-24(s0)
   101a6:	fc040ba3          	sb	zero,-41(s0)
   101aa:	000207b7          	lui	a5,0x20
   101ae:	e7878713          	addi	a4,a5,-392 # 1fe78 <dummyMem>
   101b2:	6791                	lui	a5,0x4
   101b4:	973e                	add	a4,a4,a5
   101b6:	77fd                	lui	a5,0xfffff
   101b8:	8ff9                	and	a5,a5,a4
   101ba:	fcf43423          	sd	a5,-56(s0)
   101be:	fe043023          	sd	zero,-32(s0)
   101c2:	a8b9                	j	10220 <flushCache+0xba>
   101c4:	fa843783          	ld	a5,-88(s0)
   101c8:	8399                	srli	a5,a5,0x6
   101ca:	03f7f713          	andi	a4,a5,63
   101ce:	fe043783          	ld	a5,-32(s0)
   101d2:	97ba                	add	a5,a5,a4
   101d4:	079a                	slli	a5,a5,0x6
   101d6:	fcf43023          	sd	a5,-64(s0)
   101da:	fc043c23          	sd	zero,-40(s0)
   101de:	a03d                	j	1020c <flushCache+0xa6>
   101e0:	fd843783          	ld	a5,-40(s0)
   101e4:	07b2                	slli	a5,a5,0xc
   101e6:	faf43c23          	sd	a5,-72(s0)
   101ea:	fc843703          	ld	a4,-56(s0)
   101ee:	fc043783          	ld	a5,-64(s0)
   101f2:	973e                	add	a4,a4,a5
   101f4:	fb843783          	ld	a5,-72(s0)
   101f8:	97ba                	add	a5,a5,a4
   101fa:	0007c783          	lbu	a5,0(a5) # fffffffffffff000 <__BSS_END__+0xfffffffffffc7100>
   101fe:	fcf40ba3          	sb	a5,-41(s0)
   10202:	fd843783          	ld	a5,-40(s0)
   10206:	0785                	addi	a5,a5,1
   10208:	fcf43c23          	sd	a5,-40(s0)
   1020c:	fd843703          	ld	a4,-40(s0)
   10210:	47bd                	li	a5,15
   10212:	fce7f7e3          	bgeu	a5,a4,101e0 <flushCache+0x7a>
   10216:	fe043783          	ld	a5,-32(s0)
   1021a:	0785                	addi	a5,a5,1
   1021c:	fef43023          	sd	a5,-32(s0)
   10220:	fe043703          	ld	a4,-32(s0)
   10224:	fe843783          	ld	a5,-24(s0)
   10228:	f8f76ee3          	bltu	a4,a5,101c4 <flushCache+0x5e>
   1022c:	0001                	nop
   1022e:	0001                	nop
   10230:	6466                	ld	s0,88(sp)
   10232:	6125                	addi	sp,sp,96
   10234:	8082                	ret

0000000000010236 <topTwoIdx>:
   10236:	7139                	addi	sp,sp,-64
   10238:	fc22                	sd	s0,56(sp)
   1023a:	0080                	addi	s0,sp,64
   1023c:	fca43c23          	sd	a0,-40(s0)
   10240:	fcb43823          	sd	a1,-48(s0)
   10244:	fcc43423          	sd	a2,-56(s0)
   10248:	fcd43023          	sd	a3,-64(s0)
   1024c:	fc043783          	ld	a5,-64(s0)
   10250:	0007b023          	sd	zero,0(a5)
   10254:	fc043783          	ld	a5,-64(s0)
   10258:	07a1                	addi	a5,a5,8
   1025a:	0007b023          	sd	zero,0(a5)
   1025e:	fe043423          	sd	zero,-24(s0)
   10262:	a075                	j	1030e <topTwoIdx+0xd8>
   10264:	fe843783          	ld	a5,-24(s0)
   10268:	078e                	slli	a5,a5,0x3
   1026a:	fd843703          	ld	a4,-40(s0)
   1026e:	97ba                	add	a5,a5,a4
   10270:	6398                	ld	a4,0(a5)
   10272:	fc043783          	ld	a5,-64(s0)
   10276:	639c                	ld	a5,0(a5)
   10278:	04e7f563          	bgeu	a5,a4,102c2 <topTwoIdx+0x8c>
   1027c:	fc043783          	ld	a5,-64(s0)
   10280:	07a1                	addi	a5,a5,8
   10282:	fc043703          	ld	a4,-64(s0)
   10286:	6318                	ld	a4,0(a4)
   10288:	e398                	sd	a4,0(a5)
   1028a:	fe843783          	ld	a5,-24(s0)
   1028e:	078e                	slli	a5,a5,0x3
   10290:	fd843703          	ld	a4,-40(s0)
   10294:	97ba                	add	a5,a5,a4
   10296:	6398                	ld	a4,0(a5)
   10298:	fc043783          	ld	a5,-64(s0)
   1029c:	e398                	sd	a4,0(a5)
   1029e:	fc843783          	ld	a5,-56(s0)
   102a2:	0785                	addi	a5,a5,1
   102a4:	fc843703          	ld	a4,-56(s0)
   102a8:	00074703          	lbu	a4,0(a4)
   102ac:	00e78023          	sb	a4,0(a5)
   102b0:	fe843783          	ld	a5,-24(s0)
   102b4:	0ff7f713          	andi	a4,a5,255
   102b8:	fc843783          	ld	a5,-56(s0)
   102bc:	00e78023          	sb	a4,0(a5)
   102c0:	a091                	j	10304 <topTwoIdx+0xce>
   102c2:	fe843783          	ld	a5,-24(s0)
   102c6:	078e                	slli	a5,a5,0x3
   102c8:	fd843703          	ld	a4,-40(s0)
   102cc:	97ba                	add	a5,a5,a4
   102ce:	6398                	ld	a4,0(a5)
   102d0:	fc043783          	ld	a5,-64(s0)
   102d4:	07a1                	addi	a5,a5,8
   102d6:	639c                	ld	a5,0(a5)
   102d8:	02e7f663          	bgeu	a5,a4,10304 <topTwoIdx+0xce>
   102dc:	fe843783          	ld	a5,-24(s0)
   102e0:	078e                	slli	a5,a5,0x3
   102e2:	fd843703          	ld	a4,-40(s0)
   102e6:	973e                	add	a4,a4,a5
   102e8:	fc043783          	ld	a5,-64(s0)
   102ec:	07a1                	addi	a5,a5,8
   102ee:	6318                	ld	a4,0(a4)
   102f0:	e398                	sd	a4,0(a5)
   102f2:	fc843783          	ld	a5,-56(s0)
   102f6:	0785                	addi	a5,a5,1
   102f8:	fe843703          	ld	a4,-24(s0)
   102fc:	0ff77713          	andi	a4,a4,255
   10300:	00e78023          	sb	a4,0(a5)
   10304:	fe843783          	ld	a5,-24(s0)
   10308:	0785                	addi	a5,a5,1
   1030a:	fef43423          	sd	a5,-24(s0)
   1030e:	fe843703          	ld	a4,-24(s0)
   10312:	fd043783          	ld	a5,-48(s0)
   10316:	f4f767e3          	bltu	a4,a5,10264 <topTwoIdx+0x2e>
   1031a:	0001                	nop
   1031c:	0001                	nop
   1031e:	7462                	ld	s0,56(sp)
   10320:	6121                	addi	sp,sp,64
   10322:	8082                	ret

0000000000010324 <victimFunc>:
   10324:	7179                	addi	sp,sp,-48
   10326:	f422                	sd	s0,40(sp)
   10328:	1800                	addi	s0,sp,48
   1032a:	fca43c23          	sd	a0,-40(s0)
   1032e:	4789                	li	a5,2
   10330:	fef407a3          	sb	a5,-17(s0)
   10334:	8401b783          	ld	a5,-1984(gp) # 1f5c8 <array1_sz>
   10338:	00479713          	slli	a4,a5,0x4
   1033c:	84e1b023          	sd	a4,-1984(gp) # 1f5c8 <array1_sz>
   10340:	8401b783          	ld	a5,-1984(gp) # 1f5c8 <array1_sz>
   10344:	fef44703          	lbu	a4,-17(s0)
   10348:	d0377753          	fcvt.s.lu	fa4,a4
   1034c:	d037f7d3          	fcvt.s.lu	fa5,a5
   10350:	18e7f7d3          	fdiv.s	fa5,fa5,fa4
   10354:	18e7f7d3          	fdiv.s	fa5,fa5,fa4
   10358:	18e7f7d3          	fdiv.s	fa5,fa5,fa4
   1035c:	18e7f7d3          	fdiv.s	fa5,fa5,fa4
   10360:	c0379753          	fcvt.lu.s	a4,fa5,rtz
   10364:	84e1b023          	sd	a4,-1984(gp) # 1f5c8 <array1_sz>
   10368:	8401b783          	ld	a5,-1984(gp) # 1f5c8 <array1_sz>
   1036c:	fd843703          	ld	a4,-40(s0)
   10370:	02f77763          	bgeu	a4,a5,1039e <victimFunc+0x7a>
   10374:	67f9                	lui	a5,0x1e
   10376:	3e878713          	addi	a4,a5,1000 # 1e3e8 <__fini_array_end>
   1037a:	fd843783          	ld	a5,-40(s0)
   1037e:	97ba                	add	a5,a5,a4
   10380:	0007c783          	lbu	a5,0(a5)
   10384:	2781                	sext.w	a5,a5
   10386:	0067979b          	slliw	a5,a5,0x6
   1038a:	2781                	sext.w	a5,a5
   1038c:	00034737          	lui	a4,0x34
   10390:	eb870713          	addi	a4,a4,-328 # 33eb8 <array2>
   10394:	97ba                	add	a5,a5,a4
   10396:	0007c783          	lbu	a5,0(a5)
   1039a:	fef407a3          	sb	a5,-17(s0)
   1039e:	c00027f3          	rdcycle	a5
   103a2:	fef43023          	sd	a5,-32(s0)
   103a6:	fe043783          	ld	a5,-32(s0)
   103aa:	fef407a3          	sb	a5,-17(s0)
   103ae:	0001                	nop
   103b0:	7422                	ld	s0,40(sp)
   103b2:	6145                	addi	sp,sp,48
   103b4:	8082                	ret

00000000000103b6 <main>:
   103b6:	7171                	addi	sp,sp,-176
   103b8:	f506                	sd	ra,168(sp)
   103ba:	f122                	sd	s0,160(sp)
   103bc:	1900                	addi	s0,sp,176
   103be:	8481b703          	ld	a4,-1976(gp) # 1f5d0 <secretString>
   103c2:	67f9                	lui	a5,0x1e
   103c4:	3e878793          	addi	a5,a5,1000 # 1e3e8 <__fini_array_end>
   103c8:	40f707b3          	sub	a5,a4,a5
   103cc:	fef43423          	sd	a5,-24(s0)
   103d0:	fe0403a3          	sb	zero,-25(s0)
   103d4:	67f1                	lui	a5,0x1c
   103d6:	5b078513          	addi	a0,a5,1456 # 1c5b0 <__clzdi2+0x5e>
   103da:	4d0000ef          	jal	ra,108aa <puts>
   103de:	8481b783          	ld	a5,-1976(gp) # 1f5d0 <secretString>
   103e2:	85be                	mv	a1,a5
   103e4:	67f1                	lui	a5,0x1c
   103e6:	5f078513          	addi	a0,a5,1520 # 1c5f0 <__clzdi2+0x9e>
   103ea:	414000ef          	jal	ra,107fe <printf>
   103ee:	fc043c23          	sd	zero,-40(s0)
   103f2:	a44d                	j	10694 <main+0x2de>
   103f4:	fc043823          	sd	zero,-48(s0)
   103f8:	a005                	j	10418 <main+0x62>
   103fa:	0001f7b7          	lui	a5,0x1f
   103fe:	65078713          	addi	a4,a5,1616 # 1f650 <results.2598>
   10402:	fd043783          	ld	a5,-48(s0)
   10406:	078e                	slli	a5,a5,0x3
   10408:	97ba                	add	a5,a5,a4
   1040a:	0007b023          	sd	zero,0(a5)
   1040e:	fd043783          	ld	a5,-48(s0)
   10412:	0785                	addi	a5,a5,1
   10414:	fcf43823          	sd	a5,-48(s0)
   10418:	fd043703          	ld	a4,-48(s0)
   1041c:	0ff00793          	li	a5,255
   10420:	fce7fde3          	bgeu	a5,a4,103fa <main+0x44>
   10424:	fc043423          	sd	zero,-56(s0)
   10428:	a2b1                	j	10574 <main+0x1be>
   1042a:	000347b7          	lui	a5,0x34
   1042e:	eb878793          	addi	a5,a5,-328 # 33eb8 <array2>
   10432:	6591                	lui	a1,0x4
   10434:	853e                	mv	a0,a5
   10436:	d31ff0ef          	jal	ra,10166 <flushCache>
   1043a:	3ff00793          	li	a5,1023
   1043e:	fcf43023          	sd	a5,-64(s0)
   10442:	a061                	j	104ca <main+0x114>
   10444:	8401b783          	ld	a5,-1984(gp) # 1f5c8 <array1_sz>
   10448:	fc843703          	ld	a4,-56(s0)
   1044c:	02f777b3          	remu	a5,a4,a5
   10450:	f8f43023          	sd	a5,-128(s0)
   10454:	fc043703          	ld	a4,-64(s0)
   10458:	43f75793          	srai	a5,a4,0x3f
   1045c:	93d9                	srli	a5,a5,0x36
   1045e:	973e                	add	a4,a4,a5
   10460:	3ff77713          	andi	a4,a4,1023
   10464:	40f707b3          	sub	a5,a4,a5
   10468:	17fd                	addi	a5,a5,-1
   1046a:	873e                	mv	a4,a5
   1046c:	77c1                	lui	a5,0xffff0
   1046e:	8ff9                	and	a5,a5,a4
   10470:	f6f43c23          	sd	a5,-136(s0)
   10474:	f7843783          	ld	a5,-136(s0)
   10478:	83c1                	srli	a5,a5,0x10
   1047a:	f7843703          	ld	a4,-136(s0)
   1047e:	8fd9                	or	a5,a5,a4
   10480:	f6f43c23          	sd	a5,-136(s0)
   10484:	fe843703          	ld	a4,-24(s0)
   10488:	f8043783          	ld	a5,-128(s0)
   1048c:	8f3d                	xor	a4,a4,a5
   1048e:	f7843783          	ld	a5,-136(s0)
   10492:	8ff9                	and	a5,a5,a4
   10494:	f8043703          	ld	a4,-128(s0)
   10498:	8fb9                	xor	a5,a5,a4
   1049a:	f6f43c23          	sd	a5,-136(s0)
   1049e:	fa043c23          	sd	zero,-72(s0)
   104a2:	a031                	j	104ae <main+0xf8>
   104a4:	fb843783          	ld	a5,-72(s0)
   104a8:	0785                	addi	a5,a5,1
   104aa:	faf43c23          	sd	a5,-72(s0)
   104ae:	fb843703          	ld	a4,-72(s0)
   104b2:	47a5                	li	a5,9
   104b4:	fee7f8e3          	bgeu	a5,a4,104a4 <main+0xee>
   104b8:	f7843503          	ld	a0,-136(s0)
   104bc:	e69ff0ef          	jal	ra,10324 <victimFunc>
   104c0:	fc043783          	ld	a5,-64(s0)
   104c4:	17fd                	addi	a5,a5,-1
   104c6:	fcf43023          	sd	a5,-64(s0)
   104ca:	fc043783          	ld	a5,-64(s0)
   104ce:	f607dbe3          	bgez	a5,10444 <main+0x8e>
   104d2:	fa043823          	sd	zero,-80(s0)
   104d6:	a061                	j	1055e <main+0x1a8>
   104d8:	fa043423          	sd	zero,-88(s0)
   104dc:	c00027f3          	rdcycle	a5
   104e0:	faf43023          	sd	a5,-96(s0)
   104e4:	fa043783          	ld	a5,-96(s0)
   104e8:	f8f43c23          	sd	a5,-104(s0)
   104ec:	fb043783          	ld	a5,-80(s0)
   104f0:	079a                	slli	a5,a5,0x6
   104f2:	00034737          	lui	a4,0x34
   104f6:	eb870713          	addi	a4,a4,-328 # 33eb8 <array2>
   104fa:	97ba                	add	a5,a5,a4
   104fc:	0007c703          	lbu	a4,0(a5) # ffffffffffff0000 <__BSS_END__+0xfffffffffffb8100>
   10500:	fe744783          	lbu	a5,-25(s0)
   10504:	8ff9                	and	a5,a5,a4
   10506:	fef403a3          	sb	a5,-25(s0)
   1050a:	c00027f3          	rdcycle	a5
   1050e:	f8f43823          	sd	a5,-112(s0)
   10512:	f9043703          	ld	a4,-112(s0)
   10516:	f9843783          	ld	a5,-104(s0)
   1051a:	40f707b3          	sub	a5,a4,a5
   1051e:	f8f43423          	sd	a5,-120(s0)
   10522:	f8843703          	ld	a4,-120(s0)
   10526:	47f5                	li	a5,29
   10528:	02e7e663          	bltu	a5,a4,10554 <main+0x19e>
   1052c:	0001f7b7          	lui	a5,0x1f
   10530:	65078713          	addi	a4,a5,1616 # 1f650 <results.2598>
   10534:	fb043783          	ld	a5,-80(s0)
   10538:	078e                	slli	a5,a5,0x3
   1053a:	97ba                	add	a5,a5,a4
   1053c:	639c                	ld	a5,0(a5)
   1053e:	00178713          	addi	a4,a5,1
   10542:	0001f7b7          	lui	a5,0x1f
   10546:	65078693          	addi	a3,a5,1616 # 1f650 <results.2598>
   1054a:	fb043783          	ld	a5,-80(s0)
   1054e:	078e                	slli	a5,a5,0x3
   10550:	97b6                	add	a5,a5,a3
   10552:	e398                	sd	a4,0(a5)
   10554:	fb043783          	ld	a5,-80(s0)
   10558:	0785                	addi	a5,a5,1
   1055a:	faf43823          	sd	a5,-80(s0)
   1055e:	fb043703          	ld	a4,-80(s0)
   10562:	0ff00793          	li	a5,255
   10566:	f6e7f9e3          	bgeu	a5,a4,104d8 <main+0x122>
   1056a:	fc843783          	ld	a5,-56(s0)
   1056e:	0785                	addi	a5,a5,1
   10570:	fcf43423          	sd	a5,-56(s0)
   10574:	fc843703          	ld	a4,-56(s0)
   10578:	47a5                	li	a5,9
   1057a:	eae7f8e3          	bgeu	a5,a4,1042a <main+0x74>
   1057e:	f6041823          	sh	zero,-144(s0)
   10582:	f6043023          	sd	zero,-160(s0)
   10586:	f6043423          	sd	zero,-152(s0)
   1058a:	f6040713          	addi	a4,s0,-160
   1058e:	f7040793          	addi	a5,s0,-144
   10592:	86ba                	mv	a3,a4
   10594:	863e                	mv	a2,a5
   10596:	10000593          	li	a1,256
   1059a:	0001f7b7          	lui	a5,0x1f
   1059e:	65078513          	addi	a0,a5,1616 # 1f650 <results.2598>
   105a2:	c95ff0ef          	jal	ra,10236 <topTwoIdx>
   105a6:	f7044683          	lbu	a3,-144(s0)
   105aa:	8481b703          	ld	a4,-1976(gp) # 1f5d0 <secretString>
   105ae:	fd843783          	ld	a5,-40(s0)
   105b2:	97ba                	add	a5,a5,a4
   105b4:	0007c783          	lbu	a5,0(a5)
   105b8:	8736                	mv	a4,a3
   105ba:	00f70e63          	beq	a4,a5,105d6 <main+0x220>
   105be:	f7144683          	lbu	a3,-143(s0)
   105c2:	8481b703          	ld	a4,-1976(gp) # 1f5d0 <secretString>
   105c6:	fd843783          	ld	a5,-40(s0)
   105ca:	97ba                	add	a5,a5,a4
   105cc:	0007c783          	lbu	a5,0(a5)
   105d0:	8736                	mv	a4,a3
   105d2:	04f71d63          	bne	a4,a5,1062c <main+0x276>
   105d6:	fe843703          	ld	a4,-24(s0)
   105da:	67f9                	lui	a5,0x1e
   105dc:	3e878793          	addi	a5,a5,1000 # 1e3e8 <__fini_array_end>
   105e0:	00f705b3          	add	a1,a4,a5
   105e4:	8481b703          	ld	a4,-1976(gp) # 1f5d0 <secretString>
   105e8:	fd843783          	ld	a5,-40(s0)
   105ec:	97ba                	add	a5,a5,a4
   105ee:	0007c783          	lbu	a5,0(a5)
   105f2:	0007861b          	sext.w	a2,a5
   105f6:	f6043683          	ld	a3,-160(s0)
   105fa:	f7044783          	lbu	a5,-144(s0)
   105fe:	0007871b          	sext.w	a4,a5
   10602:	f7044783          	lbu	a5,-144(s0)
   10606:	0007851b          	sext.w	a0,a5
   1060a:	f6843803          	ld	a6,-152(s0)
   1060e:	f7144783          	lbu	a5,-143(s0)
   10612:	0007889b          	sext.w	a7,a5
   10616:	f7144783          	lbu	a5,-143(s0)
   1061a:	2781                	sext.w	a5,a5
   1061c:	e03e                	sd	a5,0(sp)
   1061e:	87aa                	mv	a5,a0
   10620:	6571                	lui	a0,0x1c
   10622:	60850513          	addi	a0,a0,1544 # 1c608 <__clzdi2+0xb6>
   10626:	1d8000ef          	jal	ra,107fe <printf>
   1062a:	a899                	j	10680 <main+0x2ca>
   1062c:	fe843703          	ld	a4,-24(s0)
   10630:	67f9                	lui	a5,0x1e
   10632:	3e878793          	addi	a5,a5,1000 # 1e3e8 <__fini_array_end>
   10636:	00f705b3          	add	a1,a4,a5
   1063a:	8481b703          	ld	a4,-1976(gp) # 1f5d0 <secretString>
   1063e:	fd843783          	ld	a5,-40(s0)
   10642:	97ba                	add	a5,a5,a4
   10644:	0007c783          	lbu	a5,0(a5)
   10648:	0007861b          	sext.w	a2,a5
   1064c:	f6043683          	ld	a3,-160(s0)
   10650:	f7044783          	lbu	a5,-144(s0)
   10654:	0007871b          	sext.w	a4,a5
   10658:	f7044783          	lbu	a5,-144(s0)
   1065c:	0007851b          	sext.w	a0,a5
   10660:	f6843803          	ld	a6,-152(s0)
   10664:	f7144783          	lbu	a5,-143(s0)
   10668:	0007889b          	sext.w	a7,a5
   1066c:	f7144783          	lbu	a5,-143(s0)
   10670:	2781                	sext.w	a5,a5
   10672:	e03e                	sd	a5,0(sp)
   10674:	87aa                	mv	a5,a0
   10676:	6571                	lui	a0,0x1c
   10678:	66850513          	addi	a0,a0,1640 # 1c668 <__clzdi2+0x116>
   1067c:	182000ef          	jal	ra,107fe <printf>
   10680:	fe843783          	ld	a5,-24(s0)
   10684:	0785                	addi	a5,a5,1
   10686:	fef43423          	sd	a5,-24(s0)
   1068a:	fd843783          	ld	a5,-40(s0)
   1068e:	0785                	addi	a5,a5,1
   10690:	fcf43c23          	sd	a5,-40(s0)
   10694:	fd843703          	ld	a4,-40(s0)
   10698:	47e5                	li	a5,25
   1069a:	d4e7fde3          	bgeu	a5,a4,103f4 <main+0x3e>
   1069e:	4781                	li	a5,0
   106a0:	853e                	mv	a0,a5
   106a2:	70aa                	ld	ra,168(sp)
   106a4:	740a                	ld	s0,160(sp)
   106a6:	614d                	addi	sp,sp,176
   106a8:	8082                	ret

00000000000106aa <exit>:
   106aa:	1141                	addi	sp,sp,-16
   106ac:	4581                	li	a1,0
   106ae:	e022                	sd	s0,0(sp)
   106b0:	e406                	sd	ra,8(sp)
   106b2:	842a                	mv	s0,a0
   106b4:	03c020ef          	jal	ra,126f0 <__call_exitprocs>
   106b8:	8301b503          	ld	a0,-2000(gp) # 1f5b8 <_global_impure_ptr>
   106bc:	6d3c                	ld	a5,88(a0)
   106be:	c391                	beqz	a5,106c2 <exit+0x18>
   106c0:	9782                	jalr	a5
   106c2:	8522                	mv	a0,s0
   106c4:	0bf0a0ef          	jal	ra,1af82 <_exit>

00000000000106c8 <__libc_init_array>:
   106c8:	1101                	addi	sp,sp,-32
   106ca:	e822                	sd	s0,16(sp)
   106cc:	e04a                	sd	s2,0(sp)
   106ce:	0000e417          	auipc	s0,0xe
   106d2:	cfe40413          	addi	s0,s0,-770 # 1e3cc <__preinit_array_end>
   106d6:	0000e917          	auipc	s2,0xe
   106da:	cf690913          	addi	s2,s2,-778 # 1e3cc <__preinit_array_end>
   106de:	40890933          	sub	s2,s2,s0
   106e2:	ec06                	sd	ra,24(sp)
   106e4:	e426                	sd	s1,8(sp)
   106e6:	40395913          	srai	s2,s2,0x3
   106ea:	00090963          	beqz	s2,106fc <__libc_init_array+0x34>
   106ee:	4481                	li	s1,0
   106f0:	601c                	ld	a5,0(s0)
   106f2:	0485                	addi	s1,s1,1
   106f4:	0421                	addi	s0,s0,8
   106f6:	9782                	jalr	a5
   106f8:	fe991ce3          	bne	s2,s1,106f0 <__libc_init_array+0x28>
   106fc:	0000e417          	auipc	s0,0xe
   10700:	cd440413          	addi	s0,s0,-812 # 1e3d0 <__init_array_start>
   10704:	0000e917          	auipc	s2,0xe
   10708:	cdc90913          	addi	s2,s2,-804 # 1e3e0 <__init_array_end>
   1070c:	40890933          	sub	s2,s2,s0
   10710:	40395913          	srai	s2,s2,0x3
   10714:	00090963          	beqz	s2,10726 <__libc_init_array+0x5e>
   10718:	4481                	li	s1,0
   1071a:	601c                	ld	a5,0(s0)
   1071c:	0485                	addi	s1,s1,1
   1071e:	0421                	addi	s0,s0,8
   10720:	9782                	jalr	a5
   10722:	fe991ce3          	bne	s2,s1,1071a <__libc_init_array+0x52>
   10726:	60e2                	ld	ra,24(sp)
   10728:	6442                	ld	s0,16(sp)
   1072a:	64a2                	ld	s1,8(sp)
   1072c:	6902                	ld	s2,0(sp)
   1072e:	6105                	addi	sp,sp,32
   10730:	8082                	ret

0000000000010732 <memset>:
   10732:	433d                	li	t1,15
   10734:	872a                	mv	a4,a0
   10736:	02c37163          	bgeu	t1,a2,10758 <memset+0x26>
   1073a:	00f77793          	andi	a5,a4,15
   1073e:	e3c1                	bnez	a5,107be <memset+0x8c>
   10740:	e1bd                	bnez	a1,107a6 <memset+0x74>
   10742:	ff067693          	andi	a3,a2,-16
   10746:	8a3d                	andi	a2,a2,15
   10748:	96ba                	add	a3,a3,a4
   1074a:	e30c                	sd	a1,0(a4)
   1074c:	e70c                	sd	a1,8(a4)
   1074e:	0741                	addi	a4,a4,16
   10750:	fed76de3          	bltu	a4,a3,1074a <memset+0x18>
   10754:	e211                	bnez	a2,10758 <memset+0x26>
   10756:	8082                	ret
   10758:	40c306b3          	sub	a3,t1,a2
   1075c:	068a                	slli	a3,a3,0x2
   1075e:	00000297          	auipc	t0,0x0
   10762:	9696                	add	a3,a3,t0
   10764:	00a68067          	jr	10(a3)
   10768:	00b70723          	sb	a1,14(a4)
   1076c:	00b706a3          	sb	a1,13(a4)
   10770:	00b70623          	sb	a1,12(a4)
   10774:	00b705a3          	sb	a1,11(a4)
   10778:	00b70523          	sb	a1,10(a4)
   1077c:	00b704a3          	sb	a1,9(a4)
   10780:	00b70423          	sb	a1,8(a4)
   10784:	00b703a3          	sb	a1,7(a4)
   10788:	00b70323          	sb	a1,6(a4)
   1078c:	00b702a3          	sb	a1,5(a4)
   10790:	00b70223          	sb	a1,4(a4)
   10794:	00b701a3          	sb	a1,3(a4)
   10798:	00b70123          	sb	a1,2(a4)
   1079c:	00b700a3          	sb	a1,1(a4)
   107a0:	00b70023          	sb	a1,0(a4)
   107a4:	8082                	ret
   107a6:	0ff5f593          	andi	a1,a1,255
   107aa:	00859693          	slli	a3,a1,0x8
   107ae:	8dd5                	or	a1,a1,a3
   107b0:	01059693          	slli	a3,a1,0x10
   107b4:	8dd5                	or	a1,a1,a3
   107b6:	02059693          	slli	a3,a1,0x20
   107ba:	8dd5                	or	a1,a1,a3
   107bc:	b759                	j	10742 <memset+0x10>
   107be:	00279693          	slli	a3,a5,0x2
   107c2:	00000297          	auipc	t0,0x0
   107c6:	9696                	add	a3,a3,t0
   107c8:	8286                	mv	t0,ra
   107ca:	fa2680e7          	jalr	-94(a3)
   107ce:	8096                	mv	ra,t0
   107d0:	17c1                	addi	a5,a5,-16
   107d2:	8f1d                	sub	a4,a4,a5
   107d4:	963e                	add	a2,a2,a5
   107d6:	f8c371e3          	bgeu	t1,a2,10758 <memset+0x26>
   107da:	b79d                	j	10740 <memset+0xe>

00000000000107dc <_printf_r>:
   107dc:	715d                	addi	sp,sp,-80
   107de:	f032                	sd	a2,32(sp)
   107e0:	f436                	sd	a3,40(sp)
   107e2:	f83a                	sd	a4,48(sp)
   107e4:	fc3e                	sd	a5,56(sp)
   107e6:	e0c2                	sd	a6,64(sp)
   107e8:	e4c6                	sd	a7,72(sp)
   107ea:	862e                	mv	a2,a1
   107ec:	690c                	ld	a1,16(a0)
   107ee:	1014                	addi	a3,sp,32
   107f0:	ec06                	sd	ra,24(sp)
   107f2:	e436                	sd	a3,8(sp)
   107f4:	152000ef          	jal	ra,10946 <_vfprintf_r>
   107f8:	60e2                	ld	ra,24(sp)
   107fa:	6161                	addi	sp,sp,80
   107fc:	8082                	ret

00000000000107fe <printf>:
   107fe:	711d                	addi	sp,sp,-96
   10800:	f832                	sd	a2,48(sp)
   10802:	fc36                	sd	a3,56(sp)
   10804:	8501b303          	ld	t1,-1968(gp) # 1f5d8 <_impure_ptr>
   10808:	f42e                	sd	a1,40(sp)
   1080a:	e0ba                	sd	a4,64(sp)
   1080c:	e4be                	sd	a5,72(sp)
   1080e:	e8c2                	sd	a6,80(sp)
   10810:	ecc6                	sd	a7,88(sp)
   10812:	01033583          	ld	a1,16(t1) # 1016c <flushCache+0x6>
   10816:	1034                	addi	a3,sp,40
   10818:	862a                	mv	a2,a0
   1081a:	851a                	mv	a0,t1
   1081c:	ec06                	sd	ra,24(sp)
   1081e:	e436                	sd	a3,8(sp)
   10820:	126000ef          	jal	ra,10946 <_vfprintf_r>
   10824:	60e2                	ld	ra,24(sp)
   10826:	6125                	addi	sp,sp,96
   10828:	8082                	ret

000000000001082a <_puts_r>:
   1082a:	7159                	addi	sp,sp,-112
   1082c:	f0a2                	sd	s0,96(sp)
   1082e:	842a                	mv	s0,a0
   10830:	852e                	mv	a0,a1
   10832:	eca6                	sd	s1,88(sp)
   10834:	f486                	sd	ra,104(sp)
   10836:	84ae                	mv	s1,a1
   10838:	07a000ef          	jal	ra,108b2 <strlen>
   1083c:	00150713          	addi	a4,a0,1
   10840:	0000c697          	auipc	a3,0xc
   10844:	e8868693          	addi	a3,a3,-376 # 1c6c8 <__clzdi2+0x176>
   10848:	f43a                	sd	a4,40(sp)
   1084a:	483c                	lw	a5,80(s0)
   1084c:	1818                	addi	a4,sp,48
   1084e:	e0b6                	sd	a3,64(sp)
   10850:	ec3a                	sd	a4,24(sp)
   10852:	4685                	li	a3,1
   10854:	4709                	li	a4,2
   10856:	f826                	sd	s1,48(sp)
   10858:	fc2a                	sd	a0,56(sp)
   1085a:	e4b6                	sd	a3,72(sp)
   1085c:	d03a                	sw	a4,32(sp)
   1085e:	680c                	ld	a1,16(s0)
   10860:	cf8d                	beqz	a5,1089a <_puts_r+0x70>
   10862:	01059783          	lh	a5,16(a1) # 4010 <register_fini-0xc0a0>
   10866:	03279713          	slli	a4,a5,0x32
   1086a:	00074d63          	bltz	a4,10884 <_puts_r+0x5a>
   1086e:	0ac5a703          	lw	a4,172(a1)
   10872:	6689                	lui	a3,0x2
   10874:	8fd5                	or	a5,a5,a3
   10876:	76f9                	lui	a3,0xffffe
   10878:	16fd                	addi	a3,a3,-1
   1087a:	8f75                	and	a4,a4,a3
   1087c:	00f59823          	sh	a5,16(a1)
   10880:	0ae5a623          	sw	a4,172(a1)
   10884:	0830                	addi	a2,sp,24
   10886:	8522                	mv	a0,s0
   10888:	6dc020ef          	jal	ra,12f64 <__sfvwrite_r>
   1088c:	ed09                	bnez	a0,108a6 <_puts_r+0x7c>
   1088e:	4529                	li	a0,10
   10890:	70a6                	ld	ra,104(sp)
   10892:	7406                	ld	s0,96(sp)
   10894:	64e6                	ld	s1,88(sp)
   10896:	6165                	addi	sp,sp,112
   10898:	8082                	ret
   1089a:	8522                	mv	a0,s0
   1089c:	e42e                	sd	a1,8(sp)
   1089e:	344020ef          	jal	ra,12be2 <__sinit>
   108a2:	65a2                	ld	a1,8(sp)
   108a4:	bf7d                	j	10862 <_puts_r+0x38>
   108a6:	557d                	li	a0,-1
   108a8:	b7e5                	j	10890 <_puts_r+0x66>

00000000000108aa <puts>:
   108aa:	85aa                	mv	a1,a0
   108ac:	8501b503          	ld	a0,-1968(gp) # 1f5d8 <_impure_ptr>
   108b0:	bfad                	j	1082a <_puts_r>

00000000000108b2 <strlen>:
   108b2:	00757793          	andi	a5,a0,7
   108b6:	872a                	mv	a4,a0
   108b8:	ebb9                	bnez	a5,1090e <strlen+0x5c>
   108ba:	0000f697          	auipc	a3,0xf
   108be:	cce6b683          	ld	a3,-818(a3) # 1f588 <__SDATA_BEGIN__>
   108c2:	55fd                	li	a1,-1
   108c4:	6310                	ld	a2,0(a4)
   108c6:	0721                	addi	a4,a4,8
   108c8:	00d677b3          	and	a5,a2,a3
   108cc:	97b6                	add	a5,a5,a3
   108ce:	8fd1                	or	a5,a5,a2
   108d0:	8fd5                	or	a5,a5,a3
   108d2:	feb789e3          	beq	a5,a1,108c4 <strlen+0x12>
   108d6:	ff874683          	lbu	a3,-8(a4)
   108da:	40a707b3          	sub	a5,a4,a0
   108de:	c6a9                	beqz	a3,10928 <strlen+0x76>
   108e0:	ff974683          	lbu	a3,-7(a4)
   108e4:	ce9d                	beqz	a3,10922 <strlen+0x70>
   108e6:	ffa74683          	lbu	a3,-6(a4)
   108ea:	c6a9                	beqz	a3,10934 <strlen+0x82>
   108ec:	ffb74683          	lbu	a3,-5(a4)
   108f0:	ce9d                	beqz	a3,1092e <strlen+0x7c>
   108f2:	ffc74683          	lbu	a3,-4(a4)
   108f6:	ffd74603          	lbu	a2,-3(a4)
   108fa:	ffe74503          	lbu	a0,-2(a4)
   108fe:	ce95                	beqz	a3,1093a <strlen+0x88>
   10900:	c221                	beqz	a2,10940 <strlen+0x8e>
   10902:	00a03533          	snez	a0,a0
   10906:	953e                	add	a0,a0,a5
   10908:	1579                	addi	a0,a0,-2
   1090a:	8082                	ret
   1090c:	d6dd                	beqz	a3,108ba <strlen+0x8>
   1090e:	00074783          	lbu	a5,0(a4)
   10912:	0705                	addi	a4,a4,1
   10914:	00777693          	andi	a3,a4,7
   10918:	fbf5                	bnez	a5,1090c <strlen+0x5a>
   1091a:	8f09                	sub	a4,a4,a0
   1091c:	fff70513          	addi	a0,a4,-1
   10920:	8082                	ret
   10922:	ff978513          	addi	a0,a5,-7
   10926:	8082                	ret
   10928:	ff878513          	addi	a0,a5,-8
   1092c:	8082                	ret
   1092e:	ffb78513          	addi	a0,a5,-5
   10932:	8082                	ret
   10934:	ffa78513          	addi	a0,a5,-6
   10938:	8082                	ret
   1093a:	ffc78513          	addi	a0,a5,-4
   1093e:	8082                	ret
   10940:	ffd78513          	addi	a0,a5,-3
   10944:	8082                	ret

0000000000010946 <_vfprintf_r>:
   10946:	d8010113          	addi	sp,sp,-640
   1094a:	26113c23          	sd	ra,632(sp)
   1094e:	25413823          	sd	s4,592(sp)
   10952:	25513423          	sd	s5,584(sp)
   10956:	23913423          	sd	s9,552(sp)
   1095a:	8a2e                	mv	s4,a1
   1095c:	8cb2                	mv	s9,a2
   1095e:	e836                	sd	a3,16(sp)
   10960:	26813823          	sd	s0,624(sp)
   10964:	26913423          	sd	s1,616(sp)
   10968:	27213023          	sd	s2,608(sp)
   1096c:	25313c23          	sd	s3,600(sp)
   10970:	25613023          	sd	s6,576(sp)
   10974:	23713c23          	sd	s7,568(sp)
   10978:	23813823          	sd	s8,560(sp)
   1097c:	23a13023          	sd	s10,544(sp)
   10980:	21b13c23          	sd	s11,536(sp)
   10984:	8aaa                	mv	s5,a0
   10986:	2c5040ef          	jal	ra,1544a <_localeconv_r>
   1098a:	611c                	ld	a5,0(a0)
   1098c:	853e                	mv	a0,a5
   1098e:	fcbe                	sd	a5,120(sp)
   10990:	f23ff0ef          	jal	ra,108b2 <strlen>
   10994:	f8aa                	sd	a0,112(sp)
   10996:	e202                	sd	zero,256(sp)
   10998:	e602                	sd	zero,264(sp)
   1099a:	000a8663          	beqz	s5,109a6 <_vfprintf_r+0x60>
   1099e:	050aa783          	lw	a5,80(s5)
   109a2:	70078063          	beqz	a5,110a2 <_vfprintf_r+0x75c>
   109a6:	010a1703          	lh	a4,16(s4)
   109aa:	03071793          	slli	a5,a4,0x30
   109ae:	03271693          	slli	a3,a4,0x32
   109b2:	93c1                	srli	a5,a5,0x30
   109b4:	0006cf63          	bltz	a3,109d2 <_vfprintf_r+0x8c>
   109b8:	0aca2683          	lw	a3,172(s4)
   109bc:	6789                	lui	a5,0x2
   109be:	8fd9                	or	a5,a5,a4
   109c0:	7779                	lui	a4,0xffffe
   109c2:	177d                	addi	a4,a4,-1
   109c4:	8f75                	and	a4,a4,a3
   109c6:	00fa1823          	sh	a5,16(s4)
   109ca:	17c2                	slli	a5,a5,0x30
   109cc:	0aea2623          	sw	a4,172(s4)
   109d0:	93c1                	srli	a5,a5,0x30
   109d2:	0087f713          	andi	a4,a5,8
   109d6:	26070463          	beqz	a4,10c3e <_vfprintf_r+0x2f8>
   109da:	018a3703          	ld	a4,24(s4)
   109de:	26070063          	beqz	a4,10c3e <_vfprintf_r+0x2f8>
   109e2:	8be9                	andi	a5,a5,26
   109e4:	4729                	li	a4,10
   109e6:	26e78963          	beq	a5,a4,10c58 <_vfprintf_r+0x312>
   109ea:	000cc783          	lbu	a5,0(s9)
   109ee:	19010b93          	addi	s7,sp,400
   109f2:	ea5e                	sd	s7,272(sp)
   109f4:	f202                	sd	zero,288(sp)
   109f6:	10012c23          	sw	zero,280(sp)
   109fa:	f002                	sd	zero,32(sp)
   109fc:	f402                	sd	zero,40(sp)
   109fe:	e102                	sd	zero,128(sp)
   10a00:	f482                	sd	zero,104(sp)
   10a02:	e502                	sd	zero,136(sp)
   10a04:	e902                	sd	zero,144(sp)
   10a06:	e002                	sd	zero,0(sp)
   10a08:	835e                	mv	t1,s7
   10a0a:	4d41                	li	s10,16
   10a0c:	0000c917          	auipc	s2,0xc
   10a10:	ea490913          	addi	s2,s2,-348 # 1c8b0 <zeroes.4521>
   10a14:	1c078663          	beqz	a5,10be0 <_vfprintf_r+0x29a>
   10a18:	8466                	mv	s0,s9
   10a1a:	02500713          	li	a4,37
   10a1e:	30e78463          	beq	a5,a4,10d26 <_vfprintf_r+0x3e0>
   10a22:	00144783          	lbu	a5,1(s0)
   10a26:	0405                	addi	s0,s0,1
   10a28:	fbfd                	bnez	a5,10a1e <_vfprintf_r+0xd8>
   10a2a:	419404bb          	subw	s1,s0,s9
   10a2e:	1a048963          	beqz	s1,10be0 <_vfprintf_r+0x29a>
   10a32:	7712                	ld	a4,288(sp)
   10a34:	11812783          	lw	a5,280(sp)
   10a38:	01933023          	sd	s9,0(t1)
   10a3c:	9726                	add	a4,a4,s1
   10a3e:	2785                	addiw	a5,a5,1
   10a40:	00933423          	sd	s1,8(t1)
   10a44:	f23a                	sd	a4,288(sp)
   10a46:	10f12c23          	sw	a5,280(sp)
   10a4a:	0007871b          	sext.w	a4,a5
   10a4e:	479d                	li	a5,7
   10a50:	0341                	addi	t1,t1,16
   10a52:	2ee7c163          	blt	a5,a4,10d34 <_vfprintf_r+0x3ee>
   10a56:	6702                	ld	a4,0(sp)
   10a58:	00044783          	lbu	a5,0(s0)
   10a5c:	9f25                	addw	a4,a4,s1
   10a5e:	e03a                	sd	a4,0(sp)
   10a60:	18078063          	beqz	a5,10be0 <_vfprintf_r+0x29a>
   10a64:	00144f03          	lbu	t5,1(s0)
   10a68:	0c010fa3          	sb	zero,223(sp)
   10a6c:	0405                	addi	s0,s0,1
   10a6e:	5efd                	li	t4,-1
   10a70:	4b01                	li	s6,0
   10a72:	4481                	li	s1,0
   10a74:	49a5                	li	s3,9
   10a76:	02a00c13          	li	s8,42
   10a7a:	0405                	addi	s0,s0,1
   10a7c:	000f0d9b          	sext.w	s11,t5
   10a80:	05a00693          	li	a3,90
   10a84:	fe0d879b          	addiw	a5,s11,-32
   10a88:	0007871b          	sext.w	a4,a5
   10a8c:	04e6e663          	bltu	a3,a4,10ad8 <_vfprintf_r+0x192>
   10a90:	1782                	slli	a5,a5,0x20
   10a92:	0000c717          	auipc	a4,0xc
   10a96:	c9e70713          	addi	a4,a4,-866 # 1c730 <__clzdi2+0x1de>
   10a9a:	83f9                	srli	a5,a5,0x1e
   10a9c:	97ba                	add	a5,a5,a4
   10a9e:	439c                	lw	a5,0(a5)
   10aa0:	97ba                	add	a5,a5,a4
   10aa2:	8782                	jr	a5
   10aa4:	4b01                	li	s6,0
   10aa6:	00044703          	lbu	a4,0(s0)
   10aaa:	002b179b          	slliw	a5,s6,0x2
   10aae:	01678b3b          	addw	s6,a5,s6
   10ab2:	fd0d8f1b          	addiw	t5,s11,-48
   10ab6:	001b1b1b          	slliw	s6,s6,0x1
   10aba:	fd07079b          	addiw	a5,a4,-48
   10abe:	0405                	addi	s0,s0,1
   10ac0:	016f0b3b          	addw	s6,t5,s6
   10ac4:	00070d9b          	sext.w	s11,a4
   10ac8:	fcf9ffe3          	bgeu	s3,a5,10aa6 <_vfprintf_r+0x160>
   10acc:	fe0d879b          	addiw	a5,s11,-32
   10ad0:	0007871b          	sext.w	a4,a5
   10ad4:	fae6fee3          	bgeu	a3,a4,10a90 <_vfprintf_r+0x14a>
   10ad8:	100d8463          	beqz	s11,10be0 <_vfprintf_r+0x29a>
   10adc:	13b10423          	sb	s11,296(sp)
   10ae0:	0c010fa3          	sb	zero,223(sp)
   10ae4:	4985                	li	s3,1
   10ae6:	4c05                	li	s8,1
   10ae8:	12810c93          	addi	s9,sp,296
   10aec:	ec02                	sd	zero,24(sp)
   10aee:	4e81                	li	t4,0
   10af0:	e882                	sd	zero,80(sp)
   10af2:	f082                	sd	zero,96(sp)
   10af4:	ec82                	sd	zero,88(sp)
   10af6:	0024f793          	andi	a5,s1,2
   10afa:	0007829b          	sext.w	t0,a5
   10afe:	c391                	beqz	a5,10b02 <_vfprintf_r+0x1bc>
   10b00:	2989                	addiw	s3,s3,2
   10b02:	0844ff93          	andi	t6,s1,132
   10b06:	7792                	ld	a5,288(sp)
   10b08:	000f9663          	bnez	t6,10b14 <_vfprintf_r+0x1ce>
   10b0c:	413b06bb          	subw	a3,s6,s3
   10b10:	2cd046e3          	bgtz	a3,115dc <_vfprintf_r+0xc96>
   10b14:	0df14703          	lbu	a4,223(sp)
   10b18:	c70d                	beqz	a4,10b42 <_vfprintf_r+0x1fc>
   10b1a:	11812703          	lw	a4,280(sp)
   10b1e:	0df10693          	addi	a3,sp,223
   10b22:	00d33023          	sd	a3,0(t1)
   10b26:	2705                	addiw	a4,a4,1
   10b28:	4685                	li	a3,1
   10b2a:	0785                	addi	a5,a5,1
   10b2c:	00d33423          	sd	a3,8(t1)
   10b30:	10e12c23          	sw	a4,280(sp)
   10b34:	0007069b          	sext.w	a3,a4
   10b38:	f23e                	sd	a5,288(sp)
   10b3a:	471d                	li	a4,7
   10b3c:	0341                	addi	t1,t1,16
   10b3e:	42d74863          	blt	a4,a3,10f6e <_vfprintf_r+0x628>
   10b42:	02028563          	beqz	t0,10b6c <_vfprintf_r+0x226>
   10b46:	11812703          	lw	a4,280(sp)
   10b4a:	1194                	addi	a3,sp,224
   10b4c:	00d33023          	sd	a3,0(t1)
   10b50:	2705                	addiw	a4,a4,1
   10b52:	4689                	li	a3,2
   10b54:	0789                	addi	a5,a5,2
   10b56:	00d33423          	sd	a3,8(t1)
   10b5a:	10e12c23          	sw	a4,280(sp)
   10b5e:	0007069b          	sext.w	a3,a4
   10b62:	f23e                	sd	a5,288(sp)
   10b64:	471d                	li	a4,7
   10b66:	0341                	addi	t1,t1,16
   10b68:	30d74ce3          	blt	a4,a3,11680 <_vfprintf_r+0xd3a>
   10b6c:	08000713          	li	a4,128
   10b70:	06ef81e3          	beq	t6,a4,113d2 <_vfprintf_r+0xa8c>
   10b74:	418e8ebb          	subw	t4,t4,s8
   10b78:	0fd043e3          	bgtz	t4,1145e <_vfprintf_r+0xb18>
   10b7c:	1004f713          	andi	a4,s1,256
   10b80:	78071663          	bnez	a4,1130c <_vfprintf_r+0x9c6>
   10b84:	11812703          	lw	a4,280(sp)
   10b88:	97e2                	add	a5,a5,s8
   10b8a:	01933023          	sd	s9,0(t1)
   10b8e:	0017069b          	addiw	a3,a4,1
   10b92:	8736                	mv	a4,a3
   10b94:	01833423          	sd	s8,8(t1)
   10b98:	10e12c23          	sw	a4,280(sp)
   10b9c:	f23e                	sd	a5,288(sp)
   10b9e:	471d                	li	a4,7
   10ba0:	44d74963          	blt	a4,a3,10ff2 <_vfprintf_r+0x6ac>
   10ba4:	0341                	addi	t1,t1,16
   10ba6:	8891                	andi	s1,s1,4
   10ba8:	c489                	beqz	s1,10bb2 <_vfprintf_r+0x26c>
   10baa:	413b04bb          	subw	s1,s6,s3
   10bae:	2e9048e3          	bgtz	s1,1169e <_vfprintf_r+0xd58>
   10bb2:	875a                	mv	a4,s6
   10bb4:	013b5363          	bge	s6,s3,10bba <_vfprintf_r+0x274>
   10bb8:	874e                	mv	a4,s3
   10bba:	6682                	ld	a3,0(sp)
   10bbc:	9f35                	addw	a4,a4,a3
   10bbe:	e03a                	sd	a4,0(sp)
   10bc0:	10079ce3          	bnez	a5,114d8 <_vfprintf_r+0xb92>
   10bc4:	67e2                	ld	a5,24(sp)
   10bc6:	10012c23          	sw	zero,280(sp)
   10bca:	c789                	beqz	a5,10bd4 <_vfprintf_r+0x28e>
   10bcc:	65e2                	ld	a1,24(sp)
   10bce:	8556                	mv	a0,s5
   10bd0:	144020ef          	jal	ra,12d14 <_free_r>
   10bd4:	835e                	mv	t1,s7
   10bd6:	8ca2                	mv	s9,s0
   10bd8:	000cc783          	lbu	a5,0(s9)
   10bdc:	e2079ee3          	bnez	a5,10a18 <_vfprintf_r+0xd2>
   10be0:	7792                	ld	a5,288(sp)
   10be2:	c399                	beqz	a5,10be8 <_vfprintf_r+0x2a2>
   10be4:	2de0106f          	j	11ec2 <_vfprintf_r+0x157c>
   10be8:	010a5783          	lhu	a5,16(s4)
   10bec:	0407f793          	andi	a5,a5,64
   10bf0:	c399                	beqz	a5,10bf6 <_vfprintf_r+0x2b0>
   10bf2:	67c0106f          	j	1226e <_vfprintf_r+0x1928>
   10bf6:	27813083          	ld	ra,632(sp)
   10bfa:	27013403          	ld	s0,624(sp)
   10bfe:	6502                	ld	a0,0(sp)
   10c00:	26813483          	ld	s1,616(sp)
   10c04:	26013903          	ld	s2,608(sp)
   10c08:	25813983          	ld	s3,600(sp)
   10c0c:	25013a03          	ld	s4,592(sp)
   10c10:	24813a83          	ld	s5,584(sp)
   10c14:	24013b03          	ld	s6,576(sp)
   10c18:	23813b83          	ld	s7,568(sp)
   10c1c:	23013c03          	ld	s8,560(sp)
   10c20:	22813c83          	ld	s9,552(sp)
   10c24:	22013d03          	ld	s10,544(sp)
   10c28:	21813d83          	ld	s11,536(sp)
   10c2c:	28010113          	addi	sp,sp,640
   10c30:	8082                	ret
   10c32:	0104e493          	ori	s1,s1,16
   10c36:	00044f03          	lbu	t5,0(s0)
   10c3a:	2481                	sext.w	s1,s1
   10c3c:	bd3d                	j	10a7a <_vfprintf_r+0x134>
   10c3e:	85d2                	mv	a1,s4
   10c40:	8556                	mv	a0,s5
   10c42:	1c1010ef          	jal	ra,12602 <__swsetup_r>
   10c46:	c119                	beqz	a0,10c4c <_vfprintf_r+0x306>
   10c48:	6260106f          	j	1226e <_vfprintf_r+0x1928>
   10c4c:	010a5783          	lhu	a5,16(s4)
   10c50:	4729                	li	a4,10
   10c52:	8be9                	andi	a5,a5,26
   10c54:	d8e79be3          	bne	a5,a4,109ea <_vfprintf_r+0xa4>
   10c58:	012a1783          	lh	a5,18(s4)
   10c5c:	d807c7e3          	bltz	a5,109ea <_vfprintf_r+0xa4>
   10c60:	66c2                	ld	a3,16(sp)
   10c62:	8666                	mv	a2,s9
   10c64:	85d2                	mv	a1,s4
   10c66:	8556                	mv	a0,s5
   10c68:	107010ef          	jal	ra,1256e <__sbprintf>
   10c6c:	e02a                	sd	a0,0(sp)
   10c6e:	b761                	j	10bf6 <_vfprintf_r+0x2b0>
   10c70:	0104e493          	ori	s1,s1,16
   10c74:	2481                	sext.w	s1,s1
   10c76:	66c2                	ld	a3,16(sp)
   10c78:	0204f793          	andi	a5,s1,32
   10c7c:	00868713          	addi	a4,a3,8
   10c80:	3a078263          	beqz	a5,11024 <_vfprintf_r+0x6de>
   10c84:	629c                	ld	a5,0(a3)
   10c86:	89be                	mv	s3,a5
   10c88:	3a07cc63          	bltz	a5,11040 <_vfprintf_r+0x6fa>
   10c8c:	57fd                	li	a5,-1
   10c8e:	48fe87e3          	beq	t4,a5,1191c <_vfprintf_r+0xfd6>
   10c92:	f7f4f493          	andi	s1,s1,-129
   10c96:	e83a                	sd	a4,16(sp)
   10c98:	0004881b          	sext.w	a6,s1
   10c9c:	120993e3          	bnez	s3,115c2 <_vfprintf_r+0xc7c>
   10ca0:	120e94e3          	bnez	t4,115c8 <_vfprintf_r+0xc82>
   10ca4:	84c2                	mv	s1,a6
   10ca6:	4e81                	li	t4,0
   10ca8:	4c01                	li	s8,0
   10caa:	18c10c93          	addi	s9,sp,396
   10cae:	000c099b          	sext.w	s3,s8
   10cb2:	01dc5463          	bge	s8,t4,10cba <_vfprintf_r+0x374>
   10cb6:	000e899b          	sext.w	s3,t4
   10cba:	0df14783          	lbu	a5,223(sp)
   10cbe:	ec02                	sd	zero,24(sp)
   10cc0:	e882                	sd	zero,80(sp)
   10cc2:	f082                	sd	zero,96(sp)
   10cc4:	ec82                	sd	zero,88(sp)
   10cc6:	e20788e3          	beqz	a5,10af6 <_vfprintf_r+0x1b0>
   10cca:	2985                	addiw	s3,s3,1
   10ccc:	b52d                	j	10af6 <_vfprintf_r+0x1b0>
   10cce:	0104e493          	ori	s1,s1,16
   10cd2:	2481                	sext.w	s1,s1
   10cd4:	66c2                	ld	a3,16(sp)
   10cd6:	0204f793          	andi	a5,s1,32
   10cda:	00868713          	addi	a4,a3,8
   10cde:	32078463          	beqz	a5,11006 <_vfprintf_r+0x6c0>
   10ce2:	0006b983          	ld	s3,0(a3)
   10ce6:	bff4f493          	andi	s1,s1,-1025
   10cea:	0004881b          	sext.w	a6,s1
   10cee:	e83a                	sd	a4,16(sp)
   10cf0:	4781                	li	a5,0
   10cf2:	0c010fa3          	sb	zero,223(sp)
   10cf6:	577d                	li	a4,-1
   10cf8:	36ee8063          	beq	t4,a4,11058 <_vfprintf_r+0x712>
   10cfc:	f7f87493          	andi	s1,a6,-129
   10d00:	2481                	sext.w	s1,s1
   10d02:	0a099ce3          	bnez	s3,115ba <_vfprintf_r+0xc74>
   10d06:	5c0e9663          	bnez	t4,112d2 <_vfprintf_r+0x98c>
   10d0a:	ffd1                	bnez	a5,10ca6 <_vfprintf_r+0x360>
   10d0c:	00187c13          	andi	s8,a6,1
   10d10:	18c10c93          	addi	s9,sp,396
   10d14:	f80c0de3          	beqz	s8,10cae <_vfprintf_r+0x368>
   10d18:	03000793          	li	a5,48
   10d1c:	18f105a3          	sb	a5,395(sp)
   10d20:	18b10c93          	addi	s9,sp,395
   10d24:	b769                	j	10cae <_vfprintf_r+0x368>
   10d26:	419404bb          	subw	s1,s0,s9
   10d2a:	d00494e3          	bnez	s1,10a32 <_vfprintf_r+0xec>
   10d2e:	00044783          	lbu	a5,0(s0)
   10d32:	b33d                	j	10a60 <_vfprintf_r+0x11a>
   10d34:	0a10                	addi	a2,sp,272
   10d36:	85d2                	mv	a1,s4
   10d38:	8556                	mv	a0,s5
   10d3a:	1ca080ef          	jal	ra,18f04 <__sprint_r>
   10d3e:	ea0515e3          	bnez	a0,10be8 <_vfprintf_r+0x2a2>
   10d42:	835e                	mv	t1,s7
   10d44:	bb09                	j	10a56 <_vfprintf_r+0x110>
   10d46:	0084f793          	andi	a5,s1,8
   10d4a:	3a079ee3          	bnez	a5,11906 <_vfprintf_r+0xfc0>
   10d4e:	67c2                	ld	a5,16(sp)
   10d50:	ec1a                	sd	t1,24(sp)
   10d52:	e476                	sd	t4,8(sp)
   10d54:	2388                	fld	fa0,0(a5)
   10d56:	00878693          	addi	a3,a5,8 # 2008 <register_fini-0xe0a8>
   10d5a:	e836                	sd	a3,16(sp)
   10d5c:	5040b0ef          	jal	ra,1c260 <__extenddftf2>
   10d60:	6362                	ld	t1,24(sp)
   10d62:	6ea2                	ld	t4,8(sp)
   10d64:	e22a                	sd	a0,256(sp)
   10d66:	e62e                	sd	a1,264(sp)
   10d68:	0208                	addi	a0,sp,256
   10d6a:	ec1a                	sd	t1,24(sp)
   10d6c:	e476                	sd	t4,8(sp)
   10d6e:	6a0040ef          	jal	ra,1540e <_ldcheck>
   10d72:	d5aa                	sw	a0,232(sp)
   10d74:	4789                	li	a5,2
   10d76:	6ea2                	ld	t4,8(sp)
   10d78:	6362                	ld	t1,24(sp)
   10d7a:	64f502e3          	beq	a0,a5,11bbe <_vfprintf_r+0x1278>
   10d7e:	4785                	li	a5,1
   10d80:	6ef50ee3          	beq	a0,a5,11c7c <_vfprintf_r+0x1336>
   10d84:	06100793          	li	a5,97
   10d88:	00fd9463          	bne	s11,a5,10d90 <_vfprintf_r+0x44a>
   10d8c:	5740106f          	j	12300 <_vfprintf_r+0x19ba>
   10d90:	04100793          	li	a5,65
   10d94:	00fd9463          	bne	s11,a5,10d9c <_vfprintf_r+0x456>
   10d98:	1380106f          	j	11ed0 <_vfprintf_r+0x158a>
   10d9c:	fdfdf713          	andi	a4,s11,-33
   10da0:	57fd                	li	a5,-1
   10da2:	f0ba                	sd	a4,96(sp)
   10da4:	00fe9463          	bne	t4,a5,10dac <_vfprintf_r+0x466>
   10da8:	6140106f          	j	123bc <_vfprintf_r+0x1a76>
   10dac:	04700793          	li	a5,71
   10db0:	00f71463          	bne	a4,a5,10db8 <_vfprintf_r+0x472>
   10db4:	5c40106f          	j	12378 <_vfprintf_r+0x1a32>
   10db8:	69b2                	ld	s3,264(sp)
   10dba:	1004e793          	ori	a5,s1,256
   10dbe:	ed26                	sd	s1,152(sp)
   10dc0:	6c12                	ld	s8,256(sp)
   10dc2:	2781                	sext.w	a5,a5
   10dc4:	0009d463          	bgez	s3,10dcc <_vfprintf_r+0x486>
   10dc8:	67a0106f          	j	12442 <_vfprintf_r+0x1afc>
   10dcc:	e582                	sd	zero,200(sp)
   10dce:	84be                	mv	s1,a5
   10dd0:	ec02                	sd	zero,24(sp)
   10dd2:	2701                	sext.w	a4,a4
   10dd4:	04600793          	li	a5,70
   10dd8:	00f71463          	bne	a4,a5,10de0 <_vfprintf_r+0x49a>
   10ddc:	38a0106f          	j	12166 <_vfprintf_r+0x1820>
   10de0:	7706                	ld	a4,96(sp)
   10de2:	04500793          	li	a5,69
   10de6:	00f70463          	beq	a4,a5,10dee <_vfprintf_r+0x4a8>
   10dea:	33c0106f          	j	12126 <_vfprintf_r+0x17e0>
   10dee:	001e871b          	addiw	a4,t4,1
   10df2:	0f810893          	addi	a7,sp,248
   10df6:	0ec10813          	addi	a6,sp,236
   10dfa:	11bc                	addi	a5,sp,232
   10dfc:	4689                	li	a3,2
   10dfe:	85e2                	mv	a1,s8
   10e00:	864e                	mv	a2,s3
   10e02:	8556                	mv	a0,s5
   10e04:	f81a                	sd	t1,48(sp)
   10e06:	f076                	sd	t4,32(sp)
   10e08:	e43a                	sd	a4,8(sp)
   10e0a:	78c030ef          	jal	ra,14596 <_ldtoa_r>
   10e0e:	6722                	ld	a4,8(sp)
   10e10:	7e82                	ld	t4,32(sp)
   10e12:	7342                	ld	t1,48(sp)
   10e14:	8caa                	mv	s9,a0
   10e16:	00e508b3          	add	a7,a0,a4
   10e1a:	4601                	li	a2,0
   10e1c:	4681                	li	a3,0
   10e1e:	8562                	mv	a0,s8
   10e20:	85ce                	mv	a1,s3
   10e22:	f846                	sd	a7,48(sp)
   10e24:	f01a                	sd	t1,32(sp)
   10e26:	e476                	sd	t4,8(sp)
   10e28:	3540a0ef          	jal	ra,1b17c <__eqtf2>
   10e2c:	78c2                	ld	a7,48(sp)
   10e2e:	6ea2                	ld	t4,8(sp)
   10e30:	7302                	ld	t1,32(sp)
   10e32:	87c6                	mv	a5,a7
   10e34:	cd11                	beqz	a0,10e50 <_vfprintf_r+0x50a>
   10e36:	77ee                	ld	a5,248(sp)
   10e38:	0117fc63          	bgeu	a5,a7,10e50 <_vfprintf_r+0x50a>
   10e3c:	03000693          	li	a3,48
   10e40:	00178713          	addi	a4,a5,1
   10e44:	fdba                	sd	a4,248(sp)
   10e46:	00d78023          	sb	a3,0(a5)
   10e4a:	77ee                	ld	a5,248(sp)
   10e4c:	ff17eae3          	bltu	a5,a7,10e40 <_vfprintf_r+0x4fa>
   10e50:	419787bb          	subw	a5,a5,s9
   10e54:	f03e                	sd	a5,32(sp)
   10e56:	572e                	lw	a4,232(sp)
   10e58:	04700793          	li	a5,71
   10e5c:	ecba                	sd	a4,88(sp)
   10e5e:	7706                	ld	a4,96(sp)
   10e60:	00f71463          	bne	a4,a5,10e68 <_vfprintf_r+0x522>
   10e64:	2200106f          	j	12084 <_vfprintf_r+0x173e>
   10e68:	7706                	ld	a4,96(sp)
   10e6a:	04600793          	li	a5,70
   10e6e:	00f71463          	bne	a4,a5,10e76 <_vfprintf_r+0x530>
   10e72:	3c40106f          	j	12236 <_vfprintf_r+0x18f0>
   10e76:	67e6                	ld	a5,88(sp)
   10e78:	7586                	ld	a1,96(sp)
   10e7a:	04100613          	li	a2,65
   10e7e:	37fd                	addiw	a5,a5,-1
   10e80:	d5be                	sw	a5,232(sp)
   10e82:	0ffdf713          	andi	a4,s11,255
   10e86:	4681                	li	a3,0
   10e88:	00c59663          	bne	a1,a2,10e94 <_vfprintf_r+0x54e>
   10e8c:	273d                	addiw	a4,a4,15
   10e8e:	0ff77713          	andi	a4,a4,255
   10e92:	4685                	li	a3,1
   10e94:	0ee10823          	sb	a4,240(sp)
   10e98:	02b00713          	li	a4,43
   10e9c:	0007d763          	bgez	a5,10eaa <_vfprintf_r+0x564>
   10ea0:	6766                	ld	a4,88(sp)
   10ea2:	4785                	li	a5,1
   10ea4:	9f99                	subw	a5,a5,a4
   10ea6:	02d00713          	li	a4,45
   10eaa:	0ee108a3          	sb	a4,241(sp)
   10eae:	4725                	li	a4,9
   10eb0:	00f74463          	blt	a4,a5,10eb8 <_vfprintf_r+0x572>
   10eb4:	5e00106f          	j	12494 <_vfprintf_r+0x1b4e>
   10eb8:	0ff10513          	addi	a0,sp,255
   10ebc:	85aa                	mv	a1,a0
   10ebe:	46a9                	li	a3,10
   10ec0:	06300e93          	li	t4,99
   10ec4:	02d7e73b          	remw	a4,a5,a3
   10ec8:	862e                	mv	a2,a1
   10eca:	88be                	mv	a7,a5
   10ecc:	15fd                	addi	a1,a1,-1
   10ece:	0307071b          	addiw	a4,a4,48
   10ed2:	fee60fa3          	sb	a4,-1(a2)
   10ed6:	02d7c7bb          	divw	a5,a5,a3
   10eda:	ff1ec5e3          	blt	t4,a7,10ec4 <_vfprintf_r+0x57e>
   10ede:	0307879b          	addiw	a5,a5,48
   10ee2:	0ff7f693          	andi	a3,a5,255
   10ee6:	fed58fa3          	sb	a3,-1(a1)
   10eea:	ffe60793          	addi	a5,a2,-2
   10eee:	00a7e463          	bltu	a5,a0,10ef6 <_vfprintf_r+0x5b0>
   10ef2:	6560106f          	j	12548 <_vfprintf_r+0x1c02>
   10ef6:	0f210713          	addi	a4,sp,242
   10efa:	a019                	j	10f00 <_vfprintf_r+0x5ba>
   10efc:	0007c683          	lbu	a3,0(a5)
   10f00:	00d70023          	sb	a3,0(a4)
   10f04:	0785                	addi	a5,a5,1
   10f06:	0705                	addi	a4,a4,1
   10f08:	fea79ae3          	bne	a5,a0,10efc <_vfprintf_r+0x5b6>
   10f0c:	10110793          	addi	a5,sp,257
   10f10:	0f210713          	addi	a4,sp,242
   10f14:	8f91                	sub	a5,a5,a2
   10f16:	97ba                	add	a5,a5,a4
   10f18:	1998                	addi	a4,sp,240
   10f1a:	9f99                	subw	a5,a5,a4
   10f1c:	e13e                	sd	a5,128(sp)
   10f1e:	678a                	ld	a5,128(sp)
   10f20:	7682                	ld	a3,32(sp)
   10f22:	4705                	li	a4,1
   10f24:	00f68c3b          	addw	s8,a3,a5
   10f28:	87e2                	mv	a5,s8
   10f2a:	00d74463          	blt	a4,a3,10f32 <_vfprintf_r+0x5ec>
   10f2e:	5a00106f          	j	124ce <_vfprintf_r+0x1b88>
   10f32:	7746                	ld	a4,112(sp)
   10f34:	00e78c3b          	addw	s8,a5,a4
   10f38:	67ea                	ld	a5,152(sp)
   10f3a:	fffc4993          	not	s3,s8
   10f3e:	43f9d993          	srai	s3,s3,0x3f
   10f42:	bff7f493          	andi	s1,a5,-1025
   10f46:	2481                	sext.w	s1,s1
   10f48:	013c79b3          	and	s3,s8,s3
   10f4c:	1004e493          	ori	s1,s1,256
   10f50:	2981                	sext.w	s3,s3
   10f52:	e882                	sd	zero,80(sp)
   10f54:	f082                	sd	zero,96(sp)
   10f56:	ec82                	sd	zero,88(sp)
   10f58:	67ae                	ld	a5,200(sp)
   10f5a:	e399                	bnez	a5,10f60 <_vfprintf_r+0x61a>
   10f5c:	17e0106f          	j	120da <_vfprintf_r+0x1794>
   10f60:	02d00793          	li	a5,45
   10f64:	0cf10fa3          	sb	a5,223(sp)
   10f68:	4e81                	li	t4,0
   10f6a:	2985                	addiw	s3,s3,1
   10f6c:	b669                	j	10af6 <_vfprintf_r+0x1b0>
   10f6e:	0a10                	addi	a2,sp,272
   10f70:	85d2                	mv	a1,s4
   10f72:	8556                	mv	a0,s5
   10f74:	fc76                	sd	t4,56(sp)
   10f76:	f87e                	sd	t6,48(sp)
   10f78:	e416                	sd	t0,8(sp)
   10f7a:	78b070ef          	jal	ra,18f04 <__sprint_r>
   10f7e:	56051463          	bnez	a0,114e6 <_vfprintf_r+0xba0>
   10f82:	7792                	ld	a5,288(sp)
   10f84:	7ee2                	ld	t4,56(sp)
   10f86:	7fc2                	ld	t6,48(sp)
   10f88:	62a2                	ld	t0,8(sp)
   10f8a:	835e                	mv	t1,s7
   10f8c:	be5d                	j	10b42 <_vfprintf_r+0x1fc>
   10f8e:	76e6                	ld	a3,120(sp)
   10f90:	7746                	ld	a4,112(sp)
   10f92:	0341                	addi	t1,t1,16
   10f94:	fed33823          	sd	a3,-16(t1)
   10f98:	11812683          	lw	a3,280(sp)
   10f9c:	97ba                	add	a5,a5,a4
   10f9e:	fee33c23          	sd	a4,-8(t1)
   10fa2:	2685                	addiw	a3,a3,1
   10fa4:	0006871b          	sext.w	a4,a3
   10fa8:	10d12c23          	sw	a3,280(sp)
   10fac:	f23e                	sd	a5,288(sp)
   10fae:	469d                	li	a3,7
   10fb0:	00e6de63          	bge	a3,a4,10fcc <_vfprintf_r+0x686>
   10fb4:	0a10                	addi	a2,sp,272
   10fb6:	85d2                	mv	a1,s4
   10fb8:	8556                	mv	a0,s5
   10fba:	74b070ef          	jal	ra,18f04 <__sprint_r>
   10fbe:	52051463          	bnez	a0,114e6 <_vfprintf_r+0xba0>
   10fc2:	562e                	lw	a2,232(sp)
   10fc4:	7792                	ld	a5,288(sp)
   10fc6:	11812703          	lw	a4,280(sp)
   10fca:	835e                	mv	t1,s7
   10fcc:	00065463          	bgez	a2,10fd4 <_vfprintf_r+0x68e>
   10fd0:	2a60106f          	j	12276 <_vfprintf_r+0x1930>
   10fd4:	7682                	ld	a3,32(sp)
   10fd6:	2705                	addiw	a4,a4,1
   10fd8:	10e12c23          	sw	a4,280(sp)
   10fdc:	97b6                	add	a5,a5,a3
   10fde:	00d33423          	sd	a3,8(t1)
   10fe2:	01933023          	sd	s9,0(t1)
   10fe6:	0007069b          	sext.w	a3,a4
   10fea:	f23e                	sd	a5,288(sp)
   10fec:	471d                	li	a4,7
   10fee:	bad75be3          	bge	a4,a3,10ba4 <_vfprintf_r+0x25e>
   10ff2:	0a10                	addi	a2,sp,272
   10ff4:	85d2                	mv	a1,s4
   10ff6:	8556                	mv	a0,s5
   10ff8:	70d070ef          	jal	ra,18f04 <__sprint_r>
   10ffc:	4e051563          	bnez	a0,114e6 <_vfprintf_r+0xba0>
   11000:	7792                	ld	a5,288(sp)
   11002:	835e                	mv	t1,s7
   11004:	b64d                	j	10ba6 <_vfprintf_r+0x260>
   11006:	0104f793          	andi	a5,s1,16
   1100a:	0e0799e3          	bnez	a5,118fc <_vfprintf_r+0xfb6>
   1100e:	66c2                	ld	a3,16(sp)
   11010:	0404f793          	andi	a5,s1,64
   11014:	0006a983          	lw	s3,0(a3)
   11018:	44078ae3          	beqz	a5,11c6c <_vfprintf_r+0x1326>
   1101c:	19c2                	slli	s3,s3,0x30
   1101e:	0309d993          	srli	s3,s3,0x30
   11022:	b1d1                	j	10ce6 <_vfprintf_r+0x3a0>
   11024:	0104f793          	andi	a5,s1,16
   11028:	0c0795e3          	bnez	a5,118f2 <_vfprintf_r+0xfac>
   1102c:	0404f793          	andi	a5,s1,64
   11030:	40078de3          	beqz	a5,11c4a <_vfprintf_r+0x1304>
   11034:	67c2                	ld	a5,16(sp)
   11036:	00079983          	lh	s3,0(a5)
   1103a:	87ce                	mv	a5,s3
   1103c:	c407d8e3          	bgez	a5,10c8c <_vfprintf_r+0x346>
   11040:	02d00793          	li	a5,45
   11044:	0cf10fa3          	sb	a5,223(sp)
   11048:	e83a                	sd	a4,16(sp)
   1104a:	577d                	li	a4,-1
   1104c:	413009b3          	neg	s3,s3
   11050:	8826                	mv	a6,s1
   11052:	4785                	li	a5,1
   11054:	caee94e3          	bne	t4,a4,10cfc <_vfprintf_r+0x3b6>
   11058:	4705                	li	a4,1
   1105a:	56e78463          	beq	a5,a4,115c2 <_vfprintf_r+0xc7c>
   1105e:	4709                	li	a4,2
   11060:	28e78263          	beq	a5,a4,112e4 <_vfprintf_r+0x99e>
   11064:	18c10c13          	addi	s8,sp,396
   11068:	8ce2                	mv	s9,s8
   1106a:	0079f793          	andi	a5,s3,7
   1106e:	03078793          	addi	a5,a5,48
   11072:	fefc8fa3          	sb	a5,-1(s9)
   11076:	0039d993          	srli	s3,s3,0x3
   1107a:	8766                	mv	a4,s9
   1107c:	1cfd                	addi	s9,s9,-1
   1107e:	fe0996e3          	bnez	s3,1106a <_vfprintf_r+0x724>
   11082:	00187693          	andi	a3,a6,1
   11086:	26068f63          	beqz	a3,11304 <_vfprintf_r+0x9be>
   1108a:	03000693          	li	a3,48
   1108e:	26d78b63          	beq	a5,a3,11304 <_vfprintf_r+0x9be>
   11092:	1779                	addi	a4,a4,-2
   11094:	fedc8fa3          	sb	a3,-1(s9)
   11098:	40ec0c3b          	subw	s8,s8,a4
   1109c:	84c2                	mv	s1,a6
   1109e:	8cba                	mv	s9,a4
   110a0:	b139                	j	10cae <_vfprintf_r+0x368>
   110a2:	8556                	mv	a0,s5
   110a4:	33f010ef          	jal	ra,12be2 <__sinit>
   110a8:	b8fd                	j	109a6 <_vfprintf_r+0x60>
   110aa:	67c2                	ld	a5,16(sp)
   110ac:	0c010fa3          	sb	zero,223(sp)
   110b0:	0007bc83          	ld	s9,0(a5)
   110b4:	00878693          	addi	a3,a5,8
   110b8:	1c0c85e3          	beqz	s9,11a82 <_vfprintf_r+0x113c>
   110bc:	57fd                	li	a5,-1
   110be:	34fe82e3          	beq	t4,a5,11c02 <_vfprintf_r+0x12bc>
   110c2:	8676                	mv	a2,t4
   110c4:	4581                	li	a1,0
   110c6:	8566                	mv	a0,s9
   110c8:	f836                	sd	a3,48(sp)
   110ca:	e81a                	sd	t1,16(sp)
   110cc:	e476                	sd	t4,8(sp)
   110ce:	3ab040ef          	jal	ra,15c78 <memchr>
   110d2:	ec2a                	sd	a0,24(sp)
   110d4:	6ea2                	ld	t4,8(sp)
   110d6:	6342                	ld	t1,16(sp)
   110d8:	76c2                	ld	a3,48(sp)
   110da:	e119                	bnez	a0,110e0 <_vfprintf_r+0x79a>
   110dc:	1120106f          	j	121ee <_vfprintf_r+0x18a8>
   110e0:	67e2                	ld	a5,24(sp)
   110e2:	e836                	sd	a3,16(sp)
   110e4:	ec02                	sd	zero,24(sp)
   110e6:	41978c3b          	subw	s8,a5,s9
   110ea:	fffc4993          	not	s3,s8
   110ee:	0df14783          	lbu	a5,223(sp)
   110f2:	43f9d993          	srai	s3,s3,0x3f
   110f6:	013c79b3          	and	s3,s8,s3
   110fa:	e882                	sd	zero,80(sp)
   110fc:	f082                	sd	zero,96(sp)
   110fe:	ec82                	sd	zero,88(sp)
   11100:	2981                	sext.w	s3,s3
   11102:	4e81                	li	t4,0
   11104:	bc0793e3          	bnez	a5,10cca <_vfprintf_r+0x384>
   11108:	b2fd                	j	10af6 <_vfprintf_r+0x1b0>
   1110a:	6742                	ld	a4,16(sp)
   1110c:	0c010fa3          	sb	zero,223(sp)
   11110:	4985                	li	s3,1
   11112:	431c                	lw	a5,0(a4)
   11114:	0721                	addi	a4,a4,8
   11116:	e83a                	sd	a4,16(sp)
   11118:	12f10423          	sb	a5,296(sp)
   1111c:	4c05                	li	s8,1
   1111e:	12810c93          	addi	s9,sp,296
   11122:	b2e9                	j	10aec <_vfprintf_r+0x1a6>
   11124:	00044f03          	lbu	t5,0(s0)
   11128:	0044e493          	ori	s1,s1,4
   1112c:	2481                	sext.w	s1,s1
   1112e:	b2b1                	j	10a7a <_vfprintf_r+0x134>
   11130:	02b00793          	li	a5,43
   11134:	00044f03          	lbu	t5,0(s0)
   11138:	0cf10fa3          	sb	a5,223(sp)
   1113c:	ba3d                	j	10a7a <_vfprintf_r+0x134>
   1113e:	0804e493          	ori	s1,s1,128
   11142:	00044f03          	lbu	t5,0(s0)
   11146:	2481                	sext.w	s1,s1
   11148:	ba0d                	j	10a7a <_vfprintf_r+0x134>
   1114a:	00044703          	lbu	a4,0(s0)
   1114e:	00140793          	addi	a5,s0,1
   11152:	00070d9b          	sext.w	s11,a4
   11156:	00ec1463          	bne	s8,a4,1115e <_vfprintf_r+0x818>
   1115a:	3d20106f          	j	1252c <_vfprintf_r+0x1be6>
   1115e:	fd07071b          	addiw	a4,a4,-48
   11162:	843e                	mv	s0,a5
   11164:	4e81                	li	t4,0
   11166:	90e9efe3          	bltu	s3,a4,10a84 <_vfprintf_r+0x13e>
   1116a:	00044d83          	lbu	s11,0(s0)
   1116e:	002e979b          	slliw	a5,t4,0x2
   11172:	01d78ebb          	addw	t4,a5,t4
   11176:	001e9e9b          	slliw	t4,t4,0x1
   1117a:	00ee8ebb          	addw	t4,t4,a4
   1117e:	fd0d871b          	addiw	a4,s11,-48
   11182:	0405                	addi	s0,s0,1
   11184:	fee9f3e3          	bgeu	s3,a4,1116a <_vfprintf_r+0x824>
   11188:	b8f5                	j	10a84 <_vfprintf_r+0x13e>
   1118a:	67c2                	ld	a5,16(sp)
   1118c:	00044f03          	lbu	t5,0(s0)
   11190:	0007ab03          	lw	s6,0(a5)
   11194:	07a1                	addi	a5,a5,8
   11196:	e83e                	sd	a5,16(sp)
   11198:	8e0b51e3          	bgez	s6,10a7a <_vfprintf_r+0x134>
   1119c:	41600b3b          	negw	s6,s6
   111a0:	b761                	j	11128 <_vfprintf_r+0x7e2>
   111a2:	8556                	mv	a0,s5
   111a4:	ec1a                	sd	t1,24(sp)
   111a6:	e476                	sd	t4,8(sp)
   111a8:	2a2040ef          	jal	ra,1544a <_localeconv_r>
   111ac:	651c                	ld	a5,8(a0)
   111ae:	853e                	mv	a0,a5
   111b0:	e93e                	sd	a5,144(sp)
   111b2:	f00ff0ef          	jal	ra,108b2 <strlen>
   111b6:	87aa                	mv	a5,a0
   111b8:	8556                	mv	a0,s5
   111ba:	8dbe                	mv	s11,a5
   111bc:	e53e                	sd	a5,136(sp)
   111be:	28c040ef          	jal	ra,1544a <_localeconv_r>
   111c2:	6918                	ld	a4,16(a0)
   111c4:	6ea2                	ld	t4,8(sp)
   111c6:	6362                	ld	t1,24(sp)
   111c8:	f4ba                	sd	a4,104(sp)
   111ca:	00044f03          	lbu	t5,0(s0)
   111ce:	8a0d86e3          	beqz	s11,10a7a <_vfprintf_r+0x134>
   111d2:	8a0704e3          	beqz	a4,10a7a <_vfprintf_r+0x134>
   111d6:	00074783          	lbu	a5,0(a4)
   111da:	8a0780e3          	beqz	a5,10a7a <_vfprintf_r+0x134>
   111de:	4004e493          	ori	s1,s1,1024
   111e2:	2481                	sext.w	s1,s1
   111e4:	b859                	j	10a7a <_vfprintf_r+0x134>
   111e6:	0014e493          	ori	s1,s1,1
   111ea:	00044f03          	lbu	t5,0(s0)
   111ee:	2481                	sext.w	s1,s1
   111f0:	b069                	j	10a7a <_vfprintf_r+0x134>
   111f2:	0df14783          	lbu	a5,223(sp)
   111f6:	00044f03          	lbu	t5,0(s0)
   111fa:	880790e3          	bnez	a5,10a7a <_vfprintf_r+0x134>
   111fe:	02000793          	li	a5,32
   11202:	0cf10fa3          	sb	a5,223(sp)
   11206:	b895                	j	10a7a <_vfprintf_r+0x134>
   11208:	0084e493          	ori	s1,s1,8
   1120c:	00044f03          	lbu	t5,0(s0)
   11210:	2481                	sext.w	s1,s1
   11212:	b0a5                	j	10a7a <_vfprintf_r+0x134>
   11214:	0104e493          	ori	s1,s1,16
   11218:	0004881b          	sext.w	a6,s1
   1121c:	66c2                	ld	a3,16(sp)
   1121e:	02087793          	andi	a5,a6,32
   11222:	00868713          	addi	a4,a3,8
   11226:	68078463          	beqz	a5,118ae <_vfprintf_r+0xf68>
   1122a:	0006b983          	ld	s3,0(a3)
   1122e:	4785                	li	a5,1
   11230:	e83a                	sd	a4,16(sp)
   11232:	b4c1                	j	10cf2 <_vfprintf_r+0x3ac>
   11234:	0204e493          	ori	s1,s1,32
   11238:	00044f03          	lbu	t5,0(s0)
   1123c:	2481                	sext.w	s1,s1
   1123e:	83dff06f          	j	10a7a <_vfprintf_r+0x134>
   11242:	6742                	ld	a4,16(sp)
   11244:	77e1                	lui	a5,0xffff8
   11246:	8307c793          	xori	a5,a5,-2000
   1124a:	0ef11023          	sh	a5,224(sp)
   1124e:	00870793          	addi	a5,a4,8
   11252:	0024e493          	ori	s1,s1,2
   11256:	e83e                	sd	a5,16(sp)
   11258:	0000b797          	auipc	a5,0xb
   1125c:	4b078793          	addi	a5,a5,1200 # 1c708 <__clzdi2+0x1b6>
   11260:	f43e                	sd	a5,40(sp)
   11262:	00073983          	ld	s3,0(a4)
   11266:	0004881b          	sext.w	a6,s1
   1126a:	4789                	li	a5,2
   1126c:	07800d93          	li	s11,120
   11270:	b449                	j	10cf2 <_vfprintf_r+0x3ac>
   11272:	66c2                	ld	a3,16(sp)
   11274:	0204f793          	andi	a5,s1,32
   11278:	6298                	ld	a4,0(a3)
   1127a:	06a1                	addi	a3,a3,8
   1127c:	e836                	sd	a3,16(sp)
   1127e:	64079e63          	bnez	a5,118da <_vfprintf_r+0xf94>
   11282:	0104f793          	andi	a5,s1,16
   11286:	64079a63          	bnez	a5,118da <_vfprintf_r+0xf94>
   1128a:	0404f793          	andi	a5,s1,64
   1128e:	3e0799e3          	bnez	a5,11e80 <_vfprintf_r+0x153a>
   11292:	2004f493          	andi	s1,s1,512
   11296:	6782                	ld	a5,0(sp)
   11298:	e099                	bnez	s1,1129e <_vfprintf_r+0x958>
   1129a:	1280106f          	j	123c2 <_vfprintf_r+0x1a7c>
   1129e:	00f70023          	sb	a5,0(a4)
   112a2:	8ca2                	mv	s9,s0
   112a4:	ba15                	j	10bd8 <_vfprintf_r+0x292>
   112a6:	00044f03          	lbu	t5,0(s0)
   112aa:	06c00793          	li	a5,108
   112ae:	7aff0263          	beq	t5,a5,11a52 <_vfprintf_r+0x110c>
   112b2:	0104e493          	ori	s1,s1,16
   112b6:	2481                	sext.w	s1,s1
   112b8:	fc2ff06f          	j	10a7a <_vfprintf_r+0x134>
   112bc:	00044f03          	lbu	t5,0(s0)
   112c0:	06800793          	li	a5,104
   112c4:	76ff0f63          	beq	t5,a5,11a42 <_vfprintf_r+0x10fc>
   112c8:	0404e493          	ori	s1,s1,64
   112cc:	2481                	sext.w	s1,s1
   112ce:	facff06f          	j	10a7a <_vfprintf_r+0x134>
   112d2:	4705                	li	a4,1
   112d4:	00e79463          	bne	a5,a4,112dc <_vfprintf_r+0x996>
   112d8:	0220106f          	j	122fa <_vfprintf_r+0x19b4>
   112dc:	4709                	li	a4,2
   112de:	8826                	mv	a6,s1
   112e0:	d8e792e3          	bne	a5,a4,11064 <_vfprintf_r+0x71e>
   112e4:	18c10c13          	addi	s8,sp,396
   112e8:	8ce2                	mv	s9,s8
   112ea:	7722                	ld	a4,40(sp)
   112ec:	00f9f793          	andi	a5,s3,15
   112f0:	1cfd                	addi	s9,s9,-1
   112f2:	97ba                	add	a5,a5,a4
   112f4:	0007c783          	lbu	a5,0(a5)
   112f8:	0049d993          	srli	s3,s3,0x4
   112fc:	00fc8023          	sb	a5,0(s9)
   11300:	fe0995e3          	bnez	s3,112ea <_vfprintf_r+0x9a4>
   11304:	419c0c3b          	subw	s8,s8,s9
   11308:	84c2                	mv	s1,a6
   1130a:	b255                	j	10cae <_vfprintf_r+0x368>
   1130c:	06500713          	li	a4,101
   11310:	1fb75463          	bge	a4,s11,114f8 <_vfprintf_r+0xbb2>
   11314:	6512                	ld	a0,256(sp)
   11316:	65b2                	ld	a1,264(sp)
   11318:	4601                	li	a2,0
   1131a:	4681                	li	a3,0
   1131c:	f83e                	sd	a5,48(sp)
   1131e:	e41a                	sd	t1,8(sp)
   11320:	65d090ef          	jal	ra,1b17c <__eqtf2>
   11324:	6322                	ld	t1,8(sp)
   11326:	77c2                	ld	a5,48(sp)
   11328:	3e051b63          	bnez	a0,1171e <_vfprintf_r+0xdd8>
   1132c:	11812703          	lw	a4,280(sp)
   11330:	0000b697          	auipc	a3,0xb
   11334:	3f868693          	addi	a3,a3,1016 # 1c728 <__clzdi2+0x1d6>
   11338:	00d33023          	sd	a3,0(t1)
   1133c:	2705                	addiw	a4,a4,1
   1133e:	4685                	li	a3,1
   11340:	0785                	addi	a5,a5,1
   11342:	00d33423          	sd	a3,8(t1)
   11346:	10e12c23          	sw	a4,280(sp)
   1134a:	0007069b          	sext.w	a3,a4
   1134e:	f23e                	sd	a5,288(sp)
   11350:	471d                	li	a4,7
   11352:	0341                	addi	t1,t1,16
   11354:	04d742e3          	blt	a4,a3,11b98 <_vfprintf_r+0x1252>
   11358:	572e                	lw	a4,232(sp)
   1135a:	7682                	ld	a3,32(sp)
   1135c:	56d75a63          	bge	a4,a3,118d0 <_vfprintf_r+0xf8a>
   11360:	7766                	ld	a4,120(sp)
   11362:	76c6                	ld	a3,112(sp)
   11364:	0341                	addi	t1,t1,16
   11366:	fee33823          	sd	a4,-16(t1)
   1136a:	11812703          	lw	a4,280(sp)
   1136e:	97b6                	add	a5,a5,a3
   11370:	fed33c23          	sd	a3,-8(t1)
   11374:	2705                	addiw	a4,a4,1
   11376:	0007069b          	sext.w	a3,a4
   1137a:	10e12c23          	sw	a4,280(sp)
   1137e:	f23e                	sd	a5,288(sp)
   11380:	471d                	li	a4,7
   11382:	6ed74063          	blt	a4,a3,11a62 <_vfprintf_r+0x111c>
   11386:	7702                	ld	a4,32(sp)
   11388:	fff70c1b          	addiw	s8,a4,-1
   1138c:	81805de3          	blez	s8,10ba6 <_vfprintf_r+0x260>
   11390:	11812703          	lw	a4,280(sp)
   11394:	018d5de3          	bge	s10,s8,11bae <_vfprintf_r+0x1268>
   11398:	4c9d                	li	s9,7
   1139a:	a021                	j	113a2 <_vfprintf_r+0xa5c>
   1139c:	3c41                	addiw	s8,s8,-16
   1139e:	018d58e3          	bge	s10,s8,11bae <_vfprintf_r+0x1268>
   113a2:	2705                	addiw	a4,a4,1
   113a4:	07c1                	addi	a5,a5,16
   113a6:	01233023          	sd	s2,0(t1)
   113aa:	01a33423          	sd	s10,8(t1)
   113ae:	f23e                	sd	a5,288(sp)
   113b0:	10e12c23          	sw	a4,280(sp)
   113b4:	0341                	addi	t1,t1,16
   113b6:	feecd3e3          	bge	s9,a4,1139c <_vfprintf_r+0xa56>
   113ba:	0a10                	addi	a2,sp,272
   113bc:	85d2                	mv	a1,s4
   113be:	8556                	mv	a0,s5
   113c0:	345070ef          	jal	ra,18f04 <__sprint_r>
   113c4:	12051163          	bnez	a0,114e6 <_vfprintf_r+0xba0>
   113c8:	7792                	ld	a5,288(sp)
   113ca:	11812703          	lw	a4,280(sp)
   113ce:	835e                	mv	t1,s7
   113d0:	b7f1                	j	1139c <_vfprintf_r+0xa56>
   113d2:	413b06bb          	subw	a3,s6,s3
   113d6:	f8d05f63          	blez	a3,10b74 <_vfprintf_r+0x22e>
   113da:	11812703          	lw	a4,280(sp)
   113de:	04dd5563          	bge	s10,a3,11428 <_vfprintf_r+0xae2>
   113e2:	489d                	li	a7,7
   113e4:	a021                	j	113ec <_vfprintf_r+0xaa6>
   113e6:	36c1                	addiw	a3,a3,-16
   113e8:	04dd5063          	bge	s10,a3,11428 <_vfprintf_r+0xae2>
   113ec:	2705                	addiw	a4,a4,1
   113ee:	07c1                	addi	a5,a5,16
   113f0:	01233023          	sd	s2,0(t1)
   113f4:	01a33423          	sd	s10,8(t1)
   113f8:	f23e                	sd	a5,288(sp)
   113fa:	10e12c23          	sw	a4,280(sp)
   113fe:	0341                	addi	t1,t1,16
   11400:	fee8d3e3          	bge	a7,a4,113e6 <_vfprintf_r+0xaa0>
   11404:	0a10                	addi	a2,sp,272
   11406:	85d2                	mv	a1,s4
   11408:	8556                	mv	a0,s5
   1140a:	f836                	sd	a3,48(sp)
   1140c:	e476                	sd	t4,8(sp)
   1140e:	2f7070ef          	jal	ra,18f04 <__sprint_r>
   11412:	e971                	bnez	a0,114e6 <_vfprintf_r+0xba0>
   11414:	76c2                	ld	a3,48(sp)
   11416:	7792                	ld	a5,288(sp)
   11418:	11812703          	lw	a4,280(sp)
   1141c:	36c1                	addiw	a3,a3,-16
   1141e:	6ea2                	ld	t4,8(sp)
   11420:	835e                	mv	t1,s7
   11422:	489d                	li	a7,7
   11424:	fcdd44e3          	blt	s10,a3,113ec <_vfprintf_r+0xaa6>
   11428:	2705                	addiw	a4,a4,1
   1142a:	97b6                	add	a5,a5,a3
   1142c:	00d33423          	sd	a3,8(t1)
   11430:	01233023          	sd	s2,0(t1)
   11434:	0007069b          	sext.w	a3,a4
   11438:	10e12c23          	sw	a4,280(sp)
   1143c:	f23e                	sd	a5,288(sp)
   1143e:	471d                	li	a4,7
   11440:	0341                	addi	t1,t1,16
   11442:	f2d75963          	bge	a4,a3,10b74 <_vfprintf_r+0x22e>
   11446:	0a10                	addi	a2,sp,272
   11448:	85d2                	mv	a1,s4
   1144a:	8556                	mv	a0,s5
   1144c:	e476                	sd	t4,8(sp)
   1144e:	2b7070ef          	jal	ra,18f04 <__sprint_r>
   11452:	e951                	bnez	a0,114e6 <_vfprintf_r+0xba0>
   11454:	7792                	ld	a5,288(sp)
   11456:	6ea2                	ld	t4,8(sp)
   11458:	835e                	mv	t1,s7
   1145a:	f1aff06f          	j	10b74 <_vfprintf_r+0x22e>
   1145e:	11812703          	lw	a4,280(sp)
   11462:	05dd5363          	bge	s10,t4,114a8 <_vfprintf_r+0xb62>
   11466:	489d                	li	a7,7
   11468:	a021                	j	11470 <_vfprintf_r+0xb2a>
   1146a:	3ec1                	addiw	t4,t4,-16
   1146c:	03dd5e63          	bge	s10,t4,114a8 <_vfprintf_r+0xb62>
   11470:	2705                	addiw	a4,a4,1
   11472:	07c1                	addi	a5,a5,16
   11474:	01233023          	sd	s2,0(t1)
   11478:	01a33423          	sd	s10,8(t1)
   1147c:	f23e                	sd	a5,288(sp)
   1147e:	10e12c23          	sw	a4,280(sp)
   11482:	0341                	addi	t1,t1,16
   11484:	fee8d3e3          	bge	a7,a4,1146a <_vfprintf_r+0xb24>
   11488:	0a10                	addi	a2,sp,272
   1148a:	85d2                	mv	a1,s4
   1148c:	8556                	mv	a0,s5
   1148e:	e476                	sd	t4,8(sp)
   11490:	275070ef          	jal	ra,18f04 <__sprint_r>
   11494:	e929                	bnez	a0,114e6 <_vfprintf_r+0xba0>
   11496:	6ea2                	ld	t4,8(sp)
   11498:	7792                	ld	a5,288(sp)
   1149a:	11812703          	lw	a4,280(sp)
   1149e:	3ec1                	addiw	t4,t4,-16
   114a0:	835e                	mv	t1,s7
   114a2:	489d                	li	a7,7
   114a4:	fddd46e3          	blt	s10,t4,11470 <_vfprintf_r+0xb2a>
   114a8:	0017069b          	addiw	a3,a4,1
   114ac:	97f6                	add	a5,a5,t4
   114ae:	01233023          	sd	s2,0(t1)
   114b2:	01d33423          	sd	t4,8(t1)
   114b6:	f23e                	sd	a5,288(sp)
   114b8:	10d12c23          	sw	a3,280(sp)
   114bc:	471d                	li	a4,7
   114be:	0341                	addi	t1,t1,16
   114c0:	ead75e63          	bge	a4,a3,10b7c <_vfprintf_r+0x236>
   114c4:	0a10                	addi	a2,sp,272
   114c6:	85d2                	mv	a1,s4
   114c8:	8556                	mv	a0,s5
   114ca:	23b070ef          	jal	ra,18f04 <__sprint_r>
   114ce:	ed01                	bnez	a0,114e6 <_vfprintf_r+0xba0>
   114d0:	7792                	ld	a5,288(sp)
   114d2:	835e                	mv	t1,s7
   114d4:	ea8ff06f          	j	10b7c <_vfprintf_r+0x236>
   114d8:	0a10                	addi	a2,sp,272
   114da:	85d2                	mv	a1,s4
   114dc:	8556                	mv	a0,s5
   114de:	227070ef          	jal	ra,18f04 <__sprint_r>
   114e2:	ee050163          	beqz	a0,10bc4 <_vfprintf_r+0x27e>
   114e6:	67e2                	ld	a5,24(sp)
   114e8:	f0078063          	beqz	a5,10be8 <_vfprintf_r+0x2a2>
   114ec:	85be                	mv	a1,a5
   114ee:	8556                	mv	a0,s5
   114f0:	025010ef          	jal	ra,12d14 <_free_r>
   114f4:	ef4ff06f          	j	10be8 <_vfprintf_r+0x2a2>
   114f8:	11812603          	lw	a2,280(sp)
   114fc:	00178d93          	addi	s11,a5,1
   11500:	7782                	ld	a5,32(sp)
   11502:	0016071b          	addiw	a4,a2,1
   11506:	4585                	li	a1,1
   11508:	01933023          	sd	s9,0(t1)
   1150c:	86ba                	mv	a3,a4
   1150e:	01030c13          	addi	s8,t1,16
   11512:	32f5d863          	bge	a1,a5,11842 <_vfprintf_r+0xefc>
   11516:	4605                	li	a2,1
   11518:	10d12c23          	sw	a3,280(sp)
   1151c:	00c33423          	sd	a2,8(t1)
   11520:	f26e                	sd	s11,288(sp)
   11522:	469d                	li	a3,7
   11524:	5ce6c463          	blt	a3,a4,11aec <_vfprintf_r+0x11a6>
   11528:	77c6                	ld	a5,112(sp)
   1152a:	0017069b          	addiw	a3,a4,1
   1152e:	7766                	ld	a4,120(sp)
   11530:	9dbe                	add	s11,s11,a5
   11532:	00fc3423          	sd	a5,8(s8)
   11536:	00ec3023          	sd	a4,0(s8)
   1153a:	10d12c23          	sw	a3,280(sp)
   1153e:	0006871b          	sext.w	a4,a3
   11542:	f26e                	sd	s11,288(sp)
   11544:	469d                	li	a3,7
   11546:	0c41                	addi	s8,s8,16
   11548:	5ae6ce63          	blt	a3,a4,11b04 <_vfprintf_r+0x11be>
   1154c:	6512                	ld	a0,256(sp)
   1154e:	65b2                	ld	a1,264(sp)
   11550:	0017089b          	addiw	a7,a4,1
   11554:	4601                	li	a2,0
   11556:	4681                	li	a3,0
   11558:	e446                	sd	a7,8(sp)
   1155a:	f83a                	sd	a4,48(sp)
   1155c:	421090ef          	jal	ra,1b17c <__eqtf2>
   11560:	68a2                	ld	a7,8(sp)
   11562:	7782                	ld	a5,32(sp)
   11564:	010c0313          	addi	t1,s8,16
   11568:	0008861b          	sext.w	a2,a7
   1156c:	fff7869b          	addiw	a3,a5,-1
   11570:	2e050963          	beqz	a0,11862 <_vfprintf_r+0xf1c>
   11574:	9db6                	add	s11,s11,a3
   11576:	001c8813          	addi	a6,s9,1
   1157a:	00dc3423          	sd	a3,8(s8)
   1157e:	010c3023          	sd	a6,0(s8)
   11582:	f26e                	sd	s11,288(sp)
   11584:	11112c23          	sw	a7,280(sp)
   11588:	469d                	li	a3,7
   1158a:	44c6c763          	blt	a3,a2,119d8 <_vfprintf_r+0x1092>
   1158e:	7742                	ld	a4,48(sp)
   11590:	020c0693          	addi	a3,s8,32
   11594:	8c1a                	mv	s8,t1
   11596:	0027061b          	addiw	a2,a4,2
   1159a:	8336                	mv	t1,a3
   1159c:	668a                	ld	a3,128(sp)
   1159e:	1998                	addi	a4,sp,240
   115a0:	00ec3023          	sd	a4,0(s8)
   115a4:	00dd87b3          	add	a5,s11,a3
   115a8:	00dc3423          	sd	a3,8(s8)
   115ac:	f23e                	sd	a5,288(sp)
   115ae:	10c12c23          	sw	a2,280(sp)
   115b2:	471d                	li	a4,7
   115b4:	dec75963          	bge	a4,a2,10ba6 <_vfprintf_r+0x260>
   115b8:	bc2d                	j	10ff2 <_vfprintf_r+0x6ac>
   115ba:	4705                	li	a4,1
   115bc:	8826                	mv	a6,s1
   115be:	aae790e3          	bne	a5,a4,1105e <_vfprintf_r+0x718>
   115c2:	47a5                	li	a5,9
   115c4:	3737e163          	bltu	a5,s3,11926 <_vfprintf_r+0xfe0>
   115c8:	0309899b          	addiw	s3,s3,48
   115cc:	193105a3          	sb	s3,395(sp)
   115d0:	84c2                	mv	s1,a6
   115d2:	4c05                	li	s8,1
   115d4:	18b10c93          	addi	s9,sp,395
   115d8:	ed6ff06f          	j	10cae <_vfprintf_r+0x368>
   115dc:	11812703          	lw	a4,280(sp)
   115e0:	0000b897          	auipc	a7,0xb
   115e4:	2c088893          	addi	a7,a7,704 # 1c8a0 <blanks.4520>
   115e8:	439d                	li	t2,7
   115ea:	00dd4663          	blt	s10,a3,115f6 <_vfprintf_r+0xcb0>
   115ee:	a889                	j	11640 <_vfprintf_r+0xcfa>
   115f0:	36c1                	addiw	a3,a3,-16
   115f2:	04dd5763          	bge	s10,a3,11640 <_vfprintf_r+0xcfa>
   115f6:	2705                	addiw	a4,a4,1
   115f8:	07c1                	addi	a5,a5,16
   115fa:	01133023          	sd	a7,0(t1)
   115fe:	01a33423          	sd	s10,8(t1)
   11602:	f23e                	sd	a5,288(sp)
   11604:	10e12c23          	sw	a4,280(sp)
   11608:	0341                	addi	t1,t1,16
   1160a:	fee3d3e3          	bge	t2,a4,115f0 <_vfprintf_r+0xcaa>
   1160e:	0a10                	addi	a2,sp,272
   11610:	85d2                	mv	a1,s4
   11612:	8556                	mv	a0,s5
   11614:	e4c6                	sd	a7,72(sp)
   11616:	e0f6                	sd	t4,64(sp)
   11618:	fc7e                	sd	t6,56(sp)
   1161a:	f816                	sd	t0,48(sp)
   1161c:	e436                	sd	a3,8(sp)
   1161e:	0e7070ef          	jal	ra,18f04 <__sprint_r>
   11622:	ec0512e3          	bnez	a0,114e6 <_vfprintf_r+0xba0>
   11626:	66a2                	ld	a3,8(sp)
   11628:	7792                	ld	a5,288(sp)
   1162a:	11812703          	lw	a4,280(sp)
   1162e:	36c1                	addiw	a3,a3,-16
   11630:	68a6                	ld	a7,72(sp)
   11632:	6e86                	ld	t4,64(sp)
   11634:	7fe2                	ld	t6,56(sp)
   11636:	72c2                	ld	t0,48(sp)
   11638:	835e                	mv	t1,s7
   1163a:	439d                	li	t2,7
   1163c:	fadd4de3          	blt	s10,a3,115f6 <_vfprintf_r+0xcb0>
   11640:	2705                	addiw	a4,a4,1
   11642:	97b6                	add	a5,a5,a3
   11644:	00d33423          	sd	a3,8(t1)
   11648:	01133023          	sd	a7,0(t1)
   1164c:	0007069b          	sext.w	a3,a4
   11650:	10e12c23          	sw	a4,280(sp)
   11654:	f23e                	sd	a5,288(sp)
   11656:	471d                	li	a4,7
   11658:	0341                	addi	t1,t1,16
   1165a:	cad75d63          	bge	a4,a3,10b14 <_vfprintf_r+0x1ce>
   1165e:	0a10                	addi	a2,sp,272
   11660:	85d2                	mv	a1,s4
   11662:	8556                	mv	a0,s5
   11664:	fc76                	sd	t4,56(sp)
   11666:	f87e                	sd	t6,48(sp)
   11668:	e416                	sd	t0,8(sp)
   1166a:	09b070ef          	jal	ra,18f04 <__sprint_r>
   1166e:	e6051ce3          	bnez	a0,114e6 <_vfprintf_r+0xba0>
   11672:	7792                	ld	a5,288(sp)
   11674:	7ee2                	ld	t4,56(sp)
   11676:	7fc2                	ld	t6,48(sp)
   11678:	62a2                	ld	t0,8(sp)
   1167a:	835e                	mv	t1,s7
   1167c:	c98ff06f          	j	10b14 <_vfprintf_r+0x1ce>
   11680:	0a10                	addi	a2,sp,272
   11682:	85d2                	mv	a1,s4
   11684:	8556                	mv	a0,s5
   11686:	f876                	sd	t4,48(sp)
   11688:	e47e                	sd	t6,8(sp)
   1168a:	07b070ef          	jal	ra,18f04 <__sprint_r>
   1168e:	e4051ce3          	bnez	a0,114e6 <_vfprintf_r+0xba0>
   11692:	7792                	ld	a5,288(sp)
   11694:	7ec2                	ld	t4,48(sp)
   11696:	6fa2                	ld	t6,8(sp)
   11698:	835e                	mv	t1,s7
   1169a:	cd2ff06f          	j	10b6c <_vfprintf_r+0x226>
   1169e:	11812703          	lw	a4,280(sp)
   116a2:	0000b897          	auipc	a7,0xb
   116a6:	1fe88893          	addi	a7,a7,510 # 1c8a0 <blanks.4520>
   116aa:	4c1d                	li	s8,7
   116ac:	009d4663          	blt	s10,s1,116b8 <_vfprintf_r+0xd72>
   116b0:	a081                	j	116f0 <_vfprintf_r+0xdaa>
   116b2:	34c1                	addiw	s1,s1,-16
   116b4:	029d5e63          	bge	s10,s1,116f0 <_vfprintf_r+0xdaa>
   116b8:	2705                	addiw	a4,a4,1
   116ba:	07c1                	addi	a5,a5,16
   116bc:	01133023          	sd	a7,0(t1)
   116c0:	01a33423          	sd	s10,8(t1)
   116c4:	f23e                	sd	a5,288(sp)
   116c6:	10e12c23          	sw	a4,280(sp)
   116ca:	0341                	addi	t1,t1,16
   116cc:	feec53e3          	bge	s8,a4,116b2 <_vfprintf_r+0xd6c>
   116d0:	0a10                	addi	a2,sp,272
   116d2:	85d2                	mv	a1,s4
   116d4:	8556                	mv	a0,s5
   116d6:	e446                	sd	a7,8(sp)
   116d8:	02d070ef          	jal	ra,18f04 <__sprint_r>
   116dc:	e00515e3          	bnez	a0,114e6 <_vfprintf_r+0xba0>
   116e0:	34c1                	addiw	s1,s1,-16
   116e2:	7792                	ld	a5,288(sp)
   116e4:	11812703          	lw	a4,280(sp)
   116e8:	68a2                	ld	a7,8(sp)
   116ea:	835e                	mv	t1,s7
   116ec:	fc9d46e3          	blt	s10,s1,116b8 <_vfprintf_r+0xd72>
   116f0:	0017069b          	addiw	a3,a4,1
   116f4:	97a6                	add	a5,a5,s1
   116f6:	01133023          	sd	a7,0(t1)
   116fa:	00933423          	sd	s1,8(t1)
   116fe:	f23e                	sd	a5,288(sp)
   11700:	10d12c23          	sw	a3,280(sp)
   11704:	471d                	li	a4,7
   11706:	cad75663          	bge	a4,a3,10bb2 <_vfprintf_r+0x26c>
   1170a:	0a10                	addi	a2,sp,272
   1170c:	85d2                	mv	a1,s4
   1170e:	8556                	mv	a0,s5
   11710:	7f4070ef          	jal	ra,18f04 <__sprint_r>
   11714:	dc0519e3          	bnez	a0,114e6 <_vfprintf_r+0xba0>
   11718:	7792                	ld	a5,288(sp)
   1171a:	c98ff06f          	j	10bb2 <_vfprintf_r+0x26c>
   1171e:	562e                	lw	a2,232(sp)
   11720:	3ec05e63          	blez	a2,11b1c <_vfprintf_r+0x11d6>
   11724:	6766                	ld	a4,88(sp)
   11726:	7682                	ld	a3,32(sp)
   11728:	00070c1b          	sext.w	s8,a4
   1172c:	28e6c263          	blt	a3,a4,119b0 <_vfprintf_r+0x106a>
   11730:	03805263          	blez	s8,11754 <_vfprintf_r+0xe0e>
   11734:	11812703          	lw	a4,280(sp)
   11738:	97e2                	add	a5,a5,s8
   1173a:	01933023          	sd	s9,0(t1)
   1173e:	0017069b          	addiw	a3,a4,1
   11742:	01833423          	sd	s8,8(t1)
   11746:	f23e                	sd	a5,288(sp)
   11748:	10d12c23          	sw	a3,280(sp)
   1174c:	471d                	li	a4,7
   1174e:	0341                	addi	t1,t1,16
   11750:	6ed74d63          	blt	a4,a3,11e4a <_vfprintf_r+0x1504>
   11754:	fffc4713          	not	a4,s8
   11758:	977d                	srai	a4,a4,0x3f
   1175a:	00ec7c33          	and	s8,s8,a4
   1175e:	6766                	ld	a4,88(sp)
   11760:	41870c3b          	subw	s8,a4,s8
   11764:	33804c63          	bgtz	s8,11a9c <_vfprintf_r+0x1156>
   11768:	66e6                	ld	a3,88(sp)
   1176a:	4004f713          	andi	a4,s1,1024
   1176e:	00dc8db3          	add	s11,s9,a3
   11772:	54071f63          	bnez	a4,11cd0 <_vfprintf_r+0x138a>
   11776:	572e                	lw	a4,232(sp)
   11778:	7682                	ld	a3,32(sp)
   1177a:	00d74663          	blt	a4,a3,11786 <_vfprintf_r+0xe40>
   1177e:	0014f693          	andi	a3,s1,1
   11782:	6e068063          	beqz	a3,11e62 <_vfprintf_r+0x151c>
   11786:	76e6                	ld	a3,120(sp)
   11788:	7646                	ld	a2,112(sp)
   1178a:	0341                	addi	t1,t1,16
   1178c:	fed33823          	sd	a3,-16(t1)
   11790:	11812683          	lw	a3,280(sp)
   11794:	97b2                	add	a5,a5,a2
   11796:	fec33c23          	sd	a2,-8(t1)
   1179a:	2685                	addiw	a3,a3,1
   1179c:	0006861b          	sext.w	a2,a3
   117a0:	10d12c23          	sw	a3,280(sp)
   117a4:	f23e                	sd	a5,288(sp)
   117a6:	469d                	li	a3,7
   117a8:	22c6c7e3          	blt	a3,a2,121d6 <_vfprintf_r+0x1890>
   117ac:	7682                	ld	a3,32(sp)
   117ae:	00dc8633          	add	a2,s9,a3
   117b2:	40e6873b          	subw	a4,a3,a4
   117b6:	41b6063b          	subw	a2,a2,s11
   117ba:	0007069b          	sext.w	a3,a4
   117be:	00d65363          	bge	a2,a3,117c4 <_vfprintf_r+0xe7e>
   117c2:	8732                	mv	a4,a2
   117c4:	00070c9b          	sext.w	s9,a4
   117c8:	03905263          	blez	s9,117ec <_vfprintf_r+0xea6>
   117cc:	11812603          	lw	a2,280(sp)
   117d0:	97e6                	add	a5,a5,s9
   117d2:	01b33023          	sd	s11,0(t1)
   117d6:	0016059b          	addiw	a1,a2,1
   117da:	01933423          	sd	s9,8(t1)
   117de:	f23e                	sd	a5,288(sp)
   117e0:	10b12c23          	sw	a1,280(sp)
   117e4:	461d                	li	a2,7
   117e6:	0341                	addi	t1,t1,16
   117e8:	26b644e3          	blt	a2,a1,12250 <_vfprintf_r+0x190a>
   117ec:	fffccc13          	not	s8,s9
   117f0:	43fc5c13          	srai	s8,s8,0x3f
   117f4:	018cfc33          	and	s8,s9,s8
   117f8:	41868c3b          	subw	s8,a3,s8
   117fc:	bb805563          	blez	s8,10ba6 <_vfprintf_r+0x260>
   11800:	11812703          	lw	a4,280(sp)
   11804:	3b8d5563          	bge	s10,s8,11bae <_vfprintf_r+0x1268>
   11808:	4c9d                	li	s9,7
   1180a:	a021                	j	11812 <_vfprintf_r+0xecc>
   1180c:	3c41                	addiw	s8,s8,-16
   1180e:	3b8d5063          	bge	s10,s8,11bae <_vfprintf_r+0x1268>
   11812:	2705                	addiw	a4,a4,1
   11814:	07c1                	addi	a5,a5,16
   11816:	01233023          	sd	s2,0(t1)
   1181a:	01a33423          	sd	s10,8(t1)
   1181e:	f23e                	sd	a5,288(sp)
   11820:	10e12c23          	sw	a4,280(sp)
   11824:	0341                	addi	t1,t1,16
   11826:	feecd3e3          	bge	s9,a4,1180c <_vfprintf_r+0xec6>
   1182a:	0a10                	addi	a2,sp,272
   1182c:	85d2                	mv	a1,s4
   1182e:	8556                	mv	a0,s5
   11830:	6d4070ef          	jal	ra,18f04 <__sprint_r>
   11834:	ca0519e3          	bnez	a0,114e6 <_vfprintf_r+0xba0>
   11838:	7792                	ld	a5,288(sp)
   1183a:	11812703          	lw	a4,280(sp)
   1183e:	835e                	mv	t1,s7
   11840:	b7f1                	j	1180c <_vfprintf_r+0xec6>
   11842:	0014f513          	andi	a0,s1,1
   11846:	cc0518e3          	bnez	a0,11516 <_vfprintf_r+0xbd0>
   1184a:	00b33423          	sd	a1,8(t1)
   1184e:	f26e                	sd	s11,288(sp)
   11850:	10e12c23          	sw	a4,280(sp)
   11854:	469d                	li	a3,7
   11856:	18e6c163          	blt	a3,a4,119d8 <_vfprintf_r+0x1092>
   1185a:	2609                	addiw	a2,a2,2
   1185c:	02030313          	addi	t1,t1,32
   11860:	bb35                	j	1159c <_vfprintf_r+0xc56>
   11862:	d2d05de3          	blez	a3,1159c <_vfprintf_r+0xc56>
   11866:	4cdd50e3          	bge	s10,a3,12526 <_vfprintf_r+0x1be0>
   1186a:	4c9d                	li	s9,7
   1186c:	a031                	j	11878 <_vfprintf_r+0xf32>
   1186e:	36c1                	addiw	a3,a3,-16
   11870:	14dd5563          	bge	s10,a3,119ba <_vfprintf_r+0x1074>
   11874:	0017089b          	addiw	a7,a4,1
   11878:	0dc1                	addi	s11,s11,16
   1187a:	012c3023          	sd	s2,0(s8)
   1187e:	01ac3423          	sd	s10,8(s8)
   11882:	f26e                	sd	s11,288(sp)
   11884:	0008871b          	sext.w	a4,a7
   11888:	11112c23          	sw	a7,280(sp)
   1188c:	0c41                	addi	s8,s8,16
   1188e:	feecd0e3          	bge	s9,a4,1186e <_vfprintf_r+0xf28>
   11892:	0a10                	addi	a2,sp,272
   11894:	85d2                	mv	a1,s4
   11896:	8556                	mv	a0,s5
   11898:	e436                	sd	a3,8(sp)
   1189a:	66a070ef          	jal	ra,18f04 <__sprint_r>
   1189e:	c40514e3          	bnez	a0,114e6 <_vfprintf_r+0xba0>
   118a2:	7d92                	ld	s11,288(sp)
   118a4:	11812703          	lw	a4,280(sp)
   118a8:	66a2                	ld	a3,8(sp)
   118aa:	8c5e                	mv	s8,s7
   118ac:	b7c9                	j	1186e <_vfprintf_r+0xf28>
   118ae:	01087793          	andi	a5,a6,16
   118b2:	eb8d                	bnez	a5,118e4 <_vfprintf_r+0xf9e>
   118b4:	66c2                	ld	a3,16(sp)
   118b6:	04087793          	andi	a5,a6,64
   118ba:	0006a983          	lw	s3,0(a3)
   118be:	36078c63          	beqz	a5,11c36 <_vfprintf_r+0x12f0>
   118c2:	19c2                	slli	s3,s3,0x30
   118c4:	0309d993          	srli	s3,s3,0x30
   118c8:	e83a                	sd	a4,16(sp)
   118ca:	4785                	li	a5,1
   118cc:	c26ff06f          	j	10cf2 <_vfprintf_r+0x3ac>
   118d0:	0014f713          	andi	a4,s1,1
   118d4:	ac070963          	beqz	a4,10ba6 <_vfprintf_r+0x260>
   118d8:	b461                	j	11360 <_vfprintf_r+0xa1a>
   118da:	6782                	ld	a5,0(sp)
   118dc:	8ca2                	mv	s9,s0
   118de:	e31c                	sd	a5,0(a4)
   118e0:	af8ff06f          	j	10bd8 <_vfprintf_r+0x292>
   118e4:	67c2                	ld	a5,16(sp)
   118e6:	e83a                	sd	a4,16(sp)
   118e8:	0007b983          	ld	s3,0(a5)
   118ec:	4785                	li	a5,1
   118ee:	c04ff06f          	j	10cf2 <_vfprintf_r+0x3ac>
   118f2:	67c2                	ld	a5,16(sp)
   118f4:	639c                	ld	a5,0(a5)
   118f6:	89be                	mv	s3,a5
   118f8:	b90ff06f          	j	10c88 <_vfprintf_r+0x342>
   118fc:	67c2                	ld	a5,16(sp)
   118fe:	0007b983          	ld	s3,0(a5)
   11902:	be4ff06f          	j	10ce6 <_vfprintf_r+0x3a0>
   11906:	67c2                	ld	a5,16(sp)
   11908:	07bd                	addi	a5,a5,15
   1190a:	9bc1                	andi	a5,a5,-16
   1190c:	6394                	ld	a3,0(a5)
   1190e:	6798                	ld	a4,8(a5)
   11910:	07c1                	addi	a5,a5,16
   11912:	e83e                	sd	a5,16(sp)
   11914:	e236                	sd	a3,256(sp)
   11916:	e63a                	sd	a4,264(sp)
   11918:	c50ff06f          	j	10d68 <_vfprintf_r+0x422>
   1191c:	e83a                	sd	a4,16(sp)
   1191e:	47a5                	li	a5,9
   11920:	8826                	mv	a6,s1
   11922:	cb37f3e3          	bgeu	a5,s3,115c8 <_vfprintf_r+0xc82>
   11926:	40087793          	andi	a5,a6,1024
   1192a:	18c10c13          	addi	s8,sp,396
   1192e:	2781                	sext.w	a5,a5
   11930:	f002                	sd	zero,32(sp)
   11932:	85e2                	mv	a1,s8
   11934:	44a9                	li	s1,10
   11936:	4725                	li	a4,9
   11938:	0ff00693          	li	a3,255
   1193c:	a039                	j	1194a <_vfprintf_r+0x1004>
   1193e:	0299d633          	divu	a2,s3,s1
   11942:	9d3771e3          	bgeu	a4,s3,11304 <_vfprintf_r+0x9be>
   11946:	89b2                	mv	s3,a2
   11948:	85e6                	mv	a1,s9
   1194a:	7502                	ld	a0,32(sp)
   1194c:	fff58c93          	addi	s9,a1,-1
   11950:	2505                	addiw	a0,a0,1
   11952:	f02a                	sd	a0,32(sp)
   11954:	0299f633          	remu	a2,s3,s1
   11958:	0306061b          	addiw	a2,a2,48
   1195c:	fec58fa3          	sb	a2,-1(a1)
   11960:	dff9                	beqz	a5,1193e <_vfprintf_r+0xff8>
   11962:	7626                	ld	a2,104(sp)
   11964:	00064603          	lbu	a2,0(a2)
   11968:	fcc51be3          	bne	a0,a2,1193e <_vfprintf_r+0xff8>
   1196c:	fcd609e3          	beq	a2,a3,1193e <_vfprintf_r+0xff8>
   11970:	99377ae3          	bgeu	a4,s3,11304 <_vfprintf_r+0x9be>
   11974:	fc3e                	sd	a5,56(sp)
   11976:	67aa                	ld	a5,136(sp)
   11978:	65ca                	ld	a1,144(sp)
   1197a:	f81a                	sd	t1,48(sp)
   1197c:	40fc8cb3          	sub	s9,s9,a5
   11980:	863e                	mv	a2,a5
   11982:	8566                	mv	a0,s9
   11984:	ec76                	sd	t4,24(sp)
   11986:	e442                	sd	a6,8(sp)
   11988:	07b050ef          	jal	ra,17202 <strncpy>
   1198c:	77a6                	ld	a5,104(sp)
   1198e:	0299d633          	divu	a2,s3,s1
   11992:	6822                	ld	a6,8(sp)
   11994:	0017c583          	lbu	a1,1(a5)
   11998:	6ee2                	ld	t4,24(sp)
   1199a:	7342                	ld	t1,48(sp)
   1199c:	00b035b3          	snez	a1,a1
   119a0:	97ae                	add	a5,a5,a1
   119a2:	f4be                	sd	a5,104(sp)
   119a4:	f002                	sd	zero,32(sp)
   119a6:	77e2                	ld	a5,56(sp)
   119a8:	4725                	li	a4,9
   119aa:	0ff00693          	li	a3,255
   119ae:	bf61                	j	11946 <_vfprintf_r+0x1000>
   119b0:	00068c1b          	sext.w	s8,a3
   119b4:	d98040e3          	bgtz	s8,11734 <_vfprintf_r+0xdee>
   119b8:	bb71                	j	11754 <_vfprintf_r+0xe0e>
   119ba:	0017061b          	addiw	a2,a4,1
   119be:	010c0713          	addi	a4,s8,16
   119c2:	9db6                	add	s11,s11,a3
   119c4:	00dc3423          	sd	a3,8(s8)
   119c8:	012c3023          	sd	s2,0(s8)
   119cc:	f26e                	sd	s11,288(sp)
   119ce:	10c12c23          	sw	a2,280(sp)
   119d2:	469d                	li	a3,7
   119d4:	44c6d563          	bge	a3,a2,11e1e <_vfprintf_r+0x14d8>
   119d8:	0a10                	addi	a2,sp,272
   119da:	85d2                	mv	a1,s4
   119dc:	8556                	mv	a0,s5
   119de:	526070ef          	jal	ra,18f04 <__sprint_r>
   119e2:	b00512e3          	bnez	a0,114e6 <_vfprintf_r+0xba0>
   119e6:	11812603          	lw	a2,280(sp)
   119ea:	7d92                	ld	s11,288(sp)
   119ec:	1a010313          	addi	t1,sp,416
   119f0:	2605                	addiw	a2,a2,1
   119f2:	8c5e                	mv	s8,s7
   119f4:	b665                	j	1159c <_vfprintf_r+0xc56>
   119f6:	8826                	mv	a6,s1
   119f8:	825ff06f          	j	1121c <_vfprintf_r+0x8d6>
   119fc:	0000b797          	auipc	a5,0xb
   11a00:	d0c78793          	addi	a5,a5,-756 # 1c708 <__clzdi2+0x1b6>
   11a04:	f43e                	sd	a5,40(sp)
   11a06:	66c2                	ld	a3,16(sp)
   11a08:	0204f793          	andi	a5,s1,32
   11a0c:	00868713          	addi	a4,a3,8
   11a10:	c7f9                	beqz	a5,11ade <_vfprintf_r+0x1198>
   11a12:	0006b983          	ld	s3,0(a3)
   11a16:	0014f793          	andi	a5,s1,1
   11a1a:	cf81                	beqz	a5,11a32 <_vfprintf_r+0x10ec>
   11a1c:	00098b63          	beqz	s3,11a32 <_vfprintf_r+0x10ec>
   11a20:	0024e493          	ori	s1,s1,2
   11a24:	03000793          	li	a5,48
   11a28:	0ef10023          	sb	a5,224(sp)
   11a2c:	0fb100a3          	sb	s11,225(sp)
   11a30:	2481                	sext.w	s1,s1
   11a32:	bff4f493          	andi	s1,s1,-1025
   11a36:	0004881b          	sext.w	a6,s1
   11a3a:	e83a                	sd	a4,16(sp)
   11a3c:	4789                	li	a5,2
   11a3e:	ab4ff06f          	j	10cf2 <_vfprintf_r+0x3ac>
   11a42:	2004e493          	ori	s1,s1,512
   11a46:	00144f03          	lbu	t5,1(s0)
   11a4a:	2481                	sext.w	s1,s1
   11a4c:	0405                	addi	s0,s0,1
   11a4e:	82cff06f          	j	10a7a <_vfprintf_r+0x134>
   11a52:	0204e493          	ori	s1,s1,32
   11a56:	00144f03          	lbu	t5,1(s0)
   11a5a:	2481                	sext.w	s1,s1
   11a5c:	0405                	addi	s0,s0,1
   11a5e:	81cff06f          	j	10a7a <_vfprintf_r+0x134>
   11a62:	0a10                	addi	a2,sp,272
   11a64:	85d2                	mv	a1,s4
   11a66:	8556                	mv	a0,s5
   11a68:	49c070ef          	jal	ra,18f04 <__sprint_r>
   11a6c:	a6051de3          	bnez	a0,114e6 <_vfprintf_r+0xba0>
   11a70:	7792                	ld	a5,288(sp)
   11a72:	835e                	mv	t1,s7
   11a74:	ba09                	j	11386 <_vfprintf_r+0xa40>
   11a76:	0000b797          	auipc	a5,0xb
   11a7a:	c7a78793          	addi	a5,a5,-902 # 1c6f0 <__clzdi2+0x19e>
   11a7e:	f43e                	sd	a5,40(sp)
   11a80:	b759                	j	11a06 <_vfprintf_r+0x10c0>
   11a82:	4799                	li	a5,6
   11a84:	000e8c1b          	sext.w	s8,t4
   11a88:	3dd7eb63          	bltu	a5,t4,11e5e <_vfprintf_r+0x1518>
   11a8c:	89e2                	mv	s3,s8
   11a8e:	e836                	sd	a3,16(sp)
   11a90:	0000bc97          	auipc	s9,0xb
   11a94:	c90c8c93          	addi	s9,s9,-880 # 1c720 <__clzdi2+0x1ce>
   11a98:	854ff06f          	j	10aec <_vfprintf_r+0x1a6>
   11a9c:	11812703          	lw	a4,280(sp)
   11aa0:	218d5063          	bge	s10,s8,11ca0 <_vfprintf_r+0x135a>
   11aa4:	4d9d                	li	s11,7
   11aa6:	a021                	j	11aae <_vfprintf_r+0x1168>
   11aa8:	3c41                	addiw	s8,s8,-16
   11aaa:	1f8d5b63          	bge	s10,s8,11ca0 <_vfprintf_r+0x135a>
   11aae:	2705                	addiw	a4,a4,1
   11ab0:	07c1                	addi	a5,a5,16
   11ab2:	01233023          	sd	s2,0(t1)
   11ab6:	01a33423          	sd	s10,8(t1)
   11aba:	f23e                	sd	a5,288(sp)
   11abc:	10e12c23          	sw	a4,280(sp)
   11ac0:	0341                	addi	t1,t1,16
   11ac2:	feedd3e3          	bge	s11,a4,11aa8 <_vfprintf_r+0x1162>
   11ac6:	0a10                	addi	a2,sp,272
   11ac8:	85d2                	mv	a1,s4
   11aca:	8556                	mv	a0,s5
   11acc:	438070ef          	jal	ra,18f04 <__sprint_r>
   11ad0:	a0051be3          	bnez	a0,114e6 <_vfprintf_r+0xba0>
   11ad4:	7792                	ld	a5,288(sp)
   11ad6:	11812703          	lw	a4,280(sp)
   11ada:	835e                	mv	t1,s7
   11adc:	b7f1                	j	11aa8 <_vfprintf_r+0x1162>
   11ade:	0104f793          	andi	a5,s1,16
   11ae2:	c3cd                	beqz	a5,11b84 <_vfprintf_r+0x123e>
   11ae4:	67c2                	ld	a5,16(sp)
   11ae6:	0007b983          	ld	s3,0(a5)
   11aea:	b735                	j	11a16 <_vfprintf_r+0x10d0>
   11aec:	0a10                	addi	a2,sp,272
   11aee:	85d2                	mv	a1,s4
   11af0:	8556                	mv	a0,s5
   11af2:	412070ef          	jal	ra,18f04 <__sprint_r>
   11af6:	9e0518e3          	bnez	a0,114e6 <_vfprintf_r+0xba0>
   11afa:	7d92                	ld	s11,288(sp)
   11afc:	11812703          	lw	a4,280(sp)
   11b00:	8c5e                	mv	s8,s7
   11b02:	b41d                	j	11528 <_vfprintf_r+0xbe2>
   11b04:	0a10                	addi	a2,sp,272
   11b06:	85d2                	mv	a1,s4
   11b08:	8556                	mv	a0,s5
   11b0a:	3fa070ef          	jal	ra,18f04 <__sprint_r>
   11b0e:	9c051ce3          	bnez	a0,114e6 <_vfprintf_r+0xba0>
   11b12:	7d92                	ld	s11,288(sp)
   11b14:	11812703          	lw	a4,280(sp)
   11b18:	8c5e                	mv	s8,s7
   11b1a:	bc0d                	j	1154c <_vfprintf_r+0xc06>
   11b1c:	11812703          	lw	a4,280(sp)
   11b20:	0000b697          	auipc	a3,0xb
   11b24:	c0868693          	addi	a3,a3,-1016 # 1c728 <__clzdi2+0x1d6>
   11b28:	00d33023          	sd	a3,0(t1)
   11b2c:	2705                	addiw	a4,a4,1
   11b2e:	4685                	li	a3,1
   11b30:	0785                	addi	a5,a5,1
   11b32:	00d33423          	sd	a3,8(t1)
   11b36:	10e12c23          	sw	a4,280(sp)
   11b3a:	0007069b          	sext.w	a3,a4
   11b3e:	f23e                	sd	a5,288(sp)
   11b40:	471d                	li	a4,7
   11b42:	0341                	addi	t1,t1,16
   11b44:	2ed74363          	blt	a4,a3,11e2a <_vfprintf_r+0x14e4>
   11b48:	c4061363          	bnez	a2,10f8e <_vfprintf_r+0x648>
   11b4c:	7682                	ld	a3,32(sp)
   11b4e:	0014f713          	andi	a4,s1,1
   11b52:	8f55                	or	a4,a4,a3
   11b54:	e319                	bnez	a4,11b5a <_vfprintf_r+0x1214>
   11b56:	850ff06f          	j	10ba6 <_vfprintf_r+0x260>
   11b5a:	76e6                	ld	a3,120(sp)
   11b5c:	7746                	ld	a4,112(sp)
   11b5e:	00d33023          	sd	a3,0(t1)
   11b62:	11812683          	lw	a3,280(sp)
   11b66:	97ba                	add	a5,a5,a4
   11b68:	00e33423          	sd	a4,8(t1)
   11b6c:	2685                	addiw	a3,a3,1
   11b6e:	0006871b          	sext.w	a4,a3
   11b72:	10d12c23          	sw	a3,280(sp)
   11b76:	f23e                	sd	a5,288(sp)
   11b78:	469d                	li	a3,7
   11b7a:	c2e6cd63          	blt	a3,a4,10fb4 <_vfprintf_r+0x66e>
   11b7e:	0341                	addi	t1,t1,16
   11b80:	c54ff06f          	j	10fd4 <_vfprintf_r+0x68e>
   11b84:	66c2                	ld	a3,16(sp)
   11b86:	0404f793          	andi	a5,s1,64
   11b8a:	0006a983          	lw	s3,0(a3)
   11b8e:	cbe1                	beqz	a5,11c5e <_vfprintf_r+0x1318>
   11b90:	19c2                	slli	s3,s3,0x30
   11b92:	0309d993          	srli	s3,s3,0x30
   11b96:	b541                	j	11a16 <_vfprintf_r+0x10d0>
   11b98:	0a10                	addi	a2,sp,272
   11b9a:	85d2                	mv	a1,s4
   11b9c:	8556                	mv	a0,s5
   11b9e:	366070ef          	jal	ra,18f04 <__sprint_r>
   11ba2:	940512e3          	bnez	a0,114e6 <_vfprintf_r+0xba0>
   11ba6:	7792                	ld	a5,288(sp)
   11ba8:	835e                	mv	t1,s7
   11baa:	faeff06f          	j	11358 <_vfprintf_r+0xa12>
   11bae:	0017069b          	addiw	a3,a4,1
   11bb2:	8736                	mv	a4,a3
   11bb4:	97e2                	add	a5,a5,s8
   11bb6:	01233023          	sd	s2,0(t1)
   11bba:	fdbfe06f          	j	10b94 <_vfprintf_r+0x24e>
   11bbe:	6512                	ld	a0,256(sp)
   11bc0:	65b2                	ld	a1,264(sp)
   11bc2:	4601                	li	a2,0
   11bc4:	4681                	li	a3,0
   11bc6:	e41a                	sd	t1,8(sp)
   11bc8:	6f0090ef          	jal	ra,1b2b8 <__letf2>
   11bcc:	6322                	ld	t1,8(sp)
   11bce:	54054763          	bltz	a0,1211c <_vfprintf_r+0x17d6>
   11bd2:	0df14783          	lbu	a5,223(sp)
   11bd6:	04700713          	li	a4,71
   11bda:	0000bc97          	auipc	s9,0xb
   11bde:	af6c8c93          	addi	s9,s9,-1290 # 1c6d0 <__clzdi2+0x17e>
   11be2:	25b74f63          	blt	a4,s11,11e40 <_vfprintf_r+0x14fa>
   11be6:	f7f4f493          	andi	s1,s1,-129
   11bea:	ec02                	sd	zero,24(sp)
   11bec:	e882                	sd	zero,80(sp)
   11bee:	f082                	sd	zero,96(sp)
   11bf0:	ec82                	sd	zero,88(sp)
   11bf2:	2481                	sext.w	s1,s1
   11bf4:	498d                	li	s3,3
   11bf6:	4c0d                	li	s8,3
   11bf8:	4e81                	li	t4,0
   11bfa:	8c079863          	bnez	a5,10cca <_vfprintf_r+0x384>
   11bfe:	ef9fe06f          	j	10af6 <_vfprintf_r+0x1b0>
   11c02:	8566                	mv	a0,s9
   11c04:	e41a                	sd	t1,8(sp)
   11c06:	e836                	sd	a3,16(sp)
   11c08:	cabfe0ef          	jal	ra,108b2 <strlen>
   11c0c:	00050c1b          	sext.w	s8,a0
   11c10:	fffc4993          	not	s3,s8
   11c14:	0df14783          	lbu	a5,223(sp)
   11c18:	43f9d993          	srai	s3,s3,0x3f
   11c1c:	013c79b3          	and	s3,s8,s3
   11c20:	ec02                	sd	zero,24(sp)
   11c22:	e882                	sd	zero,80(sp)
   11c24:	f082                	sd	zero,96(sp)
   11c26:	ec82                	sd	zero,88(sp)
   11c28:	6322                	ld	t1,8(sp)
   11c2a:	2981                	sext.w	s3,s3
   11c2c:	4e81                	li	t4,0
   11c2e:	88079e63          	bnez	a5,10cca <_vfprintf_r+0x384>
   11c32:	ec5fe06f          	j	10af6 <_vfprintf_r+0x1b0>
   11c36:	20087793          	andi	a5,a6,512
   11c3a:	26078463          	beqz	a5,11ea2 <_vfprintf_r+0x155c>
   11c3e:	0ff9f993          	andi	s3,s3,255
   11c42:	e83a                	sd	a4,16(sp)
   11c44:	4785                	li	a5,1
   11c46:	8acff06f          	j	10cf2 <_vfprintf_r+0x3ac>
   11c4a:	2004f793          	andi	a5,s1,512
   11c4e:	24078463          	beqz	a5,11e96 <_vfprintf_r+0x1550>
   11c52:	67c2                	ld	a5,16(sp)
   11c54:	00078983          	lb	s3,0(a5)
   11c58:	87ce                	mv	a5,s3
   11c5a:	82eff06f          	j	10c88 <_vfprintf_r+0x342>
   11c5e:	2004f793          	andi	a5,s1,512
   11c62:	24078763          	beqz	a5,11eb0 <_vfprintf_r+0x156a>
   11c66:	0ff9f993          	andi	s3,s3,255
   11c6a:	b375                	j	11a16 <_vfprintf_r+0x10d0>
   11c6c:	2004f793          	andi	a5,s1,512
   11c70:	20078e63          	beqz	a5,11e8c <_vfprintf_r+0x1546>
   11c74:	0ff9f993          	andi	s3,s3,255
   11c78:	86eff06f          	j	10ce6 <_vfprintf_r+0x3a0>
   11c7c:	67b2                	ld	a5,264(sp)
   11c7e:	2207cd63          	bltz	a5,11eb8 <_vfprintf_r+0x1572>
   11c82:	0df14783          	lbu	a5,223(sp)
   11c86:	04700713          	li	a4,71
   11c8a:	0000bc97          	auipc	s9,0xb
   11c8e:	a56c8c93          	addi	s9,s9,-1450 # 1c6e0 <__clzdi2+0x18e>
   11c92:	f5b75ae3          	bge	a4,s11,11be6 <_vfprintf_r+0x12a0>
   11c96:	0000bc97          	auipc	s9,0xb
   11c9a:	a52c8c93          	addi	s9,s9,-1454 # 1c6e8 <__clzdi2+0x196>
   11c9e:	b7a1                	j	11be6 <_vfprintf_r+0x12a0>
   11ca0:	0017069b          	addiw	a3,a4,1
   11ca4:	97e2                	add	a5,a5,s8
   11ca6:	01233023          	sd	s2,0(t1)
   11caa:	01833423          	sd	s8,8(t1)
   11cae:	f23e                	sd	a5,288(sp)
   11cb0:	10d12c23          	sw	a3,280(sp)
   11cb4:	471d                	li	a4,7
   11cb6:	0341                	addi	t1,t1,16
   11cb8:	aad758e3          	bge	a4,a3,11768 <_vfprintf_r+0xe22>
   11cbc:	0a10                	addi	a2,sp,272
   11cbe:	85d2                	mv	a1,s4
   11cc0:	8556                	mv	a0,s5
   11cc2:	242070ef          	jal	ra,18f04 <__sprint_r>
   11cc6:	820510e3          	bnez	a0,114e6 <_vfprintf_r+0xba0>
   11cca:	7792                	ld	a5,288(sp)
   11ccc:	835e                	mv	t1,s7
   11cce:	bc69                	j	11768 <_vfprintf_r+0xe22>
   11cd0:	7702                	ld	a4,32(sp)
   11cd2:	4c1d                	li	s8,7
   11cd4:	9766                	add	a4,a4,s9
   11cd6:	f83a                	sd	a4,48(sp)
   11cd8:	7706                	ld	a4,96(sp)
   11cda:	cb49                	beqz	a4,11d6c <_vfprintf_r+0x1426>
   11cdc:	6746                	ld	a4,80(sp)
   11cde:	eb51                	bnez	a4,11d72 <_vfprintf_r+0x142c>
   11ce0:	7726                	ld	a4,104(sp)
   11ce2:	177d                	addi	a4,a4,-1
   11ce4:	f4ba                	sd	a4,104(sp)
   11ce6:	7706                	ld	a4,96(sp)
   11ce8:	377d                	addiw	a4,a4,-1
   11cea:	f0ba                	sd	a4,96(sp)
   11cec:	674a                	ld	a4,144(sp)
   11cee:	66aa                	ld	a3,136(sp)
   11cf0:	0341                	addi	t1,t1,16
   11cf2:	fee33823          	sd	a4,-16(t1)
   11cf6:	11812703          	lw	a4,280(sp)
   11cfa:	97b6                	add	a5,a5,a3
   11cfc:	fed33c23          	sd	a3,-8(t1)
   11d00:	2705                	addiw	a4,a4,1
   11d02:	f23e                	sd	a5,288(sp)
   11d04:	0007069b          	sext.w	a3,a4
   11d08:	10e12c23          	sw	a4,280(sp)
   11d0c:	0cdc4e63          	blt	s8,a3,11de8 <_vfprintf_r+0x14a2>
   11d10:	7726                	ld	a4,104(sp)
   11d12:	00074603          	lbu	a2,0(a4)
   11d16:	7742                	ld	a4,48(sp)
   11d18:	41b705bb          	subw	a1,a4,s11
   11d1c:	0006071b          	sext.w	a4,a2
   11d20:	0007069b          	sext.w	a3,a4
   11d24:	00e5d463          	bge	a1,a4,11d2c <_vfprintf_r+0x13e6>
   11d28:	0005869b          	sext.w	a3,a1
   11d2c:	02d05663          	blez	a3,11d58 <_vfprintf_r+0x1412>
   11d30:	11812703          	lw	a4,280(sp)
   11d34:	97b6                	add	a5,a5,a3
   11d36:	01b33023          	sd	s11,0(t1)
   11d3a:	0017061b          	addiw	a2,a4,1
   11d3e:	00d33423          	sd	a3,8(t1)
   11d42:	f23e                	sd	a5,288(sp)
   11d44:	10c12c23          	sw	a2,280(sp)
   11d48:	0acc4a63          	blt	s8,a2,11dfc <_vfprintf_r+0x14b6>
   11d4c:	7726                	ld	a4,104(sp)
   11d4e:	0341                	addi	t1,t1,16
   11d50:	00074603          	lbu	a2,0(a4)
   11d54:	0006071b          	sext.w	a4,a2
   11d58:	fff6c593          	not	a1,a3
   11d5c:	95fd                	srai	a1,a1,0x3f
   11d5e:	8eed                	and	a3,a3,a1
   11d60:	9f15                	subw	a4,a4,a3
   11d62:	00e04c63          	bgtz	a4,11d7a <_vfprintf_r+0x1434>
   11d66:	9db2                	add	s11,s11,a2
   11d68:	7706                	ld	a4,96(sp)
   11d6a:	fb2d                	bnez	a4,11cdc <_vfprintf_r+0x1396>
   11d6c:	6746                	ld	a4,80(sp)
   11d6e:	30070463          	beqz	a4,12076 <_vfprintf_r+0x1730>
   11d72:	6746                	ld	a4,80(sp)
   11d74:	377d                	addiw	a4,a4,-1
   11d76:	e8ba                	sd	a4,80(sp)
   11d78:	bf95                	j	11cec <_vfprintf_r+0x13a6>
   11d7a:	11812683          	lw	a3,280(sp)
   11d7e:	00ed4663          	blt	s10,a4,11d8a <_vfprintf_r+0x1444>
   11d82:	a081                	j	11dc2 <_vfprintf_r+0x147c>
   11d84:	3741                	addiw	a4,a4,-16
   11d86:	02ed5e63          	bge	s10,a4,11dc2 <_vfprintf_r+0x147c>
   11d8a:	2685                	addiw	a3,a3,1
   11d8c:	07c1                	addi	a5,a5,16
   11d8e:	01233023          	sd	s2,0(t1)
   11d92:	01a33423          	sd	s10,8(t1)
   11d96:	f23e                	sd	a5,288(sp)
   11d98:	10d12c23          	sw	a3,280(sp)
   11d9c:	0341                	addi	t1,t1,16
   11d9e:	fedc53e3          	bge	s8,a3,11d84 <_vfprintf_r+0x143e>
   11da2:	0a10                	addi	a2,sp,272
   11da4:	85d2                	mv	a1,s4
   11da6:	8556                	mv	a0,s5
   11da8:	e43a                	sd	a4,8(sp)
   11daa:	15a070ef          	jal	ra,18f04 <__sprint_r>
   11dae:	f2051c63          	bnez	a0,114e6 <_vfprintf_r+0xba0>
   11db2:	6722                	ld	a4,8(sp)
   11db4:	7792                	ld	a5,288(sp)
   11db6:	11812683          	lw	a3,280(sp)
   11dba:	3741                	addiw	a4,a4,-16
   11dbc:	835e                	mv	t1,s7
   11dbe:	fced46e3          	blt	s10,a4,11d8a <_vfprintf_r+0x1444>
   11dc2:	2685                	addiw	a3,a3,1
   11dc4:	97ba                	add	a5,a5,a4
   11dc6:	00e33423          	sd	a4,8(t1)
   11dca:	01233023          	sd	s2,0(t1)
   11dce:	f23e                	sd	a5,288(sp)
   11dd0:	0006871b          	sext.w	a4,a3
   11dd4:	10d12c23          	sw	a3,280(sp)
   11dd8:	32ec4463          	blt	s8,a4,12100 <_vfprintf_r+0x17ba>
   11ddc:	7726                	ld	a4,104(sp)
   11dde:	0341                	addi	t1,t1,16
   11de0:	00074603          	lbu	a2,0(a4)
   11de4:	9db2                	add	s11,s11,a2
   11de6:	b749                	j	11d68 <_vfprintf_r+0x1422>
   11de8:	0a10                	addi	a2,sp,272
   11dea:	85d2                	mv	a1,s4
   11dec:	8556                	mv	a0,s5
   11dee:	116070ef          	jal	ra,18f04 <__sprint_r>
   11df2:	ee051a63          	bnez	a0,114e6 <_vfprintf_r+0xba0>
   11df6:	7792                	ld	a5,288(sp)
   11df8:	835e                	mv	t1,s7
   11dfa:	bf19                	j	11d10 <_vfprintf_r+0x13ca>
   11dfc:	0a10                	addi	a2,sp,272
   11dfe:	85d2                	mv	a1,s4
   11e00:	8556                	mv	a0,s5
   11e02:	e436                	sd	a3,8(sp)
   11e04:	100070ef          	jal	ra,18f04 <__sprint_r>
   11e08:	ec051f63          	bnez	a0,114e6 <_vfprintf_r+0xba0>
   11e0c:	77a6                	ld	a5,104(sp)
   11e0e:	66a2                	ld	a3,8(sp)
   11e10:	835e                	mv	t1,s7
   11e12:	0007c603          	lbu	a2,0(a5)
   11e16:	7792                	ld	a5,288(sp)
   11e18:	0006071b          	sext.w	a4,a2
   11e1c:	bf35                	j	11d58 <_vfprintf_r+0x1412>
   11e1e:	2605                	addiw	a2,a2,1
   11e20:	01070313          	addi	t1,a4,16
   11e24:	8c3a                	mv	s8,a4
   11e26:	f76ff06f          	j	1159c <_vfprintf_r+0xc56>
   11e2a:	0a10                	addi	a2,sp,272
   11e2c:	85d2                	mv	a1,s4
   11e2e:	8556                	mv	a0,s5
   11e30:	0d4070ef          	jal	ra,18f04 <__sprint_r>
   11e34:	ea051963          	bnez	a0,114e6 <_vfprintf_r+0xba0>
   11e38:	562e                	lw	a2,232(sp)
   11e3a:	7792                	ld	a5,288(sp)
   11e3c:	835e                	mv	t1,s7
   11e3e:	b329                	j	11b48 <_vfprintf_r+0x1202>
   11e40:	0000bc97          	auipc	s9,0xb
   11e44:	898c8c93          	addi	s9,s9,-1896 # 1c6d8 <__clzdi2+0x186>
   11e48:	bb79                	j	11be6 <_vfprintf_r+0x12a0>
   11e4a:	0a10                	addi	a2,sp,272
   11e4c:	85d2                	mv	a1,s4
   11e4e:	8556                	mv	a0,s5
   11e50:	0b4070ef          	jal	ra,18f04 <__sprint_r>
   11e54:	e8051963          	bnez	a0,114e6 <_vfprintf_r+0xba0>
   11e58:	7792                	ld	a5,288(sp)
   11e5a:	835e                	mv	t1,s7
   11e5c:	b8e5                	j	11754 <_vfprintf_r+0xe0e>
   11e5e:	4c19                	li	s8,6
   11e60:	b135                	j	11a8c <_vfprintf_r+0x1146>
   11e62:	7682                	ld	a3,32(sp)
   11e64:	00dc8833          	add	a6,s9,a3
   11e68:	40e6873b          	subw	a4,a3,a4
   11e6c:	41b80ebb          	subw	t4,a6,s11
   11e70:	0007069b          	sext.w	a3,a4
   11e74:	00ded363          	bge	t4,a3,11e7a <_vfprintf_r+0x1534>
   11e78:	8776                	mv	a4,t4
   11e7a:	00070c9b          	sext.w	s9,a4
   11e7e:	b2bd                	j	117ec <_vfprintf_r+0xea6>
   11e80:	6782                	ld	a5,0(sp)
   11e82:	8ca2                	mv	s9,s0
   11e84:	00f71023          	sh	a5,0(a4)
   11e88:	d51fe06f          	j	10bd8 <_vfprintf_r+0x292>
   11e8c:	1982                	slli	s3,s3,0x20
   11e8e:	0209d993          	srli	s3,s3,0x20
   11e92:	e55fe06f          	j	10ce6 <_vfprintf_r+0x3a0>
   11e96:	67c2                	ld	a5,16(sp)
   11e98:	0007a983          	lw	s3,0(a5)
   11e9c:	87ce                	mv	a5,s3
   11e9e:	debfe06f          	j	10c88 <_vfprintf_r+0x342>
   11ea2:	1982                	slli	s3,s3,0x20
   11ea4:	0209d993          	srli	s3,s3,0x20
   11ea8:	e83a                	sd	a4,16(sp)
   11eaa:	4785                	li	a5,1
   11eac:	e47fe06f          	j	10cf2 <_vfprintf_r+0x3ac>
   11eb0:	1982                	slli	s3,s3,0x20
   11eb2:	0209d993          	srli	s3,s3,0x20
   11eb6:	b685                	j	11a16 <_vfprintf_r+0x10d0>
   11eb8:	02d00793          	li	a5,45
   11ebc:	0cf10fa3          	sb	a5,223(sp)
   11ec0:	b3d9                	j	11c86 <_vfprintf_r+0x1340>
   11ec2:	0a10                	addi	a2,sp,272
   11ec4:	85d2                	mv	a1,s4
   11ec6:	8556                	mv	a0,s5
   11ec8:	03c070ef          	jal	ra,18f04 <__sprint_r>
   11ecc:	d1dfe06f          	j	10be8 <_vfprintf_r+0x2a2>
   11ed0:	03000793          	li	a5,48
   11ed4:	0ef10023          	sb	a5,224(sp)
   11ed8:	05800713          	li	a4,88
   11edc:	0024e793          	ori	a5,s1,2
   11ee0:	2781                	sext.w	a5,a5
   11ee2:	0ee100a3          	sb	a4,225(sp)
   11ee6:	ed3e                	sd	a5,152(sp)
   11ee8:	06300713          	li	a4,99
   11eec:	ec02                	sd	zero,24(sp)
   11eee:	12810c93          	addi	s9,sp,296
   11ef2:	47d74563          	blt	a4,t4,1235c <_vfprintf_r+0x1a16>
   11ef6:	69b2                	ld	s3,264(sp)
   11ef8:	fdfdf713          	andi	a4,s11,-33
   11efc:	1024e493          	ori	s1,s1,258
   11f00:	f0ba                	sd	a4,96(sp)
   11f02:	e582                	sd	zero,200(sp)
   11f04:	6c12                	ld	s8,256(sp)
   11f06:	2481                	sext.w	s1,s1
   11f08:	1e09c463          	bltz	s3,120f0 <_vfprintf_r+0x17aa>
   11f0c:	06100793          	li	a5,97
   11f10:	52fd8c63          	beq	s11,a5,12448 <_vfprintf_r+0x1b02>
   11f14:	04100793          	li	a5,65
   11f18:	00fd8463          	beq	s11,a5,11f20 <_vfprintf_r+0x15da>
   11f1c:	eb7fe06f          	j	10dd2 <_vfprintf_r+0x48c>
   11f20:	85ce                	mv	a1,s3
   11f22:	8562                	mv	a0,s8
   11f24:	fc1a                	sd	t1,56(sp)
   11f26:	f876                	sd	t4,48(sp)
   11f28:	3f80a0ef          	jal	ra,1c320 <__trunctfdf2>
   11f2c:	11a8                	addi	a0,sp,232
   11f2e:	765040ef          	jal	ra,16e92 <frexp>
   11f32:	32e0a0ef          	jal	ra,1c260 <__extenddftf2>
   11f36:	0000b797          	auipc	a5,0xb
   11f3a:	9aa78793          	addi	a5,a5,-1622 # 1c8e0 <zeroes.4521+0x30>
   11f3e:	6390                	ld	a2,0(a5)
   11f40:	6794                	ld	a3,8(a5)
   11f42:	41e090ef          	jal	ra,1b360 <__multf3>
   11f46:	4601                	li	a2,0
   11f48:	4681                	li	a3,0
   11f4a:	f02a                	sd	a0,32(sp)
   11f4c:	e42e                	sd	a1,8(sp)
   11f4e:	22e090ef          	jal	ra,1b17c <__eqtf2>
   11f52:	62a2                	ld	t0,8(sp)
   11f54:	7702                	ld	a4,32(sp)
   11f56:	7ec2                	ld	t4,48(sp)
   11f58:	7362                	ld	t1,56(sp)
   11f5a:	e119                	bnez	a0,11f60 <_vfprintf_r+0x161a>
   11f5c:	4785                	li	a5,1
   11f5e:	d5be                	sw	a5,232(sp)
   11f60:	0000a797          	auipc	a5,0xa
   11f64:	79078793          	addi	a5,a5,1936 # 1c6f0 <__clzdi2+0x19e>
   11f68:	e8be                	sd	a5,80(sp)
   11f6a:	020e9793          	slli	a5,t4,0x20
   11f6e:	0000b697          	auipc	a3,0xb
   11f72:	95268693          	addi	a3,a3,-1710 # 1c8c0 <zeroes.4521+0x10>
   11f76:	9381                	srli	a5,a5,0x20
   11f78:	6290                	ld	a2,0(a3)
   11f7a:	0785                	addi	a5,a5,1
   11f7c:	6694                	ld	a3,8(a3)
   11f7e:	97e6                	add	a5,a5,s9
   11f80:	f13e                	sd	a5,160(sp)
   11f82:	01dc87bb          	addw	a5,s9,t4
   11f86:	fd32                	sd	a2,184(sp)
   11f88:	e1b6                	sd	a3,192(sp)
   11f8a:	8c66                	mv	s8,s9
   11f8c:	db3e                	sw	a5,180(sp)
   11f8e:	a831                	j	11faa <_vfprintf_r+0x1664>
   11f90:	4601                	li	a2,0
   11f92:	4681                	li	a3,0
   11f94:	e4ae                	sd	a1,72(sp)
   11f96:	e0aa                	sd	a0,64(sp)
   11f98:	1e4090ef          	jal	ra,1b17c <__eqtf2>
   11f9c:	7ec2                	ld	t4,48(sp)
   11f9e:	7362                	ld	t1,56(sp)
   11fa0:	6f86                	ld	t6,64(sp)
   11fa2:	68a6                	ld	a7,72(sp)
   11fa4:	62a2                	ld	t0,8(sp)
   11fa6:	7702                	ld	a4,32(sp)
   11fa8:	c135                	beqz	a0,1200c <_vfprintf_r+0x16c6>
   11faa:	766a                	ld	a2,184(sp)
   11fac:	668e                	ld	a3,192(sp)
   11fae:	853a                	mv	a0,a4
   11fb0:	8596                	mv	a1,t0
   11fb2:	fc1a                	sd	t1,56(sp)
   11fb4:	f876                	sd	t4,48(sp)
   11fb6:	3aa090ef          	jal	ra,1b360 <__multf3>
   11fba:	e42e                	sd	a1,8(sp)
   11fbc:	f02a                	sd	a0,32(sp)
   11fbe:	1b00a0ef          	jal	ra,1c16e <__fixtfsi>
   11fc2:	0005099b          	sext.w	s3,a0
   11fc6:	854e                	mv	a0,s3
   11fc8:	23c0a0ef          	jal	ra,1c204 <__floatsitf>
   11fcc:	7882                	ld	a7,32(sp)
   11fce:	6722                	ld	a4,8(sp)
   11fd0:	862a                	mv	a2,a0
   11fd2:	86ae                	mv	a3,a1
   11fd4:	8546                	mv	a0,a7
   11fd6:	85ba                	mv	a1,a4
   11fd8:	19b090ef          	jal	ra,1b972 <__subtf3>
   11fdc:	67c6                	ld	a5,80(sp)
   11fde:	f562                	sd	s8,168(sp)
   11fe0:	0c05                	addi	s8,s8,1
   11fe2:	01378733          	add	a4,a5,s3
   11fe6:	57da                	lw	a5,180(sp)
   11fe8:	00074703          	lbu	a4,0(a4)
   11fec:	f02a                	sd	a0,32(sp)
   11fee:	418787bb          	subw	a5,a5,s8
   11ff2:	ecbe                	sd	a5,88(sp)
   11ff4:	778a                	ld	a5,160(sp)
   11ff6:	feec0fa3          	sb	a4,-1(s8)
   11ffa:	e42e                	sd	a1,8(sp)
   11ffc:	7ec2                	ld	t4,48(sp)
   11ffe:	7362                	ld	t1,56(sp)
   12000:	8faa                	mv	t6,a0
   12002:	88ae                	mv	a7,a1
   12004:	f98796e3          	bne	a5,s8,11f90 <_vfprintf_r+0x164a>
   12008:	57fd                	li	a5,-1
   1200a:	ecbe                	sd	a5,88(sp)
   1200c:	0000b717          	auipc	a4,0xb
   12010:	8c470713          	addi	a4,a4,-1852 # 1c8d0 <zeroes.4521+0x20>
   12014:	6310                	ld	a2,0(a4)
   12016:	6714                	ld	a3,8(a4)
   12018:	857e                	mv	a0,t6
   1201a:	85c6                	mv	a1,a7
   1201c:	f01a                	sd	t1,32(sp)
   1201e:	e476                	sd	t4,8(sp)
   12020:	e4fe                	sd	t6,72(sp)
   12022:	e0b2                	sd	a2,64(sp)
   12024:	fc36                	sd	a3,56(sp)
   12026:	f846                	sd	a7,48(sp)
   12028:	1e8090ef          	jal	ra,1b210 <__getf2>
   1202c:	6ea2                	ld	t4,8(sp)
   1202e:	7302                	ld	t1,32(sp)
   12030:	2ca04f63          	bgtz	a0,1230e <_vfprintf_r+0x19c8>
   12034:	6fa6                	ld	t6,72(sp)
   12036:	78c2                	ld	a7,48(sp)
   12038:	6606                	ld	a2,64(sp)
   1203a:	76e2                	ld	a3,56(sp)
   1203c:	857e                	mv	a0,t6
   1203e:	85c6                	mv	a1,a7
   12040:	13c090ef          	jal	ra,1b17c <__eqtf2>
   12044:	6ea2                	ld	t4,8(sp)
   12046:	7302                	ld	t1,32(sp)
   12048:	e509                	bnez	a0,12052 <_vfprintf_r+0x170c>
   1204a:	0019f993          	andi	s3,s3,1
   1204e:	2c099063          	bnez	s3,1230e <_vfprintf_r+0x19c8>
   12052:	67e6                	ld	a5,88(sp)
   12054:	03000693          	li	a3,48
   12058:	00178713          	addi	a4,a5,1
   1205c:	9762                	add	a4,a4,s8
   1205e:	0007c763          	bltz	a5,1206c <_vfprintf_r+0x1726>
   12062:	0c05                	addi	s8,s8,1
   12064:	fedc0fa3          	sb	a3,-1(s8)
   12068:	ff871de3          	bne	a4,s8,12062 <_vfprintf_r+0x171c>
   1206c:	419c07bb          	subw	a5,s8,s9
   12070:	f03e                	sd	a5,32(sp)
   12072:	de5fe06f          	j	10e56 <_vfprintf_r+0x510>
   12076:	7702                	ld	a4,32(sp)
   12078:	9766                	add	a4,a4,s9
   1207a:	efb77e63          	bgeu	a4,s11,11776 <_vfprintf_r+0xe30>
   1207e:	8dba                	mv	s11,a4
   12080:	ef6ff06f          	j	11776 <_vfprintf_r+0xe30>
   12084:	6766                	ld	a4,88(sp)
   12086:	57f5                	li	a5,-3
   12088:	00f74463          	blt	a4,a5,12090 <_vfprintf_r+0x174a>
   1208c:	00eed863          	bge	t4,a4,1209c <_vfprintf_r+0x1756>
   12090:	3df9                	addiw	s11,s11,-2
   12092:	fdfdf793          	andi	a5,s11,-33
   12096:	f0be                	sd	a5,96(sp)
   12098:	ddffe06f          	j	10e76 <_vfprintf_r+0x530>
   1209c:	7782                	ld	a5,32(sp)
   1209e:	6766                	ld	a4,88(sp)
   120a0:	16f74563          	blt	a4,a5,1220a <_vfprintf_r+0x18c4>
   120a4:	67ea                	ld	a5,152(sp)
   120a6:	8c3a                	mv	s8,a4
   120a8:	8b85                	andi	a5,a5,1
   120aa:	c781                	beqz	a5,120b2 <_vfprintf_r+0x176c>
   120ac:	77c6                	ld	a5,112(sp)
   120ae:	00e78c3b          	addw	s8,a5,a4
   120b2:	67ea                	ld	a5,152(sp)
   120b4:	4007f793          	andi	a5,a5,1024
   120b8:	c781                	beqz	a5,120c0 <_vfprintf_r+0x177a>
   120ba:	67e6                	ld	a5,88(sp)
   120bc:	30f04763          	bgtz	a5,123ca <_vfprintf_r+0x1a84>
   120c0:	fffc4993          	not	s3,s8
   120c4:	43f9d993          	srai	s3,s3,0x3f
   120c8:	013c79b3          	and	s3,s8,s3
   120cc:	2981                	sext.w	s3,s3
   120ce:	06700d93          	li	s11,103
   120d2:	e882                	sd	zero,80(sp)
   120d4:	f082                	sd	zero,96(sp)
   120d6:	e83fe06f          	j	10f58 <_vfprintf_r+0x612>
   120da:	0df14783          	lbu	a5,223(sp)
   120de:	4e81                	li	t4,0
   120e0:	c399                	beqz	a5,120e6 <_vfprintf_r+0x17a0>
   120e2:	be9fe06f          	j	10cca <_vfprintf_r+0x384>
   120e6:	a11fe06f          	j	10af6 <_vfprintf_r+0x1b0>
   120ea:	ed26                	sd	s1,152(sp)
   120ec:	ec02                	sd	zero,24(sp)
   120ee:	84fe                	mv	s1,t6
   120f0:	57fd                	li	a5,-1
   120f2:	17fe                	slli	a5,a5,0x3f
   120f4:	00f9c9b3          	xor	s3,s3,a5
   120f8:	02d00793          	li	a5,45
   120fc:	e5be                	sd	a5,200(sp)
   120fe:	b539                	j	11f0c <_vfprintf_r+0x15c6>
   12100:	0a10                	addi	a2,sp,272
   12102:	85d2                	mv	a1,s4
   12104:	8556                	mv	a0,s5
   12106:	5ff060ef          	jal	ra,18f04 <__sprint_r>
   1210a:	bc051e63          	bnez	a0,114e6 <_vfprintf_r+0xba0>
   1210e:	77a6                	ld	a5,104(sp)
   12110:	835e                	mv	t1,s7
   12112:	0007c603          	lbu	a2,0(a5)
   12116:	7792                	ld	a5,288(sp)
   12118:	9db2                	add	s11,s11,a2
   1211a:	b1b9                	j	11d68 <_vfprintf_r+0x1422>
   1211c:	02d00793          	li	a5,45
   12120:	0cf10fa3          	sb	a5,223(sp)
   12124:	bc4d                	j	11bd6 <_vfprintf_r+0x1290>
   12126:	8776                	mv	a4,t4
   12128:	11bc                	addi	a5,sp,232
   1212a:	0f810893          	addi	a7,sp,248
   1212e:	0ec10813          	addi	a6,sp,236
   12132:	4689                	li	a3,2
   12134:	85e2                	mv	a1,s8
   12136:	864e                	mv	a2,s3
   12138:	8556                	mv	a0,s5
   1213a:	f01a                	sd	t1,32(sp)
   1213c:	e476                	sd	t4,8(sp)
   1213e:	458020ef          	jal	ra,14596 <_ldtoa_r>
   12142:	7706                	ld	a4,96(sp)
   12144:	04700793          	li	a5,71
   12148:	6ea2                	ld	t4,8(sp)
   1214a:	7302                	ld	t1,32(sp)
   1214c:	8caa                	mv	s9,a0
   1214e:	02f71d63          	bne	a4,a5,12188 <_vfprintf_r+0x1842>
   12152:	67ea                	ld	a5,152(sp)
   12154:	8b85                	andi	a5,a5,1
   12156:	18079b63          	bnez	a5,122ec <_vfprintf_r+0x19a6>
   1215a:	04700713          	li	a4,71
   1215e:	77ee                	ld	a5,248(sp)
   12160:	f0ba                	sd	a4,96(sp)
   12162:	ceffe06f          	j	10e50 <_vfprintf_r+0x50a>
   12166:	8776                	mv	a4,t4
   12168:	0f810893          	addi	a7,sp,248
   1216c:	0ec10813          	addi	a6,sp,236
   12170:	11bc                	addi	a5,sp,232
   12172:	468d                	li	a3,3
   12174:	85e2                	mv	a1,s8
   12176:	864e                	mv	a2,s3
   12178:	8556                	mv	a0,s5
   1217a:	f01a                	sd	t1,32(sp)
   1217c:	e476                	sd	t4,8(sp)
   1217e:	418020ef          	jal	ra,14596 <_ldtoa_r>
   12182:	6ea2                	ld	t4,8(sp)
   12184:	7302                	ld	t1,32(sp)
   12186:	8caa                	mv	s9,a0
   12188:	7706                	ld	a4,96(sp)
   1218a:	04600793          	li	a5,70
   1218e:	01dc88b3          	add	a7,s9,t4
   12192:	00f70463          	beq	a4,a5,1219a <_vfprintf_r+0x1854>
   12196:	c85fe06f          	j	10e1a <_vfprintf_r+0x4d4>
   1219a:	000cc703          	lbu	a4,0(s9)
   1219e:	03000793          	li	a5,48
   121a2:	00f70663          	beq	a4,a5,121ae <_vfprintf_r+0x1868>
   121a6:	572e                	lw	a4,232(sp)
   121a8:	98ba                	add	a7,a7,a4
   121aa:	c71fe06f          	j	10e1a <_vfprintf_r+0x4d4>
   121ae:	4601                	li	a2,0
   121b0:	4681                	li	a3,0
   121b2:	8562                	mv	a0,s8
   121b4:	85ce                	mv	a1,s3
   121b6:	f846                	sd	a7,48(sp)
   121b8:	f01a                	sd	t1,32(sp)
   121ba:	e476                	sd	t4,8(sp)
   121bc:	7c1080ef          	jal	ra,1b17c <__eqtf2>
   121c0:	6ea2                	ld	t4,8(sp)
   121c2:	7302                	ld	t1,32(sp)
   121c4:	78c2                	ld	a7,48(sp)
   121c6:	d165                	beqz	a0,121a6 <_vfprintf_r+0x1860>
   121c8:	4785                	li	a5,1
   121ca:	41d7873b          	subw	a4,a5,t4
   121ce:	d5ba                	sw	a4,232(sp)
   121d0:	98ba                	add	a7,a7,a4
   121d2:	c49fe06f          	j	10e1a <_vfprintf_r+0x4d4>
   121d6:	0a10                	addi	a2,sp,272
   121d8:	85d2                	mv	a1,s4
   121da:	8556                	mv	a0,s5
   121dc:	529060ef          	jal	ra,18f04 <__sprint_r>
   121e0:	b0051363          	bnez	a0,114e6 <_vfprintf_r+0xba0>
   121e4:	572e                	lw	a4,232(sp)
   121e6:	7792                	ld	a5,288(sp)
   121e8:	835e                	mv	t1,s7
   121ea:	dc2ff06f          	j	117ac <_vfprintf_r+0xe66>
   121ee:	0df14783          	lbu	a5,223(sp)
   121f2:	e836                	sd	a3,16(sp)
   121f4:	e882                	sd	zero,80(sp)
   121f6:	f082                	sd	zero,96(sp)
   121f8:	ec82                	sd	zero,88(sp)
   121fa:	89f6                	mv	s3,t4
   121fc:	8c76                	mv	s8,t4
   121fe:	4e81                	li	t4,0
   12200:	c399                	beqz	a5,12206 <_vfprintf_r+0x18c0>
   12202:	ac9fe06f          	j	10cca <_vfprintf_r+0x384>
   12206:	8f1fe06f          	j	10af6 <_vfprintf_r+0x1b0>
   1220a:	7702                	ld	a4,32(sp)
   1220c:	77c6                	ld	a5,112(sp)
   1220e:	06700d93          	li	s11,103
   12212:	00e78c3b          	addw	s8,a5,a4
   12216:	6766                	ld	a4,88(sp)
   12218:	2ce05263          	blez	a4,124dc <_vfprintf_r+0x1b96>
   1221c:	67ea                	ld	a5,152(sp)
   1221e:	4007f793          	andi	a5,a5,1024
   12222:	1a079663          	bnez	a5,123ce <_vfprintf_r+0x1a88>
   12226:	fffc4993          	not	s3,s8
   1222a:	43f9d993          	srai	s3,s3,0x3f
   1222e:	013c79b3          	and	s3,s8,s3
   12232:	2981                	sext.w	s3,s3
   12234:	bd79                	j	120d2 <_vfprintf_r+0x178c>
   12236:	67ea                	ld	a5,152(sp)
   12238:	6766                	ld	a4,88(sp)
   1223a:	8b85                	andi	a5,a5,1
   1223c:	00fee7b3          	or	a5,t4,a5
   12240:	2ae05c63          	blez	a4,124f8 <_vfprintf_r+0x1bb2>
   12244:	26079d63          	bnez	a5,124be <_vfprintf_r+0x1b78>
   12248:	6c66                	ld	s8,88(sp)
   1224a:	06600d93          	li	s11,102
   1224e:	b7f9                	j	1221c <_vfprintf_r+0x18d6>
   12250:	0a10                	addi	a2,sp,272
   12252:	85d2                	mv	a1,s4
   12254:	8556                	mv	a0,s5
   12256:	4af060ef          	jal	ra,18f04 <__sprint_r>
   1225a:	a8051663          	bnez	a0,114e6 <_vfprintf_r+0xba0>
   1225e:	56ae                	lw	a3,232(sp)
   12260:	7702                	ld	a4,32(sp)
   12262:	7792                	ld	a5,288(sp)
   12264:	835e                	mv	t1,s7
   12266:	40d706bb          	subw	a3,a4,a3
   1226a:	d82ff06f          	j	117ec <_vfprintf_r+0xea6>
   1226e:	57fd                	li	a5,-1
   12270:	e03e                	sd	a5,0(sp)
   12272:	985fe06f          	j	10bf6 <_vfprintf_r+0x2b0>
   12276:	56c1                	li	a3,-16
   12278:	40c00c3b          	negw	s8,a2
   1227c:	02d65f63          	bge	a2,a3,122ba <_vfprintf_r+0x1974>
   12280:	4d9d                	li	s11,7
   12282:	a021                	j	1228a <_vfprintf_r+0x1944>
   12284:	3c41                	addiw	s8,s8,-16
   12286:	038d5a63          	bge	s10,s8,122ba <_vfprintf_r+0x1974>
   1228a:	2705                	addiw	a4,a4,1
   1228c:	07c1                	addi	a5,a5,16
   1228e:	01233023          	sd	s2,0(t1)
   12292:	01a33423          	sd	s10,8(t1)
   12296:	f23e                	sd	a5,288(sp)
   12298:	10e12c23          	sw	a4,280(sp)
   1229c:	0341                	addi	t1,t1,16
   1229e:	feedd3e3          	bge	s11,a4,12284 <_vfprintf_r+0x193e>
   122a2:	0a10                	addi	a2,sp,272
   122a4:	85d2                	mv	a1,s4
   122a6:	8556                	mv	a0,s5
   122a8:	45d060ef          	jal	ra,18f04 <__sprint_r>
   122ac:	a2051d63          	bnez	a0,114e6 <_vfprintf_r+0xba0>
   122b0:	7792                	ld	a5,288(sp)
   122b2:	11812703          	lw	a4,280(sp)
   122b6:	835e                	mv	t1,s7
   122b8:	b7f1                	j	12284 <_vfprintf_r+0x193e>
   122ba:	2705                	addiw	a4,a4,1
   122bc:	97e2                	add	a5,a5,s8
   122be:	01233023          	sd	s2,0(t1)
   122c2:	01833423          	sd	s8,8(t1)
   122c6:	f23e                	sd	a5,288(sp)
   122c8:	10e12c23          	sw	a4,280(sp)
   122cc:	469d                	li	a3,7
   122ce:	8ae6d8e3          	bge	a3,a4,11b7e <_vfprintf_r+0x1238>
   122d2:	0a10                	addi	a2,sp,272
   122d4:	85d2                	mv	a1,s4
   122d6:	8556                	mv	a0,s5
   122d8:	42d060ef          	jal	ra,18f04 <__sprint_r>
   122dc:	a0051563          	bnez	a0,114e6 <_vfprintf_r+0xba0>
   122e0:	7792                	ld	a5,288(sp)
   122e2:	11812703          	lw	a4,280(sp)
   122e6:	835e                	mv	t1,s7
   122e8:	cedfe06f          	j	10fd4 <_vfprintf_r+0x68e>
   122ec:	04700793          	li	a5,71
   122f0:	01dc88b3          	add	a7,s9,t4
   122f4:	f0be                	sd	a5,96(sp)
   122f6:	b25fe06f          	j	10e1a <_vfprintf_r+0x4d4>
   122fa:	8826                	mv	a6,s1
   122fc:	accff06f          	j	115c8 <_vfprintf_r+0xc82>
   12300:	03000793          	li	a5,48
   12304:	0ef10023          	sb	a5,224(sp)
   12308:	07800713          	li	a4,120
   1230c:	bec1                	j	11edc <_vfprintf_r+0x1596>
   1230e:	77aa                	ld	a5,168(sp)
   12310:	8762                	mv	a4,s8
   12312:	fdbe                	sd	a5,248(sp)
   12314:	67c6                	ld	a5,80(sp)
   12316:	fffc4683          	lbu	a3,-1(s8)
   1231a:	00f7c603          	lbu	a2,15(a5)
   1231e:	00d61e63          	bne	a2,a3,1233a <_vfprintf_r+0x19f4>
   12322:	03000593          	li	a1,48
   12326:	feb70fa3          	sb	a1,-1(a4)
   1232a:	776e                	ld	a4,248(sp)
   1232c:	fff70693          	addi	a3,a4,-1
   12330:	fdb6                	sd	a3,248(sp)
   12332:	fff74683          	lbu	a3,-1(a4)
   12336:	fed608e3          	beq	a2,a3,12326 <_vfprintf_r+0x19e0>
   1233a:	0016861b          	addiw	a2,a3,1
   1233e:	03900593          	li	a1,57
   12342:	0ff67613          	andi	a2,a2,255
   12346:	00b68563          	beq	a3,a1,12350 <_vfprintf_r+0x1a0a>
   1234a:	fec70fa3          	sb	a2,-1(a4)
   1234e:	bb39                	j	1206c <_vfprintf_r+0x1726>
   12350:	67c6                	ld	a5,80(sp)
   12352:	00a7c603          	lbu	a2,10(a5)
   12356:	fec70fa3          	sb	a2,-1(a4)
   1235a:	bb09                	j	1206c <_vfprintf_r+0x1726>
   1235c:	001e859b          	addiw	a1,t4,1
   12360:	8556                	mv	a0,s5
   12362:	ec1a                	sd	t1,24(sp)
   12364:	e476                	sd	t4,8(sp)
   12366:	2a2030ef          	jal	ra,15608 <_malloc_r>
   1236a:	6ea2                	ld	t4,8(sp)
   1236c:	6362                	ld	t1,24(sp)
   1236e:	8caa                	mv	s9,a0
   12370:	1e050063          	beqz	a0,12550 <_vfprintf_r+0x1c0a>
   12374:	ec2a                	sd	a0,24(sp)
   12376:	b641                	j	11ef6 <_vfprintf_r+0x15b0>
   12378:	000e9363          	bnez	t4,1237e <_vfprintf_r+0x1a38>
   1237c:	4e85                	li	t4,1
   1237e:	69b2                	ld	s3,264(sp)
   12380:	1004ef93          	ori	t6,s1,256
   12384:	6c12                	ld	s8,256(sp)
   12386:	2f81                	sext.w	t6,t6
   12388:	d609c1e3          	bltz	s3,120ea <_vfprintf_r+0x17a4>
   1238c:	8776                	mv	a4,t4
   1238e:	0f810893          	addi	a7,sp,248
   12392:	0ec10813          	addi	a6,sp,236
   12396:	11bc                	addi	a5,sp,232
   12398:	4689                	li	a3,2
   1239a:	85e2                	mv	a1,s8
   1239c:	864e                	mv	a2,s3
   1239e:	8556                	mv	a0,s5
   123a0:	ec7e                	sd	t6,24(sp)
   123a2:	f01a                	sd	t1,32(sp)
   123a4:	e476                	sd	t4,8(sp)
   123a6:	1f0020ef          	jal	ra,14596 <_ldtoa_r>
   123aa:	6fe2                	ld	t6,24(sp)
   123ac:	ed26                	sd	s1,152(sp)
   123ae:	6ea2                	ld	t4,8(sp)
   123b0:	7302                	ld	t1,32(sp)
   123b2:	8caa                	mv	s9,a0
   123b4:	84fe                	mv	s1,t6
   123b6:	ec02                	sd	zero,24(sp)
   123b8:	e582                	sd	zero,200(sp)
   123ba:	bb61                	j	12152 <_vfprintf_r+0x180c>
   123bc:	4e99                	li	t4,6
   123be:	9fbfe06f          	j	10db8 <_vfprintf_r+0x472>
   123c2:	c31c                	sw	a5,0(a4)
   123c4:	8ca2                	mv	s9,s0
   123c6:	813fe06f          	j	10bd8 <_vfprintf_r+0x292>
   123ca:	06700d93          	li	s11,103
   123ce:	77a6                	ld	a5,104(sp)
   123d0:	0ff00713          	li	a4,255
   123d4:	e882                	sd	zero,80(sp)
   123d6:	0007c783          	lbu	a5,0(a5)
   123da:	f082                	sd	zero,96(sp)
   123dc:	02e78863          	beq	a5,a4,1240c <_vfprintf_r+0x1ac6>
   123e0:	0ff00693          	li	a3,255
   123e4:	6666                	ld	a2,88(sp)
   123e6:	0007871b          	sext.w	a4,a5
   123ea:	02c7d163          	bge	a5,a2,1240c <_vfprintf_r+0x1ac6>
   123ee:	75a6                	ld	a1,104(sp)
   123f0:	40e6073b          	subw	a4,a2,a4
   123f4:	ecba                	sd	a4,88(sp)
   123f6:	0015c783          	lbu	a5,1(a1)
   123fa:	cf8d                	beqz	a5,12434 <_vfprintf_r+0x1aee>
   123fc:	7706                	ld	a4,96(sp)
   123fe:	2705                	addiw	a4,a4,1
   12400:	f0ba                	sd	a4,96(sp)
   12402:	00158713          	addi	a4,a1,1
   12406:	f4ba                	sd	a4,104(sp)
   12408:	fcd79ee3          	bne	a5,a3,123e4 <_vfprintf_r+0x1a9e>
   1240c:	7706                	ld	a4,96(sp)
   1240e:	67c6                	ld	a5,80(sp)
   12410:	9fb9                	addw	a5,a5,a4
   12412:	672a                	ld	a4,136(sp)
   12414:	02e787bb          	mulw	a5,a5,a4
   12418:	018787bb          	addw	a5,a5,s8
   1241c:	00078c1b          	sext.w	s8,a5
   12420:	fffc4993          	not	s3,s8
   12424:	43f9d993          	srai	s3,s3,0x3f
   12428:	0137f7b3          	and	a5,a5,s3
   1242c:	0007899b          	sext.w	s3,a5
   12430:	b29fe06f          	j	10f58 <_vfprintf_r+0x612>
   12434:	6746                	ld	a4,80(sp)
   12436:	77a6                	ld	a5,104(sp)
   12438:	2705                	addiw	a4,a4,1
   1243a:	0007c783          	lbu	a5,0(a5)
   1243e:	e8ba                	sd	a4,80(sp)
   12440:	b7e1                	j	12408 <_vfprintf_r+0x1ac2>
   12442:	ec02                	sd	zero,24(sp)
   12444:	84be                	mv	s1,a5
   12446:	b16d                	j	120f0 <_vfprintf_r+0x17aa>
   12448:	85ce                	mv	a1,s3
   1244a:	8562                	mv	a0,s8
   1244c:	fc1a                	sd	t1,56(sp)
   1244e:	f876                	sd	t4,48(sp)
   12450:	6d1090ef          	jal	ra,1c320 <__trunctfdf2>
   12454:	11a8                	addi	a0,sp,232
   12456:	23d040ef          	jal	ra,16e92 <frexp>
   1245a:	607090ef          	jal	ra,1c260 <__extenddftf2>
   1245e:	0000a797          	auipc	a5,0xa
   12462:	48278793          	addi	a5,a5,1154 # 1c8e0 <zeroes.4521+0x30>
   12466:	6390                	ld	a2,0(a5)
   12468:	6794                	ld	a3,8(a5)
   1246a:	6f7080ef          	jal	ra,1b360 <__multf3>
   1246e:	4601                	li	a2,0
   12470:	4681                	li	a3,0
   12472:	f02a                	sd	a0,32(sp)
   12474:	e42e                	sd	a1,8(sp)
   12476:	507080ef          	jal	ra,1b17c <__eqtf2>
   1247a:	62a2                	ld	t0,8(sp)
   1247c:	7702                	ld	a4,32(sp)
   1247e:	7ec2                	ld	t4,48(sp)
   12480:	7362                	ld	t1,56(sp)
   12482:	e119                	bnez	a0,12488 <_vfprintf_r+0x1b42>
   12484:	4785                	li	a5,1
   12486:	d5be                	sw	a5,232(sp)
   12488:	0000a797          	auipc	a5,0xa
   1248c:	28078793          	addi	a5,a5,640 # 1c708 <__clzdi2+0x1b6>
   12490:	e8be                	sd	a5,80(sp)
   12492:	bce1                	j	11f6a <_vfprintf_r+0x1624>
   12494:	0f210713          	addi	a4,sp,242
   12498:	e699                	bnez	a3,124a6 <_vfprintf_r+0x1b60>
   1249a:	03000713          	li	a4,48
   1249e:	0ee10923          	sb	a4,242(sp)
   124a2:	0f310713          	addi	a4,sp,243
   124a6:	0c14                	addi	a3,sp,528
   124a8:	0307879b          	addiw	a5,a5,48
   124ac:	40d706b3          	sub	a3,a4,a3
   124b0:	00f70023          	sb	a5,0(a4)
   124b4:	1216879b          	addiw	a5,a3,289
   124b8:	e13e                	sd	a5,128(sp)
   124ba:	a65fe06f          	j	10f1e <_vfprintf_r+0x5d8>
   124be:	77c6                	ld	a5,112(sp)
   124c0:	06600d93          	li	s11,102
   124c4:	00e78c3b          	addw	s8,a5,a4
   124c8:	01dc0c3b          	addw	s8,s8,t4
   124cc:	bb81                	j	1221c <_vfprintf_r+0x18d6>
   124ce:	676a                	ld	a4,152(sp)
   124d0:	8b05                	andi	a4,a4,1
   124d2:	e319                	bnez	a4,124d8 <_vfprintf_r+0x1b92>
   124d4:	a65fe06f          	j	10f38 <_vfprintf_r+0x5f2>
   124d8:	a5bfe06f          	j	10f32 <_vfprintf_r+0x5ec>
   124dc:	40ec07bb          	subw	a5,s8,a4
   124e0:	2785                	addiw	a5,a5,1
   124e2:	00078c1b          	sext.w	s8,a5
   124e6:	fffc4993          	not	s3,s8
   124ea:	43f9d993          	srai	s3,s3,0x3f
   124ee:	0137f7b3          	and	a5,a5,s3
   124f2:	0007899b          	sext.w	s3,a5
   124f6:	bef1                	j	120d2 <_vfprintf_r+0x178c>
   124f8:	e791                	bnez	a5,12504 <_vfprintf_r+0x1bbe>
   124fa:	4985                	li	s3,1
   124fc:	06600d93          	li	s11,102
   12500:	4c05                	li	s8,1
   12502:	bec1                	j	120d2 <_vfprintf_r+0x178c>
   12504:	77c6                	ld	a5,112(sp)
   12506:	06600d93          	li	s11,102
   1250a:	2785                	addiw	a5,a5,1
   1250c:	01d78ebb          	addw	t4,a5,t4
   12510:	000e8c1b          	sext.w	s8,t4
   12514:	fffc4993          	not	s3,s8
   12518:	43f9d993          	srai	s3,s3,0x3f
   1251c:	013efeb3          	and	t4,t4,s3
   12520:	000e899b          	sext.w	s3,t4
   12524:	b67d                	j	120d2 <_vfprintf_r+0x178c>
   12526:	871a                	mv	a4,t1
   12528:	c9aff06f          	j	119c2 <_vfprintf_r+0x107c>
   1252c:	66c2                	ld	a3,16(sp)
   1252e:	4298                	lw	a4,0(a3)
   12530:	06a1                	addi	a3,a3,8
   12532:	00070e9b          	sext.w	t4,a4
   12536:	00075363          	bgez	a4,1253c <_vfprintf_r+0x1bf6>
   1253a:	5efd                	li	t4,-1
   1253c:	00144f03          	lbu	t5,1(s0)
   12540:	e836                	sd	a3,16(sp)
   12542:	843e                	mv	s0,a5
   12544:	d36fe06f          	j	10a7a <_vfprintf_r+0x134>
   12548:	4789                	li	a5,2
   1254a:	e13e                	sd	a5,128(sp)
   1254c:	9d3fe06f          	j	10f1e <_vfprintf_r+0x5d8>
   12550:	010a5783          	lhu	a5,16(s4)
   12554:	0407e793          	ori	a5,a5,64
   12558:	00fa1823          	sh	a5,16(s4)
   1255c:	e8cfe06f          	j	10be8 <_vfprintf_r+0x2a2>

0000000000012560 <vfprintf>:
   12560:	86b2                	mv	a3,a2
   12562:	862e                	mv	a2,a1
   12564:	85aa                	mv	a1,a0
   12566:	8501b503          	ld	a0,-1968(gp) # 1f5d8 <_impure_ptr>
   1256a:	bdcfe06f          	j	10946 <_vfprintf_r>

000000000001256e <__sbprintf>:
   1256e:	0105d783          	lhu	a5,16(a1)
   12572:	0ac5ae03          	lw	t3,172(a1)
   12576:	0125d303          	lhu	t1,18(a1)
   1257a:	0305b883          	ld	a7,48(a1)
   1257e:	0405b803          	ld	a6,64(a1)
   12582:	b3010113          	addi	sp,sp,-1232
   12586:	9bf5                	andi	a5,a5,-3
   12588:	40000713          	li	a4,1024
   1258c:	4c813023          	sd	s0,1216(sp)
   12590:	00f11823          	sh	a5,16(sp)
   12594:	842e                	mv	s0,a1
   12596:	191c                	addi	a5,sp,176
   12598:	858a                	mv	a1,sp
   1259a:	4a913c23          	sd	s1,1208(sp)
   1259e:	4b213823          	sd	s2,1200(sp)
   125a2:	4c113423          	sd	ra,1224(sp)
   125a6:	892a                	mv	s2,a0
   125a8:	d772                	sw	t3,172(sp)
   125aa:	00611923          	sh	t1,18(sp)
   125ae:	f846                	sd	a7,48(sp)
   125b0:	e0c2                	sd	a6,64(sp)
   125b2:	e03e                	sd	a5,0(sp)
   125b4:	ec3e                	sd	a5,24(sp)
   125b6:	c63a                	sw	a4,12(sp)
   125b8:	d03a                	sw	a4,32(sp)
   125ba:	d402                	sw	zero,40(sp)
   125bc:	b8afe0ef          	jal	ra,10946 <_vfprintf_r>
   125c0:	84aa                	mv	s1,a0
   125c2:	02055963          	bgez	a0,125f4 <__sbprintf+0x86>
   125c6:	01015783          	lhu	a5,16(sp)
   125ca:	0407f793          	andi	a5,a5,64
   125ce:	c799                	beqz	a5,125dc <__sbprintf+0x6e>
   125d0:	01045783          	lhu	a5,16(s0)
   125d4:	0407e793          	ori	a5,a5,64
   125d8:	00f41823          	sh	a5,16(s0)
   125dc:	4c813083          	ld	ra,1224(sp)
   125e0:	4c013403          	ld	s0,1216(sp)
   125e4:	4b013903          	ld	s2,1200(sp)
   125e8:	8526                	mv	a0,s1
   125ea:	4b813483          	ld	s1,1208(sp)
   125ee:	4d010113          	addi	sp,sp,1232
   125f2:	8082                	ret
   125f4:	858a                	mv	a1,sp
   125f6:	854a                	mv	a0,s2
   125f8:	354000ef          	jal	ra,1294c <_fflush_r>
   125fc:	d569                	beqz	a0,125c6 <__sbprintf+0x58>
   125fe:	54fd                	li	s1,-1
   12600:	b7d9                	j	125c6 <__sbprintf+0x58>

0000000000012602 <__swsetup_r>:
   12602:	1101                	addi	sp,sp,-32
   12604:	e822                	sd	s0,16(sp)
   12606:	e426                	sd	s1,8(sp)
   12608:	ec06                	sd	ra,24(sp)
   1260a:	8501b783          	ld	a5,-1968(gp) # 1f5d8 <_impure_ptr>
   1260e:	84aa                	mv	s1,a0
   12610:	842e                	mv	s0,a1
   12612:	c399                	beqz	a5,12618 <__swsetup_r+0x16>
   12614:	4bb8                	lw	a4,80(a5)
   12616:	cf49                	beqz	a4,126b0 <__swsetup_r+0xae>
   12618:	01041703          	lh	a4,16(s0)
   1261c:	03071793          	slli	a5,a4,0x30
   12620:	00877693          	andi	a3,a4,8
   12624:	93c1                	srli	a5,a5,0x30
   12626:	c29d                	beqz	a3,1264c <__swsetup_r+0x4a>
   12628:	6c14                	ld	a3,24(s0)
   1262a:	ce9d                	beqz	a3,12668 <__swsetup_r+0x66>
   1262c:	0017f613          	andi	a2,a5,1
   12630:	ce39                	beqz	a2,1268e <__swsetup_r+0x8c>
   12632:	5010                	lw	a2,32(s0)
   12634:	00042623          	sw	zero,12(s0)
   12638:	4501                	li	a0,0
   1263a:	40c0063b          	negw	a2,a2
   1263e:	d410                	sw	a2,40(s0)
   12640:	ceb9                	beqz	a3,1269e <__swsetup_r+0x9c>
   12642:	60e2                	ld	ra,24(sp)
   12644:	6442                	ld	s0,16(sp)
   12646:	64a2                	ld	s1,8(sp)
   12648:	6105                	addi	sp,sp,32
   1264a:	8082                	ret
   1264c:	0107f693          	andi	a3,a5,16
   12650:	cac1                	beqz	a3,126e0 <__swsetup_r+0xde>
   12652:	8b91                	andi	a5,a5,4
   12654:	e3b5                	bnez	a5,126b8 <__swsetup_r+0xb6>
   12656:	6c14                	ld	a3,24(s0)
   12658:	00876713          	ori	a4,a4,8
   1265c:	03071793          	slli	a5,a4,0x30
   12660:	00e41823          	sh	a4,16(s0)
   12664:	93c1                	srli	a5,a5,0x30
   12666:	f2f9                	bnez	a3,1262c <__swsetup_r+0x2a>
   12668:	2807f613          	andi	a2,a5,640
   1266c:	20000593          	li	a1,512
   12670:	fab60ee3          	beq	a2,a1,1262c <__swsetup_r+0x2a>
   12674:	85a2                	mv	a1,s0
   12676:	8526                	mv	a0,s1
   12678:	6d5020ef          	jal	ra,1554c <__smakebuf_r>
   1267c:	01041703          	lh	a4,16(s0)
   12680:	6c14                	ld	a3,24(s0)
   12682:	03071793          	slli	a5,a4,0x30
   12686:	93c1                	srli	a5,a5,0x30
   12688:	0017f613          	andi	a2,a5,1
   1268c:	f25d                	bnez	a2,12632 <__swsetup_r+0x30>
   1268e:	0027f613          	andi	a2,a5,2
   12692:	4581                	li	a1,0
   12694:	e211                	bnez	a2,12698 <__swsetup_r+0x96>
   12696:	500c                	lw	a1,32(s0)
   12698:	c44c                	sw	a1,12(s0)
   1269a:	4501                	li	a0,0
   1269c:	f2dd                	bnez	a3,12642 <__swsetup_r+0x40>
   1269e:	0807f793          	andi	a5,a5,128
   126a2:	d3c5                	beqz	a5,12642 <__swsetup_r+0x40>
   126a4:	04076713          	ori	a4,a4,64
   126a8:	00e41823          	sh	a4,16(s0)
   126ac:	557d                	li	a0,-1
   126ae:	bf51                	j	12642 <__swsetup_r+0x40>
   126b0:	853e                	mv	a0,a5
   126b2:	530000ef          	jal	ra,12be2 <__sinit>
   126b6:	b78d                	j	12618 <__swsetup_r+0x16>
   126b8:	6c2c                	ld	a1,88(s0)
   126ba:	cd81                	beqz	a1,126d2 <__swsetup_r+0xd0>
   126bc:	07440793          	addi	a5,s0,116
   126c0:	00f58763          	beq	a1,a5,126ce <__swsetup_r+0xcc>
   126c4:	8526                	mv	a0,s1
   126c6:	64e000ef          	jal	ra,12d14 <_free_r>
   126ca:	01041703          	lh	a4,16(s0)
   126ce:	04043c23          	sd	zero,88(s0)
   126d2:	6c14                	ld	a3,24(s0)
   126d4:	fdb77713          	andi	a4,a4,-37
   126d8:	00042423          	sw	zero,8(s0)
   126dc:	e014                	sd	a3,0(s0)
   126de:	bfad                	j	12658 <__swsetup_r+0x56>
   126e0:	47a5                	li	a5,9
   126e2:	c09c                	sw	a5,0(s1)
   126e4:	04076713          	ori	a4,a4,64
   126e8:	00e41823          	sh	a4,16(s0)
   126ec:	557d                	li	a0,-1
   126ee:	bf91                	j	12642 <__swsetup_r+0x40>

00000000000126f0 <__call_exitprocs>:
   126f0:	715d                	addi	sp,sp,-80
   126f2:	f052                	sd	s4,32(sp)
   126f4:	8301ba03          	ld	s4,-2000(gp) # 1f5b8 <_global_impure_ptr>
   126f8:	f84a                	sd	s2,48(sp)
   126fa:	1f8a3903          	ld	s2,504(s4)
   126fe:	e486                	sd	ra,72(sp)
   12700:	e0a2                	sd	s0,64(sp)
   12702:	fc26                	sd	s1,56(sp)
   12704:	f44e                	sd	s3,40(sp)
   12706:	ec56                	sd	s5,24(sp)
   12708:	e85a                	sd	s6,16(sp)
   1270a:	e45e                	sd	s7,8(sp)
   1270c:	e062                	sd	s8,0(sp)
   1270e:	02090863          	beqz	s2,1273e <__call_exitprocs+0x4e>
   12712:	8b2a                	mv	s6,a0
   12714:	8bae                	mv	s7,a1
   12716:	4a85                	li	s5,1
   12718:	59fd                	li	s3,-1
   1271a:	00892483          	lw	s1,8(s2)
   1271e:	fff4841b          	addiw	s0,s1,-1
   12722:	00044e63          	bltz	s0,1273e <__call_exitprocs+0x4e>
   12726:	048e                	slli	s1,s1,0x3
   12728:	94ca                	add	s1,s1,s2
   1272a:	020b8663          	beqz	s7,12756 <__call_exitprocs+0x66>
   1272e:	2084b783          	ld	a5,520(s1)
   12732:	03778263          	beq	a5,s7,12756 <__call_exitprocs+0x66>
   12736:	347d                	addiw	s0,s0,-1
   12738:	14e1                	addi	s1,s1,-8
   1273a:	ff3418e3          	bne	s0,s3,1272a <__call_exitprocs+0x3a>
   1273e:	60a6                	ld	ra,72(sp)
   12740:	6406                	ld	s0,64(sp)
   12742:	74e2                	ld	s1,56(sp)
   12744:	7942                	ld	s2,48(sp)
   12746:	79a2                	ld	s3,40(sp)
   12748:	7a02                	ld	s4,32(sp)
   1274a:	6ae2                	ld	s5,24(sp)
   1274c:	6b42                	ld	s6,16(sp)
   1274e:	6ba2                	ld	s7,8(sp)
   12750:	6c02                	ld	s8,0(sp)
   12752:	6161                	addi	sp,sp,80
   12754:	8082                	ret
   12756:	00892783          	lw	a5,8(s2)
   1275a:	6498                	ld	a4,8(s1)
   1275c:	37fd                	addiw	a5,a5,-1
   1275e:	04878463          	beq	a5,s0,127a6 <__call_exitprocs+0xb6>
   12762:	0004b423          	sd	zero,8(s1)
   12766:	db61                	beqz	a4,12736 <__call_exitprocs+0x46>
   12768:	31092783          	lw	a5,784(s2)
   1276c:	008a96bb          	sllw	a3,s5,s0
   12770:	00892c03          	lw	s8,8(s2)
   12774:	8ff5                	and	a5,a5,a3
   12776:	2781                	sext.w	a5,a5
   12778:	ef89                	bnez	a5,12792 <__call_exitprocs+0xa2>
   1277a:	9702                	jalr	a4
   1277c:	00892703          	lw	a4,8(s2)
   12780:	1f8a3783          	ld	a5,504(s4)
   12784:	01871463          	bne	a4,s8,1278c <__call_exitprocs+0x9c>
   12788:	faf907e3          	beq	s2,a5,12736 <__call_exitprocs+0x46>
   1278c:	dbcd                	beqz	a5,1273e <__call_exitprocs+0x4e>
   1278e:	893e                	mv	s2,a5
   12790:	b769                	j	1271a <__call_exitprocs+0x2a>
   12792:	31492783          	lw	a5,788(s2)
   12796:	1084b583          	ld	a1,264(s1)
   1279a:	8ff5                	and	a5,a5,a3
   1279c:	2781                	sext.w	a5,a5
   1279e:	e799                	bnez	a5,127ac <__call_exitprocs+0xbc>
   127a0:	855a                	mv	a0,s6
   127a2:	9702                	jalr	a4
   127a4:	bfe1                	j	1277c <__call_exitprocs+0x8c>
   127a6:	00892423          	sw	s0,8(s2)
   127aa:	bf75                	j	12766 <__call_exitprocs+0x76>
   127ac:	852e                	mv	a0,a1
   127ae:	9702                	jalr	a4
   127b0:	b7f1                	j	1277c <__call_exitprocs+0x8c>

00000000000127b2 <__sflush_r>:
   127b2:	01059783          	lh	a5,16(a1)
   127b6:	7179                	addi	sp,sp,-48
   127b8:	f022                	sd	s0,32(sp)
   127ba:	e44e                	sd	s3,8(sp)
   127bc:	f406                	sd	ra,40(sp)
   127be:	ec26                	sd	s1,24(sp)
   127c0:	e84a                	sd	s2,16(sp)
   127c2:	0087f693          	andi	a3,a5,8
   127c6:	842e                	mv	s0,a1
   127c8:	89aa                	mv	s3,a0
   127ca:	eecd                	bnez	a3,12884 <__sflush_r+0xd2>
   127cc:	6705                	lui	a4,0x1
   127ce:	80070713          	addi	a4,a4,-2048 # 800 <register_fini-0xf8b0>
   127d2:	4594                	lw	a3,8(a1)
   127d4:	8fd9                	or	a5,a5,a4
   127d6:	00f59823          	sh	a5,16(a1)
   127da:	10d05363          	blez	a3,128e0 <__sflush_r+0x12e>
   127de:	6438                	ld	a4,72(s0)
   127e0:	cb51                	beqz	a4,12874 <__sflush_r+0xc2>
   127e2:	0009a483          	lw	s1,0(s3)
   127e6:	03079693          	slli	a3,a5,0x30
   127ea:	0009a023          	sw	zero,0(s3)
   127ee:	03379613          	slli	a2,a5,0x33
   127f2:	780c                	ld	a1,48(s0)
   127f4:	92c1                	srli	a3,a3,0x30
   127f6:	0e064963          	bltz	a2,128e8 <__sflush_r+0x136>
   127fa:	4601                	li	a2,0
   127fc:	4685                	li	a3,1
   127fe:	854e                	mv	a0,s3
   12800:	9702                	jalr	a4
   12802:	57fd                	li	a5,-1
   12804:	862a                	mv	a2,a0
   12806:	10f50963          	beq	a0,a5,12918 <__sflush_r+0x166>
   1280a:	01045683          	lhu	a3,16(s0)
   1280e:	6438                	ld	a4,72(s0)
   12810:	780c                	ld	a1,48(s0)
   12812:	8a91                	andi	a3,a3,4
   12814:	c699                	beqz	a3,12822 <__sflush_r+0x70>
   12816:	4414                	lw	a3,8(s0)
   12818:	6c3c                	ld	a5,88(s0)
   1281a:	8e15                	sub	a2,a2,a3
   1281c:	c399                	beqz	a5,12822 <__sflush_r+0x70>
   1281e:	583c                	lw	a5,112(s0)
   12820:	8e1d                	sub	a2,a2,a5
   12822:	4681                	li	a3,0
   12824:	854e                	mv	a0,s3
   12826:	9702                	jalr	a4
   12828:	57fd                	li	a5,-1
   1282a:	0cf51163          	bne	a0,a5,128ec <__sflush_r+0x13a>
   1282e:	0009a703          	lw	a4,0(s3)
   12832:	01041783          	lh	a5,16(s0)
   12836:	0e070f63          	beqz	a4,12934 <__sflush_r+0x182>
   1283a:	46f5                	li	a3,29
   1283c:	00d70563          	beq	a4,a3,12846 <__sflush_r+0x94>
   12840:	46d9                	li	a3,22
   12842:	0ed71f63          	bne	a4,a3,12940 <__sflush_r+0x18e>
   12846:	6c14                	ld	a3,24(s0)
   12848:	777d                	lui	a4,0xfffff
   1284a:	7ff70713          	addi	a4,a4,2047 # fffffffffffff7ff <__BSS_END__+0xfffffffffffc78ff>
   1284e:	8ff9                	and	a5,a5,a4
   12850:	00f41823          	sh	a5,16(s0)
   12854:	00042423          	sw	zero,8(s0)
   12858:	e014                	sd	a3,0(s0)
   1285a:	6c2c                	ld	a1,88(s0)
   1285c:	0099a023          	sw	s1,0(s3)
   12860:	c991                	beqz	a1,12874 <__sflush_r+0xc2>
   12862:	07440793          	addi	a5,s0,116
   12866:	00f58563          	beq	a1,a5,12870 <__sflush_r+0xbe>
   1286a:	854e                	mv	a0,s3
   1286c:	4a8000ef          	jal	ra,12d14 <_free_r>
   12870:	04043c23          	sd	zero,88(s0)
   12874:	4501                	li	a0,0
   12876:	70a2                	ld	ra,40(sp)
   12878:	7402                	ld	s0,32(sp)
   1287a:	64e2                	ld	s1,24(sp)
   1287c:	6942                	ld	s2,16(sp)
   1287e:	69a2                	ld	s3,8(sp)
   12880:	6145                	addi	sp,sp,48
   12882:	8082                	ret
   12884:	0185b903          	ld	s2,24(a1)
   12888:	fe0906e3          	beqz	s2,12874 <__sflush_r+0xc2>
   1288c:	6184                	ld	s1,0(a1)
   1288e:	03079713          	slli	a4,a5,0x30
   12892:	9341                	srli	a4,a4,0x30
   12894:	8b0d                	andi	a4,a4,3
   12896:	0125b023          	sd	s2,0(a1)
   1289a:	412484bb          	subw	s1,s1,s2
   1289e:	4781                	li	a5,0
   128a0:	e311                	bnez	a4,128a4 <__sflush_r+0xf2>
   128a2:	519c                	lw	a5,32(a1)
   128a4:	c45c                	sw	a5,12(s0)
   128a6:	00904663          	bgtz	s1,128b2 <__sflush_r+0x100>
   128aa:	b7e9                	j	12874 <__sflush_r+0xc2>
   128ac:	992a                	add	s2,s2,a0
   128ae:	fc9053e3          	blez	s1,12874 <__sflush_r+0xc2>
   128b2:	603c                	ld	a5,64(s0)
   128b4:	780c                	ld	a1,48(s0)
   128b6:	86a6                	mv	a3,s1
   128b8:	864a                	mv	a2,s2
   128ba:	854e                	mv	a0,s3
   128bc:	9782                	jalr	a5
   128be:	9c89                	subw	s1,s1,a0
   128c0:	fea046e3          	bgtz	a0,128ac <__sflush_r+0xfa>
   128c4:	01045783          	lhu	a5,16(s0)
   128c8:	70a2                	ld	ra,40(sp)
   128ca:	64e2                	ld	s1,24(sp)
   128cc:	0407e793          	ori	a5,a5,64
   128d0:	00f41823          	sh	a5,16(s0)
   128d4:	7402                	ld	s0,32(sp)
   128d6:	6942                	ld	s2,16(sp)
   128d8:	69a2                	ld	s3,8(sp)
   128da:	557d                	li	a0,-1
   128dc:	6145                	addi	sp,sp,48
   128de:	8082                	ret
   128e0:	59b8                	lw	a4,112(a1)
   128e2:	eee04ee3          	bgtz	a4,127de <__sflush_r+0x2c>
   128e6:	b779                	j	12874 <__sflush_r+0xc2>
   128e8:	6850                	ld	a2,144(s0)
   128ea:	b725                	j	12812 <__sflush_r+0x60>
   128ec:	01045783          	lhu	a5,16(s0)
   128f0:	777d                	lui	a4,0xfffff
   128f2:	7ff70713          	addi	a4,a4,2047 # fffffffffffff7ff <__BSS_END__+0xfffffffffffc78ff>
   128f6:	8ff9                	and	a5,a5,a4
   128f8:	6c14                	ld	a3,24(s0)
   128fa:	0107979b          	slliw	a5,a5,0x10
   128fe:	4107d79b          	sraiw	a5,a5,0x10
   12902:	00f41823          	sh	a5,16(s0)
   12906:	00042423          	sw	zero,8(s0)
   1290a:	e014                	sd	a3,0(s0)
   1290c:	03379713          	slli	a4,a5,0x33
   12910:	f40755e3          	bgez	a4,1285a <__sflush_r+0xa8>
   12914:	e848                	sd	a0,144(s0)
   12916:	b791                	j	1285a <__sflush_r+0xa8>
   12918:	0009a783          	lw	a5,0(s3)
   1291c:	ee0787e3          	beqz	a5,1280a <__sflush_r+0x58>
   12920:	4775                	li	a4,29
   12922:	00e78563          	beq	a5,a4,1292c <__sflush_r+0x17a>
   12926:	4759                	li	a4,22
   12928:	f8e79ee3          	bne	a5,a4,128c4 <__sflush_r+0x112>
   1292c:	0099a023          	sw	s1,0(s3)
   12930:	4501                	li	a0,0
   12932:	b791                	j	12876 <__sflush_r+0xc4>
   12934:	777d                	lui	a4,0xfffff
   12936:	7ff70713          	addi	a4,a4,2047 # fffffffffffff7ff <__BSS_END__+0xfffffffffffc78ff>
   1293a:	6c14                	ld	a3,24(s0)
   1293c:	8ff9                	and	a5,a5,a4
   1293e:	b7d1                	j	12902 <__sflush_r+0x150>
   12940:	0407e793          	ori	a5,a5,64
   12944:	00f41823          	sh	a5,16(s0)
   12948:	557d                	li	a0,-1
   1294a:	b735                	j	12876 <__sflush_r+0xc4>

000000000001294c <_fflush_r>:
   1294c:	1101                	addi	sp,sp,-32
   1294e:	e822                	sd	s0,16(sp)
   12950:	ec06                	sd	ra,24(sp)
   12952:	842a                	mv	s0,a0
   12954:	c119                	beqz	a0,1295a <_fflush_r+0xe>
   12956:	493c                	lw	a5,80(a0)
   12958:	cb89                	beqz	a5,1296a <_fflush_r+0x1e>
   1295a:	01059783          	lh	a5,16(a1)
   1295e:	ef89                	bnez	a5,12978 <_fflush_r+0x2c>
   12960:	60e2                	ld	ra,24(sp)
   12962:	6442                	ld	s0,16(sp)
   12964:	4501                	li	a0,0
   12966:	6105                	addi	sp,sp,32
   12968:	8082                	ret
   1296a:	e42e                	sd	a1,8(sp)
   1296c:	276000ef          	jal	ra,12be2 <__sinit>
   12970:	65a2                	ld	a1,8(sp)
   12972:	01059783          	lh	a5,16(a1)
   12976:	d7ed                	beqz	a5,12960 <_fflush_r+0x14>
   12978:	8522                	mv	a0,s0
   1297a:	6442                	ld	s0,16(sp)
   1297c:	60e2                	ld	ra,24(sp)
   1297e:	6105                	addi	sp,sp,32
   12980:	bd0d                	j	127b2 <__sflush_r>

0000000000012982 <fflush>:
   12982:	85aa                	mv	a1,a0
   12984:	c501                	beqz	a0,1298c <fflush+0xa>
   12986:	8501b503          	ld	a0,-1968(gp) # 1f5d8 <_impure_ptr>
   1298a:	b7c9                	j	1294c <_fflush_r>
   1298c:	00000597          	auipc	a1,0x0
   12990:	fc058593          	addi	a1,a1,-64 # 1294c <_fflush_r>
   12994:	8301b503          	ld	a0,-2000(gp) # 1f5b8 <_global_impure_ptr>
   12998:	1790006f          	j	13310 <_fwalk_reent>

000000000001299c <__fp_lock>:
   1299c:	4501                	li	a0,0
   1299e:	8082                	ret

00000000000129a0 <_cleanup_r>:
   129a0:	00007597          	auipc	a1,0x7
   129a4:	37858593          	addi	a1,a1,888 # 19d18 <_fclose_r>
   129a8:	1690006f          	j	13310 <_fwalk_reent>

00000000000129ac <__sinit.part.0>:
   129ac:	7139                	addi	sp,sp,-64
   129ae:	fc06                	sd	ra,56(sp)
   129b0:	f822                	sd	s0,48(sp)
   129b2:	f426                	sd	s1,40(sp)
   129b4:	f04a                	sd	s2,32(sp)
   129b6:	ec4e                	sd	s3,24(sp)
   129b8:	e852                	sd	s4,16(sp)
   129ba:	e456                	sd	s5,8(sp)
   129bc:	e05a                	sd	s6,0(sp)
   129be:	6500                	ld	s0,8(a0)
   129c0:	00000717          	auipc	a4,0x0
   129c4:	fe070713          	addi	a4,a4,-32 # 129a0 <_cleanup_r>
   129c8:	ed38                	sd	a4,88(a0)
   129ca:	53850793          	addi	a5,a0,1336
   129ce:	470d                	li	a4,3
   129d0:	52e52423          	sw	a4,1320(a0)
   129d4:	52f53823          	sd	a5,1328(a0)
   129d8:	52053023          	sd	zero,1312(a0)
   129dc:	4791                	li	a5,4
   129de:	892a                	mv	s2,a0
   129e0:	c81c                	sw	a5,16(s0)
   129e2:	4621                	li	a2,8
   129e4:	4581                	li	a1,0
   129e6:	0a042623          	sw	zero,172(s0)
   129ea:	00043023          	sd	zero,0(s0)
   129ee:	00043423          	sd	zero,8(s0)
   129f2:	00043c23          	sd	zero,24(s0)
   129f6:	02042023          	sw	zero,32(s0)
   129fa:	02042423          	sw	zero,40(s0)
   129fe:	0a440513          	addi	a0,s0,164
   12a02:	d31fd0ef          	jal	ra,10732 <memset>
   12a06:	01093483          	ld	s1,16(s2)
   12a0a:	00004b17          	auipc	s6,0x4
   12a0e:	594b0b13          	addi	s6,s6,1428 # 16f9e <__sread>
   12a12:	00004a97          	auipc	s5,0x4
   12a16:	5c8a8a93          	addi	s5,s5,1480 # 16fda <__swrite>
   12a1a:	00004a17          	auipc	s4,0x4
   12a1e:	614a0a13          	addi	s4,s4,1556 # 1702e <__sseek>
   12a22:	00004997          	auipc	s3,0x4
   12a26:	64e98993          	addi	s3,s3,1614 # 17070 <__sclose>
   12a2a:	67c1                	lui	a5,0x10
   12a2c:	03643c23          	sd	s6,56(s0)
   12a30:	05543023          	sd	s5,64(s0)
   12a34:	05443423          	sd	s4,72(s0)
   12a38:	05343823          	sd	s3,80(s0)
   12a3c:	f800                	sd	s0,48(s0)
   12a3e:	07a5                	addi	a5,a5,9
   12a40:	c89c                	sw	a5,16(s1)
   12a42:	4621                	li	a2,8
   12a44:	4581                	li	a1,0
   12a46:	0a04a623          	sw	zero,172(s1)
   12a4a:	0004b023          	sd	zero,0(s1)
   12a4e:	0004b423          	sd	zero,8(s1)
   12a52:	0004bc23          	sd	zero,24(s1)
   12a56:	0204a023          	sw	zero,32(s1)
   12a5a:	0204a423          	sw	zero,40(s1)
   12a5e:	0a448513          	addi	a0,s1,164
   12a62:	cd1fd0ef          	jal	ra,10732 <memset>
   12a66:	01893403          	ld	s0,24(s2)
   12a6a:	000207b7          	lui	a5,0x20
   12a6e:	0364bc23          	sd	s6,56(s1)
   12a72:	0554b023          	sd	s5,64(s1)
   12a76:	0544b423          	sd	s4,72(s1)
   12a7a:	0534b823          	sd	s3,80(s1)
   12a7e:	f884                	sd	s1,48(s1)
   12a80:	07c9                	addi	a5,a5,18
   12a82:	c81c                	sw	a5,16(s0)
   12a84:	0a042623          	sw	zero,172(s0)
   12a88:	00043023          	sd	zero,0(s0)
   12a8c:	00043423          	sd	zero,8(s0)
   12a90:	00043c23          	sd	zero,24(s0)
   12a94:	02042023          	sw	zero,32(s0)
   12a98:	02042423          	sw	zero,40(s0)
   12a9c:	0a440513          	addi	a0,s0,164
   12aa0:	4621                	li	a2,8
   12aa2:	4581                	li	a1,0
   12aa4:	c8ffd0ef          	jal	ra,10732 <memset>
   12aa8:	70e2                	ld	ra,56(sp)
   12aaa:	03643c23          	sd	s6,56(s0)
   12aae:	05543023          	sd	s5,64(s0)
   12ab2:	05443423          	sd	s4,72(s0)
   12ab6:	05343823          	sd	s3,80(s0)
   12aba:	f800                	sd	s0,48(s0)
   12abc:	7442                	ld	s0,48(sp)
   12abe:	4785                	li	a5,1
   12ac0:	04f92823          	sw	a5,80(s2)
   12ac4:	74a2                	ld	s1,40(sp)
   12ac6:	7902                	ld	s2,32(sp)
   12ac8:	69e2                	ld	s3,24(sp)
   12aca:	6a42                	ld	s4,16(sp)
   12acc:	6aa2                	ld	s5,8(sp)
   12ace:	6b02                	ld	s6,0(sp)
   12ad0:	6121                	addi	sp,sp,64
   12ad2:	8082                	ret

0000000000012ad4 <__fp_unlock>:
   12ad4:	4501                	li	a0,0
   12ad6:	8082                	ret

0000000000012ad8 <__sfmoreglue>:
   12ad8:	1101                	addi	sp,sp,-32
   12ada:	e426                	sd	s1,8(sp)
   12adc:	0b000613          	li	a2,176
   12ae0:	fff5849b          	addiw	s1,a1,-1
   12ae4:	02c484b3          	mul	s1,s1,a2
   12ae8:	e04a                	sd	s2,0(sp)
   12aea:	892e                	mv	s2,a1
   12aec:	e822                	sd	s0,16(sp)
   12aee:	ec06                	sd	ra,24(sp)
   12af0:	0c848593          	addi	a1,s1,200
   12af4:	315020ef          	jal	ra,15608 <_malloc_r>
   12af8:	842a                	mv	s0,a0
   12afa:	cd01                	beqz	a0,12b12 <__sfmoreglue+0x3a>
   12afc:	0561                	addi	a0,a0,24
   12afe:	00043023          	sd	zero,0(s0)
   12b02:	01242423          	sw	s2,8(s0)
   12b06:	e808                	sd	a0,16(s0)
   12b08:	0b048613          	addi	a2,s1,176
   12b0c:	4581                	li	a1,0
   12b0e:	c25fd0ef          	jal	ra,10732 <memset>
   12b12:	60e2                	ld	ra,24(sp)
   12b14:	8522                	mv	a0,s0
   12b16:	6442                	ld	s0,16(sp)
   12b18:	64a2                	ld	s1,8(sp)
   12b1a:	6902                	ld	s2,0(sp)
   12b1c:	6105                	addi	sp,sp,32
   12b1e:	8082                	ret

0000000000012b20 <__sfp>:
   12b20:	7179                	addi	sp,sp,-48
   12b22:	ec26                	sd	s1,24(sp)
   12b24:	8301b483          	ld	s1,-2000(gp) # 1f5b8 <_global_impure_ptr>
   12b28:	48bc                	lw	a5,80(s1)
   12b2a:	e84a                	sd	s2,16(sp)
   12b2c:	f406                	sd	ra,40(sp)
   12b2e:	f022                	sd	s0,32(sp)
   12b30:	e44e                	sd	s3,8(sp)
   12b32:	892a                	mv	s2,a0
   12b34:	c3c9                	beqz	a5,12bb6 <__sfp+0x96>
   12b36:	52048493          	addi	s1,s1,1312
   12b3a:	0b000993          	li	s3,176
   12b3e:	449c                	lw	a5,8(s1)
   12b40:	6880                	ld	s0,16(s1)
   12b42:	06f05663          	blez	a5,12bae <__sfp+0x8e>
   12b46:	37fd                	addiw	a5,a5,-1
   12b48:	1782                	slli	a5,a5,0x20
   12b4a:	9381                	srli	a5,a5,0x20
   12b4c:	0785                	addi	a5,a5,1
   12b4e:	033787b3          	mul	a5,a5,s3
   12b52:	97a2                	add	a5,a5,s0
   12b54:	a029                	j	12b5e <__sfp+0x3e>
   12b56:	0b040413          	addi	s0,s0,176
   12b5a:	04878a63          	beq	a5,s0,12bae <__sfp+0x8e>
   12b5e:	01041703          	lh	a4,16(s0)
   12b62:	fb75                	bnez	a4,12b56 <__sfp+0x36>
   12b64:	77c1                	lui	a5,0xffff0
   12b66:	0785                	addi	a5,a5,1
   12b68:	0a042623          	sw	zero,172(s0)
   12b6c:	00043023          	sd	zero,0(s0)
   12b70:	00043423          	sd	zero,8(s0)
   12b74:	c81c                	sw	a5,16(s0)
   12b76:	00043c23          	sd	zero,24(s0)
   12b7a:	02042023          	sw	zero,32(s0)
   12b7e:	02042423          	sw	zero,40(s0)
   12b82:	4621                	li	a2,8
   12b84:	4581                	li	a1,0
   12b86:	0a440513          	addi	a0,s0,164
   12b8a:	ba9fd0ef          	jal	ra,10732 <memset>
   12b8e:	04043c23          	sd	zero,88(s0)
   12b92:	06042023          	sw	zero,96(s0)
   12b96:	06043c23          	sd	zero,120(s0)
   12b9a:	08042023          	sw	zero,128(s0)
   12b9e:	70a2                	ld	ra,40(sp)
   12ba0:	8522                	mv	a0,s0
   12ba2:	7402                	ld	s0,32(sp)
   12ba4:	64e2                	ld	s1,24(sp)
   12ba6:	6942                	ld	s2,16(sp)
   12ba8:	69a2                	ld	s3,8(sp)
   12baa:	6145                	addi	sp,sp,48
   12bac:	8082                	ret
   12bae:	6080                	ld	s0,0(s1)
   12bb0:	c419                	beqz	s0,12bbe <__sfp+0x9e>
   12bb2:	84a2                	mv	s1,s0
   12bb4:	b769                	j	12b3e <__sfp+0x1e>
   12bb6:	8526                	mv	a0,s1
   12bb8:	df5ff0ef          	jal	ra,129ac <__sinit.part.0>
   12bbc:	bfad                	j	12b36 <__sfp+0x16>
   12bbe:	4591                	li	a1,4
   12bc0:	854a                	mv	a0,s2
   12bc2:	f17ff0ef          	jal	ra,12ad8 <__sfmoreglue>
   12bc6:	e088                	sd	a0,0(s1)
   12bc8:	842a                	mv	s0,a0
   12bca:	f565                	bnez	a0,12bb2 <__sfp+0x92>
   12bcc:	47b1                	li	a5,12
   12bce:	00f92023          	sw	a5,0(s2)
   12bd2:	b7f1                	j	12b9e <__sfp+0x7e>

0000000000012bd4 <_cleanup>:
   12bd4:	00007597          	auipc	a1,0x7
   12bd8:	14458593          	addi	a1,a1,324 # 19d18 <_fclose_r>
   12bdc:	8301b503          	ld	a0,-2000(gp) # 1f5b8 <_global_impure_ptr>
   12be0:	af05                	j	13310 <_fwalk_reent>

0000000000012be2 <__sinit>:
   12be2:	493c                	lw	a5,80(a0)
   12be4:	c391                	beqz	a5,12be8 <__sinit+0x6>
   12be6:	8082                	ret
   12be8:	b3d1                	j	129ac <__sinit.part.0>

0000000000012bea <__sfp_lock_acquire>:
   12bea:	8082                	ret

0000000000012bec <__sfp_lock_release>:
   12bec:	8082                	ret

0000000000012bee <__sinit_lock_acquire>:
   12bee:	8082                	ret

0000000000012bf0 <__sinit_lock_release>:
   12bf0:	8082                	ret

0000000000012bf2 <__fp_lock_all>:
   12bf2:	00000597          	auipc	a1,0x0
   12bf6:	daa58593          	addi	a1,a1,-598 # 1299c <__fp_lock>
   12bfa:	8501b503          	ld	a0,-1968(gp) # 1f5d8 <_impure_ptr>
   12bfe:	ad41                	j	1328e <_fwalk>

0000000000012c00 <__fp_unlock_all>:
   12c00:	00000597          	auipc	a1,0x0
   12c04:	ed458593          	addi	a1,a1,-300 # 12ad4 <__fp_unlock>
   12c08:	8501b503          	ld	a0,-1968(gp) # 1f5d8 <_impure_ptr>
   12c0c:	a549                	j	1328e <_fwalk>

0000000000012c0e <__libc_fini_array>:
   12c0e:	1101                	addi	sp,sp,-32
   12c10:	e822                	sd	s0,16(sp)
   12c12:	0000b797          	auipc	a5,0xb
   12c16:	7d678793          	addi	a5,a5,2006 # 1e3e8 <__fini_array_end>
   12c1a:	0000b417          	auipc	s0,0xb
   12c1e:	7c640413          	addi	s0,s0,1990 # 1e3e0 <__init_array_end>
   12c22:	8f81                	sub	a5,a5,s0
   12c24:	e426                	sd	s1,8(sp)
   12c26:	ec06                	sd	ra,24(sp)
   12c28:	4037d493          	srai	s1,a5,0x3
   12c2c:	c881                	beqz	s1,12c3c <__libc_fini_array+0x2e>
   12c2e:	17e1                	addi	a5,a5,-8
   12c30:	943e                	add	s0,s0,a5
   12c32:	601c                	ld	a5,0(s0)
   12c34:	14fd                	addi	s1,s1,-1
   12c36:	1461                	addi	s0,s0,-8
   12c38:	9782                	jalr	a5
   12c3a:	fce5                	bnez	s1,12c32 <__libc_fini_array+0x24>
   12c3c:	60e2                	ld	ra,24(sp)
   12c3e:	6442                	ld	s0,16(sp)
   12c40:	64a2                	ld	s1,8(sp)
   12c42:	6105                	addi	sp,sp,32
   12c44:	8082                	ret

0000000000012c46 <_malloc_trim_r>:
   12c46:	7179                	addi	sp,sp,-48
   12c48:	f022                	sd	s0,32(sp)
   12c4a:	ec26                	sd	s1,24(sp)
   12c4c:	e84a                	sd	s2,16(sp)
   12c4e:	e44e                	sd	s3,8(sp)
   12c50:	e052                	sd	s4,0(sp)
   12c52:	89ae                	mv	s3,a1
   12c54:	f406                	sd	ra,40(sp)
   12c56:	0000ca17          	auipc	s4,0xc
   12c5a:	122a0a13          	addi	s4,s4,290 # 1ed78 <__malloc_av_>
   12c5e:	892a                	mv	s2,a0
   12c60:	26a030ef          	jal	ra,15eca <__malloc_lock>
   12c64:	010a3703          	ld	a4,16(s4)
   12c68:	6785                	lui	a5,0x1
   12c6a:	fdf78413          	addi	s0,a5,-33 # fdf <register_fini-0xf0d1>
   12c6e:	6704                	ld	s1,8(a4)
   12c70:	41340433          	sub	s0,s0,s3
   12c74:	98f1                	andi	s1,s1,-4
   12c76:	9426                	add	s0,s0,s1
   12c78:	8031                	srli	s0,s0,0xc
   12c7a:	147d                	addi	s0,s0,-1
   12c7c:	0432                	slli	s0,s0,0xc
   12c7e:	00f44b63          	blt	s0,a5,12c94 <_malloc_trim_r+0x4e>
   12c82:	4581                	li	a1,0
   12c84:	854a                	mv	a0,s2
   12c86:	1d4040ef          	jal	ra,16e5a <_sbrk_r>
   12c8a:	010a3783          	ld	a5,16(s4)
   12c8e:	97a6                	add	a5,a5,s1
   12c90:	00f50e63          	beq	a0,a5,12cac <_malloc_trim_r+0x66>
   12c94:	854a                	mv	a0,s2
   12c96:	236030ef          	jal	ra,15ecc <__malloc_unlock>
   12c9a:	70a2                	ld	ra,40(sp)
   12c9c:	7402                	ld	s0,32(sp)
   12c9e:	64e2                	ld	s1,24(sp)
   12ca0:	6942                	ld	s2,16(sp)
   12ca2:	69a2                	ld	s3,8(sp)
   12ca4:	6a02                	ld	s4,0(sp)
   12ca6:	4501                	li	a0,0
   12ca8:	6145                	addi	sp,sp,48
   12caa:	8082                	ret
   12cac:	408005b3          	neg	a1,s0
   12cb0:	854a                	mv	a0,s2
   12cb2:	1a8040ef          	jal	ra,16e5a <_sbrk_r>
   12cb6:	57fd                	li	a5,-1
   12cb8:	02f50a63          	beq	a0,a5,12cec <_malloc_trim_r+0xa6>
   12cbc:	0c818713          	addi	a4,gp,200 # 1fe50 <__malloc_current_mallinfo>
   12cc0:	431c                	lw	a5,0(a4)
   12cc2:	010a3683          	ld	a3,16(s4)
   12cc6:	8c81                	sub	s1,s1,s0
   12cc8:	0014e493          	ori	s1,s1,1
   12ccc:	4087843b          	subw	s0,a5,s0
   12cd0:	854a                	mv	a0,s2
   12cd2:	e684                	sd	s1,8(a3)
   12cd4:	c300                	sw	s0,0(a4)
   12cd6:	1f6030ef          	jal	ra,15ecc <__malloc_unlock>
   12cda:	70a2                	ld	ra,40(sp)
   12cdc:	7402                	ld	s0,32(sp)
   12cde:	64e2                	ld	s1,24(sp)
   12ce0:	6942                	ld	s2,16(sp)
   12ce2:	69a2                	ld	s3,8(sp)
   12ce4:	6a02                	ld	s4,0(sp)
   12ce6:	4505                	li	a0,1
   12ce8:	6145                	addi	sp,sp,48
   12cea:	8082                	ret
   12cec:	4581                	li	a1,0
   12cee:	854a                	mv	a0,s2
   12cf0:	16a040ef          	jal	ra,16e5a <_sbrk_r>
   12cf4:	010a3703          	ld	a4,16(s4)
   12cf8:	46fd                	li	a3,31
   12cfa:	40e507b3          	sub	a5,a0,a4
   12cfe:	f8f6dbe3          	bge	a3,a5,12c94 <_malloc_trim_r+0x4e>
   12d02:	8581b683          	ld	a3,-1960(gp) # 1f5e0 <__malloc_sbrk_base>
   12d06:	8d15                	sub	a0,a0,a3
   12d08:	0017e793          	ori	a5,a5,1
   12d0c:	0ca1a423          	sw	a0,200(gp) # 1fe50 <__malloc_current_mallinfo>
   12d10:	e71c                	sd	a5,8(a4)
   12d12:	b749                	j	12c94 <_malloc_trim_r+0x4e>

0000000000012d14 <_free_r>:
   12d14:	c5f5                	beqz	a1,12e00 <_free_r+0xec>
   12d16:	1101                	addi	sp,sp,-32
   12d18:	e822                	sd	s0,16(sp)
   12d1a:	e426                	sd	s1,8(sp)
   12d1c:	842e                	mv	s0,a1
   12d1e:	84aa                	mv	s1,a0
   12d20:	ec06                	sd	ra,24(sp)
   12d22:	1a8030ef          	jal	ra,15eca <__malloc_lock>
   12d26:	ff843583          	ld	a1,-8(s0)
   12d2a:	ff040713          	addi	a4,s0,-16
   12d2e:	0000c517          	auipc	a0,0xc
   12d32:	04a50513          	addi	a0,a0,74 # 1ed78 <__malloc_av_>
   12d36:	ffe5f793          	andi	a5,a1,-2
   12d3a:	00f70633          	add	a2,a4,a5
   12d3e:	6614                	ld	a3,8(a2)
   12d40:	01053803          	ld	a6,16(a0)
   12d44:	9af1                	andi	a3,a3,-4
   12d46:	14c80063          	beq	a6,a2,12e86 <_free_r+0x172>
   12d4a:	e614                	sd	a3,8(a2)
   12d4c:	8985                	andi	a1,a1,1
   12d4e:	00d60833          	add	a6,a2,a3
   12d52:	e1c1                	bnez	a1,12dd2 <_free_r+0xbe>
   12d54:	ff043303          	ld	t1,-16(s0)
   12d58:	00883583          	ld	a1,8(a6)
   12d5c:	0000c897          	auipc	a7,0xc
   12d60:	02c88893          	addi	a7,a7,44 # 1ed88 <__malloc_av_+0x10>
   12d64:	40670733          	sub	a4,a4,t1
   12d68:	01073803          	ld	a6,16(a4)
   12d6c:	979a                	add	a5,a5,t1
   12d6e:	8985                	andi	a1,a1,1
   12d70:	0f180863          	beq	a6,a7,12e60 <_free_r+0x14c>
   12d74:	01873303          	ld	t1,24(a4)
   12d78:	00683c23          	sd	t1,24(a6)
   12d7c:	01033823          	sd	a6,16(t1)
   12d80:	14058d63          	beqz	a1,12eda <_free_r+0x1c6>
   12d84:	0017e693          	ori	a3,a5,1
   12d88:	e714                	sd	a3,8(a4)
   12d8a:	e21c                	sd	a5,0(a2)
   12d8c:	1ff00693          	li	a3,511
   12d90:	08f6e263          	bltu	a3,a5,12e14 <_free_r+0x100>
   12d94:	838d                	srli	a5,a5,0x3
   12d96:	0017869b          	addiw	a3,a5,1
   12d9a:	0016969b          	slliw	a3,a3,0x1
   12d9e:	068e                	slli	a3,a3,0x3
   12da0:	00853803          	ld	a6,8(a0)
   12da4:	96aa                	add	a3,a3,a0
   12da6:	628c                	ld	a1,0(a3)
   12da8:	4027d61b          	sraiw	a2,a5,0x2
   12dac:	4785                	li	a5,1
   12dae:	00c797b3          	sll	a5,a5,a2
   12db2:	0107e7b3          	or	a5,a5,a6
   12db6:	ff068613          	addi	a2,a3,-16
   12dba:	ef10                	sd	a2,24(a4)
   12dbc:	eb0c                	sd	a1,16(a4)
   12dbe:	e51c                	sd	a5,8(a0)
   12dc0:	e298                	sd	a4,0(a3)
   12dc2:	ed98                	sd	a4,24(a1)
   12dc4:	6442                	ld	s0,16(sp)
   12dc6:	60e2                	ld	ra,24(sp)
   12dc8:	8526                	mv	a0,s1
   12dca:	64a2                	ld	s1,8(sp)
   12dcc:	6105                	addi	sp,sp,32
   12dce:	0fe0306f          	j	15ecc <__malloc_unlock>
   12dd2:	00883583          	ld	a1,8(a6)
   12dd6:	8985                	andi	a1,a1,1
   12dd8:	e58d                	bnez	a1,12e02 <_free_r+0xee>
   12dda:	97b6                	add	a5,a5,a3
   12ddc:	0000c897          	auipc	a7,0xc
   12de0:	fac88893          	addi	a7,a7,-84 # 1ed88 <__malloc_av_+0x10>
   12de4:	6a14                	ld	a3,16(a2)
   12de6:	0017e813          	ori	a6,a5,1
   12dea:	00f705b3          	add	a1,a4,a5
   12dee:	11168063          	beq	a3,a7,12eee <_free_r+0x1da>
   12df2:	6e10                	ld	a2,24(a2)
   12df4:	ee90                	sd	a2,24(a3)
   12df6:	ea14                	sd	a3,16(a2)
   12df8:	01073423          	sd	a6,8(a4)
   12dfc:	e19c                	sd	a5,0(a1)
   12dfe:	b779                	j	12d8c <_free_r+0x78>
   12e00:	8082                	ret
   12e02:	0017e693          	ori	a3,a5,1
   12e06:	fed43c23          	sd	a3,-8(s0)
   12e0a:	e21c                	sd	a5,0(a2)
   12e0c:	1ff00693          	li	a3,511
   12e10:	f8f6f2e3          	bgeu	a3,a5,12d94 <_free_r+0x80>
   12e14:	0097d693          	srli	a3,a5,0x9
   12e18:	4611                	li	a2,4
   12e1a:	08d66f63          	bltu	a2,a3,12eb8 <_free_r+0x1a4>
   12e1e:	0067d693          	srli	a3,a5,0x6
   12e22:	0396859b          	addiw	a1,a3,57
   12e26:	0015959b          	slliw	a1,a1,0x1
   12e2a:	0386861b          	addiw	a2,a3,56
   12e2e:	058e                	slli	a1,a1,0x3
   12e30:	95aa                	add	a1,a1,a0
   12e32:	6194                	ld	a3,0(a1)
   12e34:	15c1                	addi	a1,a1,-16
   12e36:	0cd58663          	beq	a1,a3,12f02 <_free_r+0x1ee>
   12e3a:	6690                	ld	a2,8(a3)
   12e3c:	9a71                	andi	a2,a2,-4
   12e3e:	00c7f563          	bgeu	a5,a2,12e48 <_free_r+0x134>
   12e42:	6a94                	ld	a3,16(a3)
   12e44:	fed59be3          	bne	a1,a3,12e3a <_free_r+0x126>
   12e48:	6e8c                	ld	a1,24(a3)
   12e4a:	ef0c                	sd	a1,24(a4)
   12e4c:	eb14                	sd	a3,16(a4)
   12e4e:	6442                	ld	s0,16(sp)
   12e50:	60e2                	ld	ra,24(sp)
   12e52:	e998                	sd	a4,16(a1)
   12e54:	8526                	mv	a0,s1
   12e56:	64a2                	ld	s1,8(sp)
   12e58:	ee98                	sd	a4,24(a3)
   12e5a:	6105                	addi	sp,sp,32
   12e5c:	0700306f          	j	15ecc <__malloc_unlock>
   12e60:	0e059d63          	bnez	a1,12f5a <_free_r+0x246>
   12e64:	6e0c                	ld	a1,24(a2)
   12e66:	6a10                	ld	a2,16(a2)
   12e68:	97b6                	add	a5,a5,a3
   12e6a:	6442                	ld	s0,16(sp)
   12e6c:	ee0c                	sd	a1,24(a2)
   12e6e:	e990                	sd	a2,16(a1)
   12e70:	0017e693          	ori	a3,a5,1
   12e74:	60e2                	ld	ra,24(sp)
   12e76:	e714                	sd	a3,8(a4)
   12e78:	8526                	mv	a0,s1
   12e7a:	973e                	add	a4,a4,a5
   12e7c:	64a2                	ld	s1,8(sp)
   12e7e:	e31c                	sd	a5,0(a4)
   12e80:	6105                	addi	sp,sp,32
   12e82:	04a0306f          	j	15ecc <__malloc_unlock>
   12e86:	8985                	andi	a1,a1,1
   12e88:	97b6                	add	a5,a5,a3
   12e8a:	e989                	bnez	a1,12e9c <_free_r+0x188>
   12e8c:	ff043583          	ld	a1,-16(s0)
   12e90:	8f0d                	sub	a4,a4,a1
   12e92:	6f14                	ld	a3,24(a4)
   12e94:	6b10                	ld	a2,16(a4)
   12e96:	97ae                	add	a5,a5,a1
   12e98:	ee14                	sd	a3,24(a2)
   12e9a:	ea90                	sd	a2,16(a3)
   12e9c:	0017e693          	ori	a3,a5,1
   12ea0:	e714                	sd	a3,8(a4)
   12ea2:	e918                	sd	a4,16(a0)
   12ea4:	8601b703          	ld	a4,-1952(gp) # 1f5e8 <__malloc_trim_threshold>
   12ea8:	f0e7eee3          	bltu	a5,a4,12dc4 <_free_r+0xb0>
   12eac:	8801b583          	ld	a1,-1920(gp) # 1f608 <__malloc_top_pad>
   12eb0:	8526                	mv	a0,s1
   12eb2:	d95ff0ef          	jal	ra,12c46 <_malloc_trim_r>
   12eb6:	b739                	j	12dc4 <_free_r+0xb0>
   12eb8:	4651                	li	a2,20
   12eba:	02d67263          	bgeu	a2,a3,12ede <_free_r+0x1ca>
   12ebe:	05400613          	li	a2,84
   12ec2:	04d66b63          	bltu	a2,a3,12f18 <_free_r+0x204>
   12ec6:	00c7d693          	srli	a3,a5,0xc
   12eca:	06f6859b          	addiw	a1,a3,111
   12ece:	0015959b          	slliw	a1,a1,0x1
   12ed2:	06e6861b          	addiw	a2,a3,110
   12ed6:	058e                	slli	a1,a1,0x3
   12ed8:	bfa1                	j	12e30 <_free_r+0x11c>
   12eda:	97b6                	add	a5,a5,a3
   12edc:	b721                	j	12de4 <_free_r+0xd0>
   12ede:	05c6859b          	addiw	a1,a3,92
   12ee2:	0015959b          	slliw	a1,a1,0x1
   12ee6:	05b6861b          	addiw	a2,a3,91
   12eea:	058e                	slli	a1,a1,0x3
   12eec:	b791                	j	12e30 <_free_r+0x11c>
   12eee:	f518                	sd	a4,40(a0)
   12ef0:	f118                	sd	a4,32(a0)
   12ef2:	01173c23          	sd	a7,24(a4)
   12ef6:	01173823          	sd	a7,16(a4)
   12efa:	01073423          	sd	a6,8(a4)
   12efe:	e19c                	sd	a5,0(a1)
   12f00:	b5d1                	j	12dc4 <_free_r+0xb0>
   12f02:	00853803          	ld	a6,8(a0)
   12f06:	4026561b          	sraiw	a2,a2,0x2
   12f0a:	4785                	li	a5,1
   12f0c:	00c79633          	sll	a2,a5,a2
   12f10:	01066633          	or	a2,a2,a6
   12f14:	e510                	sd	a2,8(a0)
   12f16:	bf15                	j	12e4a <_free_r+0x136>
   12f18:	15400613          	li	a2,340
   12f1c:	00d66c63          	bltu	a2,a3,12f34 <_free_r+0x220>
   12f20:	00f7d693          	srli	a3,a5,0xf
   12f24:	0786859b          	addiw	a1,a3,120
   12f28:	0015959b          	slliw	a1,a1,0x1
   12f2c:	0776861b          	addiw	a2,a3,119
   12f30:	058e                	slli	a1,a1,0x3
   12f32:	bdfd                	j	12e30 <_free_r+0x11c>
   12f34:	55400613          	li	a2,1364
   12f38:	00d66c63          	bltu	a2,a3,12f50 <_free_r+0x23c>
   12f3c:	0127d693          	srli	a3,a5,0x12
   12f40:	07d6859b          	addiw	a1,a3,125
   12f44:	0015959b          	slliw	a1,a1,0x1
   12f48:	07c6861b          	addiw	a2,a3,124
   12f4c:	058e                	slli	a1,a1,0x3
   12f4e:	b5cd                	j	12e30 <_free_r+0x11c>
   12f50:	7f000593          	li	a1,2032
   12f54:	07e00613          	li	a2,126
   12f58:	bde1                	j	12e30 <_free_r+0x11c>
   12f5a:	0017e693          	ori	a3,a5,1
   12f5e:	e714                	sd	a3,8(a4)
   12f60:	e21c                	sd	a5,0(a2)
   12f62:	b58d                	j	12dc4 <_free_r+0xb0>

0000000000012f64 <__sfvwrite_r>:
   12f64:	6a1c                	ld	a5,16(a2)
   12f66:	1a078c63          	beqz	a5,1311e <__sfvwrite_r+0x1ba>
   12f6a:	0105d783          	lhu	a5,16(a1)
   12f6e:	711d                	addi	sp,sp,-96
   12f70:	e8a2                	sd	s0,80(sp)
   12f72:	f852                	sd	s4,48(sp)
   12f74:	f456                	sd	s5,40(sp)
   12f76:	ec86                	sd	ra,88(sp)
   12f78:	e4a6                	sd	s1,72(sp)
   12f7a:	e0ca                	sd	s2,64(sp)
   12f7c:	fc4e                	sd	s3,56(sp)
   12f7e:	f05a                	sd	s6,32(sp)
   12f80:	ec5e                	sd	s7,24(sp)
   12f82:	e862                	sd	s8,16(sp)
   12f84:	e466                	sd	s9,8(sp)
   12f86:	e06a                	sd	s10,0(sp)
   12f88:	0087f713          	andi	a4,a5,8
   12f8c:	8a32                	mv	s4,a2
   12f8e:	8aaa                	mv	s5,a0
   12f90:	842e                	mv	s0,a1
   12f92:	c325                	beqz	a4,12ff2 <__sfvwrite_r+0x8e>
   12f94:	6d98                	ld	a4,24(a1)
   12f96:	cf31                	beqz	a4,12ff2 <__sfvwrite_r+0x8e>
   12f98:	0027f713          	andi	a4,a5,2
   12f9c:	000a3903          	ld	s2,0(s4)
   12fa0:	c735                	beqz	a4,1300c <__sfvwrite_r+0xa8>
   12fa2:	603c                	ld	a5,64(s0)
   12fa4:	780c                	ld	a1,48(s0)
   12fa6:	80000b37          	lui	s6,0x80000
   12faa:	4981                	li	s3,0
   12fac:	4481                	li	s1,0
   12fae:	c00b4b13          	xori	s6,s6,-1024
   12fb2:	864e                	mv	a2,s3
   12fb4:	8556                	mv	a0,s5
   12fb6:	c885                	beqz	s1,12fe6 <__sfvwrite_r+0x82>
   12fb8:	86a6                	mv	a3,s1
   12fba:	009b7363          	bgeu	s6,s1,12fc0 <__sfvwrite_r+0x5c>
   12fbe:	86da                	mv	a3,s6
   12fc0:	2681                	sext.w	a3,a3
   12fc2:	9782                	jalr	a5
   12fc4:	14a05563          	blez	a0,1310e <__sfvwrite_r+0x1aa>
   12fc8:	010a3783          	ld	a5,16(s4)
   12fcc:	99aa                	add	s3,s3,a0
   12fce:	8c89                	sub	s1,s1,a0
   12fd0:	40a78533          	sub	a0,a5,a0
   12fd4:	00aa3823          	sd	a0,16(s4)
   12fd8:	10050763          	beqz	a0,130e6 <__sfvwrite_r+0x182>
   12fdc:	603c                	ld	a5,64(s0)
   12fde:	780c                	ld	a1,48(s0)
   12fe0:	864e                	mv	a2,s3
   12fe2:	8556                	mv	a0,s5
   12fe4:	f8f1                	bnez	s1,12fb8 <__sfvwrite_r+0x54>
   12fe6:	00093983          	ld	s3,0(s2)
   12fea:	00893483          	ld	s1,8(s2)
   12fee:	0941                	addi	s2,s2,16
   12ff0:	b7c9                	j	12fb2 <__sfvwrite_r+0x4e>
   12ff2:	85a2                	mv	a1,s0
   12ff4:	8556                	mv	a0,s5
   12ff6:	e0cff0ef          	jal	ra,12602 <__swsetup_r>
   12ffa:	28051863          	bnez	a0,1328a <__sfvwrite_r+0x326>
   12ffe:	01045783          	lhu	a5,16(s0)
   13002:	000a3903          	ld	s2,0(s4)
   13006:	0027f713          	andi	a4,a5,2
   1300a:	ff41                	bnez	a4,12fa2 <__sfvwrite_r+0x3e>
   1300c:	0017f713          	andi	a4,a5,1
   13010:	eb35                	bnez	a4,13084 <__sfvwrite_r+0x120>
   13012:	4444                	lw	s1,12(s0)
   13014:	6008                	ld	a0,0(s0)
   13016:	80000b37          	lui	s6,0x80000
   1301a:	ffeb4b93          	xori	s7,s6,-2
   1301e:	4c01                	li	s8,0
   13020:	4981                	li	s3,0
   13022:	fffb4b13          	not	s6,s6
   13026:	8ca6                	mv	s9,s1
   13028:	04098863          	beqz	s3,13078 <__sfvwrite_r+0x114>
   1302c:	2007f713          	andi	a4,a5,512
   13030:	12070a63          	beqz	a4,13164 <__sfvwrite_r+0x200>
   13034:	8d26                	mv	s10,s1
   13036:	1899f763          	bgeu	s3,s1,131c4 <__sfvwrite_r+0x260>
   1303a:	8cce                	mv	s9,s3
   1303c:	8d4e                	mv	s10,s3
   1303e:	866a                	mv	a2,s10
   13040:	85e2                	mv	a1,s8
   13042:	5b3020ef          	jal	ra,15df4 <memmove>
   13046:	4458                	lw	a4,12(s0)
   13048:	601c                	ld	a5,0(s0)
   1304a:	84ce                	mv	s1,s3
   1304c:	41970cbb          	subw	s9,a4,s9
   13050:	97ea                	add	a5,a5,s10
   13052:	01942623          	sw	s9,12(s0)
   13056:	e01c                	sd	a5,0(s0)
   13058:	4981                	li	s3,0
   1305a:	010a3603          	ld	a2,16(s4)
   1305e:	9c26                	add	s8,s8,s1
   13060:	409604b3          	sub	s1,a2,s1
   13064:	009a3823          	sd	s1,16(s4)
   13068:	ccbd                	beqz	s1,130e6 <__sfvwrite_r+0x182>
   1306a:	4444                	lw	s1,12(s0)
   1306c:	6008                	ld	a0,0(s0)
   1306e:	01045783          	lhu	a5,16(s0)
   13072:	8ca6                	mv	s9,s1
   13074:	fa099ce3          	bnez	s3,1302c <__sfvwrite_r+0xc8>
   13078:	00093c03          	ld	s8,0(s2)
   1307c:	00893983          	ld	s3,8(s2)
   13080:	0941                	addi	s2,s2,16
   13082:	b755                	j	13026 <__sfvwrite_r+0xc2>
   13084:	4981                	li	s3,0
   13086:	4501                	li	a0,0
   13088:	4c81                	li	s9,0
   1308a:	4c01                	li	s8,0
   1308c:	080c0b63          	beqz	s8,13122 <__sfvwrite_r+0x1be>
   13090:	c145                	beqz	a0,13130 <__sfvwrite_r+0x1cc>
   13092:	8bce                	mv	s7,s3
   13094:	013c7363          	bgeu	s8,s3,1309a <__sfvwrite_r+0x136>
   13098:	8be2                	mv	s7,s8
   1309a:	6008                	ld	a0,0(s0)
   1309c:	6c1c                	ld	a5,24(s0)
   1309e:	5014                	lw	a3,32(s0)
   130a0:	84de                	mv	s1,s7
   130a2:	00a7f763          	bgeu	a5,a0,130b0 <__sfvwrite_r+0x14c>
   130a6:	445c                	lw	a5,12(s0)
   130a8:	00d78b3b          	addw	s6,a5,a3
   130ac:	097b4d63          	blt	s6,s7,13146 <__sfvwrite_r+0x1e2>
   130b0:	18dbc463          	blt	s7,a3,13238 <__sfvwrite_r+0x2d4>
   130b4:	603c                	ld	a5,64(s0)
   130b6:	780c                	ld	a1,48(s0)
   130b8:	8666                	mv	a2,s9
   130ba:	8556                	mv	a0,s5
   130bc:	9782                	jalr	a5
   130be:	84aa                	mv	s1,a0
   130c0:	04a05763          	blez	a0,1310e <__sfvwrite_r+0x1aa>
   130c4:	0005079b          	sext.w	a5,a0
   130c8:	40f989bb          	subw	s3,s3,a5
   130cc:	4505                	li	a0,1
   130ce:	02098b63          	beqz	s3,13104 <__sfvwrite_r+0x1a0>
   130d2:	010a3783          	ld	a5,16(s4)
   130d6:	9ca6                	add	s9,s9,s1
   130d8:	409c0c33          	sub	s8,s8,s1
   130dc:	409784b3          	sub	s1,a5,s1
   130e0:	009a3823          	sd	s1,16(s4)
   130e4:	f4c5                	bnez	s1,1308c <__sfvwrite_r+0x128>
   130e6:	4501                	li	a0,0
   130e8:	60e6                	ld	ra,88(sp)
   130ea:	6446                	ld	s0,80(sp)
   130ec:	64a6                	ld	s1,72(sp)
   130ee:	6906                	ld	s2,64(sp)
   130f0:	79e2                	ld	s3,56(sp)
   130f2:	7a42                	ld	s4,48(sp)
   130f4:	7aa2                	ld	s5,40(sp)
   130f6:	7b02                	ld	s6,32(sp)
   130f8:	6be2                	ld	s7,24(sp)
   130fa:	6c42                	ld	s8,16(sp)
   130fc:	6ca2                	ld	s9,8(sp)
   130fe:	6d02                	ld	s10,0(sp)
   13100:	6125                	addi	sp,sp,96
   13102:	8082                	ret
   13104:	85a2                	mv	a1,s0
   13106:	8556                	mv	a0,s5
   13108:	845ff0ef          	jal	ra,1294c <_fflush_r>
   1310c:	d179                	beqz	a0,130d2 <__sfvwrite_r+0x16e>
   1310e:	01041783          	lh	a5,16(s0)
   13112:	0407e793          	ori	a5,a5,64
   13116:	00f41823          	sh	a5,16(s0)
   1311a:	557d                	li	a0,-1
   1311c:	b7f1                	j	130e8 <__sfvwrite_r+0x184>
   1311e:	4501                	li	a0,0
   13120:	8082                	ret
   13122:	00893c03          	ld	s8,8(s2)
   13126:	00093c83          	ld	s9,0(s2)
   1312a:	0941                	addi	s2,s2,16
   1312c:	fe0c0be3          	beqz	s8,13122 <__sfvwrite_r+0x1be>
   13130:	8662                	mv	a2,s8
   13132:	45a9                	li	a1,10
   13134:	8566                	mv	a0,s9
   13136:	343020ef          	jal	ra,15c78 <memchr>
   1313a:	12050f63          	beqz	a0,13278 <__sfvwrite_r+0x314>
   1313e:	0505                	addi	a0,a0,1
   13140:	419509bb          	subw	s3,a0,s9
   13144:	b7b9                	j	13092 <__sfvwrite_r+0x12e>
   13146:	85e6                	mv	a1,s9
   13148:	865a                	mv	a2,s6
   1314a:	4ab020ef          	jal	ra,15df4 <memmove>
   1314e:	601c                	ld	a5,0(s0)
   13150:	85a2                	mv	a1,s0
   13152:	8556                	mv	a0,s5
   13154:	97da                	add	a5,a5,s6
   13156:	e01c                	sd	a5,0(s0)
   13158:	ff4ff0ef          	jal	ra,1294c <_fflush_r>
   1315c:	f94d                	bnez	a0,1310e <__sfvwrite_r+0x1aa>
   1315e:	87da                	mv	a5,s6
   13160:	84da                	mv	s1,s6
   13162:	b79d                	j	130c8 <__sfvwrite_r+0x164>
   13164:	6c1c                	ld	a5,24(s0)
   13166:	02a7e863          	bltu	a5,a0,13196 <__sfvwrite_r+0x232>
   1316a:	501c                	lw	a5,32(s0)
   1316c:	02f9e563          	bltu	s3,a5,13196 <__sfvwrite_r+0x232>
   13170:	86ce                	mv	a3,s3
   13172:	013bf363          	bgeu	s7,s3,13178 <__sfvwrite_r+0x214>
   13176:	86da                	mv	a3,s6
   13178:	02f6c6bb          	divw	a3,a3,a5
   1317c:	6038                	ld	a4,64(s0)
   1317e:	780c                	ld	a1,48(s0)
   13180:	8662                	mv	a2,s8
   13182:	8556                	mv	a0,s5
   13184:	02f686bb          	mulw	a3,a3,a5
   13188:	9702                	jalr	a4
   1318a:	84aa                	mv	s1,a0
   1318c:	f8a051e3          	blez	a0,1310e <__sfvwrite_r+0x1aa>
   13190:	409989b3          	sub	s3,s3,s1
   13194:	b5d9                	j	1305a <__sfvwrite_r+0xf6>
   13196:	0099f363          	bgeu	s3,s1,1319c <__sfvwrite_r+0x238>
   1319a:	84ce                	mv	s1,s3
   1319c:	8626                	mv	a2,s1
   1319e:	85e2                	mv	a1,s8
   131a0:	455020ef          	jal	ra,15df4 <memmove>
   131a4:	445c                	lw	a5,12(s0)
   131a6:	6018                	ld	a4,0(s0)
   131a8:	409786bb          	subw	a3,a5,s1
   131ac:	9726                	add	a4,a4,s1
   131ae:	c454                	sw	a3,12(s0)
   131b0:	e018                	sd	a4,0(s0)
   131b2:	fef9                	bnez	a3,13190 <__sfvwrite_r+0x22c>
   131b4:	85a2                	mv	a1,s0
   131b6:	8556                	mv	a0,s5
   131b8:	f94ff0ef          	jal	ra,1294c <_fflush_r>
   131bc:	f929                	bnez	a0,1310e <__sfvwrite_r+0x1aa>
   131be:	409989b3          	sub	s3,s3,s1
   131c2:	bd61                	j	1305a <__sfvwrite_r+0xf6>
   131c4:	4807f713          	andi	a4,a5,1152
   131c8:	e6070be3          	beqz	a4,1303e <__sfvwrite_r+0xda>
   131cc:	5004                	lw	s1,32(s0)
   131ce:	6c0c                	ld	a1,24(s0)
   131d0:	00198713          	addi	a4,s3,1
   131d4:	0014969b          	slliw	a3,s1,0x1
   131d8:	9ea5                	addw	a3,a3,s1
   131da:	8d0d                	sub	a0,a0,a1
   131dc:	01f6d49b          	srliw	s1,a3,0x1f
   131e0:	00050d1b          	sext.w	s10,a0
   131e4:	9cb5                	addw	s1,s1,a3
   131e6:	4014d49b          	sraiw	s1,s1,0x1
   131ea:	976a                	add	a4,a4,s10
   131ec:	00e4f563          	bgeu	s1,a4,131f6 <__sfvwrite_r+0x292>
   131f0:	0019849b          	addiw	s1,s3,1
   131f4:	9ca9                	addw	s1,s1,a0
   131f6:	4007f793          	andi	a5,a5,1024
   131fa:	cfa9                	beqz	a5,13254 <__sfvwrite_r+0x2f0>
   131fc:	85a6                	mv	a1,s1
   131fe:	8556                	mv	a0,s5
   13200:	408020ef          	jal	ra,15608 <_malloc_r>
   13204:	8caa                	mv	s9,a0
   13206:	cd25                	beqz	a0,1327e <__sfvwrite_r+0x31a>
   13208:	6c0c                	ld	a1,24(s0)
   1320a:	866a                	mv	a2,s10
   1320c:	30b020ef          	jal	ra,15d16 <memcpy>
   13210:	01045783          	lhu	a5,16(s0)
   13214:	b7f7f793          	andi	a5,a5,-1153
   13218:	0807e793          	ori	a5,a5,128
   1321c:	00f41823          	sh	a5,16(s0)
   13220:	01ac8533          	add	a0,s9,s10
   13224:	41a487bb          	subw	a5,s1,s10
   13228:	01943c23          	sd	s9,24(s0)
   1322c:	e008                	sd	a0,0(s0)
   1322e:	d004                	sw	s1,32(s0)
   13230:	8cce                	mv	s9,s3
   13232:	c45c                	sw	a5,12(s0)
   13234:	8d4e                	mv	s10,s3
   13236:	b521                	j	1303e <__sfvwrite_r+0xda>
   13238:	865e                	mv	a2,s7
   1323a:	85e6                	mv	a1,s9
   1323c:	3b9020ef          	jal	ra,15df4 <memmove>
   13240:	4458                	lw	a4,12(s0)
   13242:	6010                	ld	a2,0(s0)
   13244:	000b879b          	sext.w	a5,s7
   13248:	4177073b          	subw	a4,a4,s7
   1324c:	965e                	add	a2,a2,s7
   1324e:	c458                	sw	a4,12(s0)
   13250:	e010                	sd	a2,0(s0)
   13252:	bd9d                	j	130c8 <__sfvwrite_r+0x164>
   13254:	8626                	mv	a2,s1
   13256:	8556                	mv	a0,s5
   13258:	7f4030ef          	jal	ra,16a4c <_realloc_r>
   1325c:	8caa                	mv	s9,a0
   1325e:	f169                	bnez	a0,13220 <__sfvwrite_r+0x2bc>
   13260:	6c0c                	ld	a1,24(s0)
   13262:	8556                	mv	a0,s5
   13264:	ab1ff0ef          	jal	ra,12d14 <_free_r>
   13268:	01041783          	lh	a5,16(s0)
   1326c:	4731                	li	a4,12
   1326e:	00eaa023          	sw	a4,0(s5)
   13272:	f7f7f793          	andi	a5,a5,-129
   13276:	bd71                	j	13112 <__sfvwrite_r+0x1ae>
   13278:	001c099b          	addiw	s3,s8,1
   1327c:	bd19                	j	13092 <__sfvwrite_r+0x12e>
   1327e:	4731                	li	a4,12
   13280:	01041783          	lh	a5,16(s0)
   13284:	00eaa023          	sw	a4,0(s5)
   13288:	b569                	j	13112 <__sfvwrite_r+0x1ae>
   1328a:	557d                	li	a0,-1
   1328c:	bdb1                	j	130e8 <__sfvwrite_r+0x184>

000000000001328e <_fwalk>:
   1328e:	715d                	addi	sp,sp,-80
   13290:	f84a                	sd	s2,48(sp)
   13292:	f44e                	sd	s3,40(sp)
   13294:	f052                	sd	s4,32(sp)
   13296:	ec56                	sd	s5,24(sp)
   13298:	e85a                	sd	s6,16(sp)
   1329a:	e45e                	sd	s7,8(sp)
   1329c:	e486                	sd	ra,72(sp)
   1329e:	e0a2                	sd	s0,64(sp)
   132a0:	fc26                	sd	s1,56(sp)
   132a2:	8a2e                	mv	s4,a1
   132a4:	52050913          	addi	s2,a0,1312
   132a8:	4b01                	li	s6,0
   132aa:	0b000a93          	li	s5,176
   132ae:	4b85                	li	s7,1
   132b0:	59fd                	li	s3,-1
   132b2:	00892783          	lw	a5,8(s2)
   132b6:	01093403          	ld	s0,16(s2)
   132ba:	02f05b63          	blez	a5,132f0 <_fwalk+0x62>
   132be:	fff7849b          	addiw	s1,a5,-1
   132c2:	1482                	slli	s1,s1,0x20
   132c4:	9081                	srli	s1,s1,0x20
   132c6:	0485                	addi	s1,s1,1
   132c8:	035484b3          	mul	s1,s1,s5
   132cc:	94a2                	add	s1,s1,s0
   132ce:	01045783          	lhu	a5,16(s0)
   132d2:	00fbfb63          	bgeu	s7,a5,132e8 <_fwalk+0x5a>
   132d6:	01241783          	lh	a5,18(s0)
   132da:	8522                	mv	a0,s0
   132dc:	01378663          	beq	a5,s3,132e8 <_fwalk+0x5a>
   132e0:	9a02                	jalr	s4
   132e2:	01656b33          	or	s6,a0,s6
   132e6:	2b01                	sext.w	s6,s6
   132e8:	0b040413          	addi	s0,s0,176
   132ec:	fe8491e3          	bne	s1,s0,132ce <_fwalk+0x40>
   132f0:	00093903          	ld	s2,0(s2)
   132f4:	fa091fe3          	bnez	s2,132b2 <_fwalk+0x24>
   132f8:	60a6                	ld	ra,72(sp)
   132fa:	6406                	ld	s0,64(sp)
   132fc:	74e2                	ld	s1,56(sp)
   132fe:	7942                	ld	s2,48(sp)
   13300:	79a2                	ld	s3,40(sp)
   13302:	7a02                	ld	s4,32(sp)
   13304:	6ae2                	ld	s5,24(sp)
   13306:	6ba2                	ld	s7,8(sp)
   13308:	855a                	mv	a0,s6
   1330a:	6b42                	ld	s6,16(sp)
   1330c:	6161                	addi	sp,sp,80
   1330e:	8082                	ret

0000000000013310 <_fwalk_reent>:
   13310:	715d                	addi	sp,sp,-80
   13312:	f84a                	sd	s2,48(sp)
   13314:	f44e                	sd	s3,40(sp)
   13316:	f052                	sd	s4,32(sp)
   13318:	ec56                	sd	s5,24(sp)
   1331a:	e85a                	sd	s6,16(sp)
   1331c:	e45e                	sd	s7,8(sp)
   1331e:	e062                	sd	s8,0(sp)
   13320:	e486                	sd	ra,72(sp)
   13322:	e0a2                	sd	s0,64(sp)
   13324:	fc26                	sd	s1,56(sp)
   13326:	8c2a                	mv	s8,a0
   13328:	8a2e                	mv	s4,a1
   1332a:	52050913          	addi	s2,a0,1312
   1332e:	4b01                	li	s6,0
   13330:	0b000a93          	li	s5,176
   13334:	4b85                	li	s7,1
   13336:	59fd                	li	s3,-1
   13338:	00892783          	lw	a5,8(s2)
   1333c:	01093403          	ld	s0,16(s2)
   13340:	02f05c63          	blez	a5,13378 <_fwalk_reent+0x68>
   13344:	fff7849b          	addiw	s1,a5,-1
   13348:	1482                	slli	s1,s1,0x20
   1334a:	9081                	srli	s1,s1,0x20
   1334c:	0485                	addi	s1,s1,1
   1334e:	035484b3          	mul	s1,s1,s5
   13352:	94a2                	add	s1,s1,s0
   13354:	01045783          	lhu	a5,16(s0)
   13358:	00fbfc63          	bgeu	s7,a5,13370 <_fwalk_reent+0x60>
   1335c:	01241783          	lh	a5,18(s0)
   13360:	85a2                	mv	a1,s0
   13362:	8562                	mv	a0,s8
   13364:	01378663          	beq	a5,s3,13370 <_fwalk_reent+0x60>
   13368:	9a02                	jalr	s4
   1336a:	01656b33          	or	s6,a0,s6
   1336e:	2b01                	sext.w	s6,s6
   13370:	0b040413          	addi	s0,s0,176
   13374:	fe8490e3          	bne	s1,s0,13354 <_fwalk_reent+0x44>
   13378:	00093903          	ld	s2,0(s2)
   1337c:	fa091ee3          	bnez	s2,13338 <_fwalk_reent+0x28>
   13380:	60a6                	ld	ra,72(sp)
   13382:	6406                	ld	s0,64(sp)
   13384:	74e2                	ld	s1,56(sp)
   13386:	7942                	ld	s2,48(sp)
   13388:	79a2                	ld	s3,40(sp)
   1338a:	7a02                	ld	s4,32(sp)
   1338c:	6ae2                	ld	s5,24(sp)
   1338e:	6ba2                	ld	s7,8(sp)
   13390:	6c02                	ld	s8,0(sp)
   13392:	855a                	mv	a0,s6
   13394:	6b42                	ld	s6,16(sp)
   13396:	6161                	addi	sp,sp,80
   13398:	8082                	ret

000000000001339a <eshdn1>:
   1339a:	00450693          	addi	a3,a0,4
   1339e:	4781                	li	a5,0
   133a0:	0569                	addi	a0,a0,26
   133a2:	7861                	lui	a6,0xffff8
   133a4:	a811                	j	133b8 <eshdn1+0x1e>
   133a6:	0017979b          	slliw	a5,a5,0x1
   133aa:	00e69023          	sh	a4,0(a3)
   133ae:	17c2                	slli	a5,a5,0x30
   133b0:	0689                	addi	a3,a3,2
   133b2:	93c1                	srli	a5,a5,0x30
   133b4:	02d50863          	beq	a0,a3,133e4 <eshdn1+0x4a>
   133b8:	0006d703          	lhu	a4,0(a3)
   133bc:	00177613          	andi	a2,a4,1
   133c0:	c219                	beqz	a2,133c6 <eshdn1+0x2c>
   133c2:	0017e793          	ori	a5,a5,1
   133c6:	8305                	srli	a4,a4,0x1
   133c8:	0027f613          	andi	a2,a5,2
   133cc:	010765b3          	or	a1,a4,a6
   133d0:	da79                	beqz	a2,133a6 <eshdn1+0xc>
   133d2:	0017979b          	slliw	a5,a5,0x1
   133d6:	00b69023          	sh	a1,0(a3)
   133da:	17c2                	slli	a5,a5,0x30
   133dc:	0689                	addi	a3,a3,2
   133de:	93c1                	srli	a5,a5,0x30
   133e0:	fcd51ce3          	bne	a0,a3,133b8 <eshdn1+0x1e>
   133e4:	8082                	ret

00000000000133e6 <eshup1>:
   133e6:	01850693          	addi	a3,a0,24
   133ea:	4701                	li	a4,0
   133ec:	0509                	addi	a0,a0,2
   133ee:	a811                	j	13402 <eshup1+0x1c>
   133f0:	0017171b          	slliw	a4,a4,0x1
   133f4:	00f69023          	sh	a5,0(a3)
   133f8:	1742                	slli	a4,a4,0x30
   133fa:	16f9                	addi	a3,a3,-2
   133fc:	9341                	srli	a4,a4,0x30
   133fe:	04d50063          	beq	a0,a3,1343e <eshup1+0x58>
   13402:	0006d783          	lhu	a5,0(a3)
   13406:	0107961b          	slliw	a2,a5,0x10
   1340a:	4106561b          	sraiw	a2,a2,0x10
   1340e:	02061593          	slli	a1,a2,0x20
   13412:	0017979b          	slliw	a5,a5,0x1
   13416:	0005d463          	bgez	a1,1341e <eshup1+0x38>
   1341a:	00176713          	ori	a4,a4,1
   1341e:	17c2                	slli	a5,a5,0x30
   13420:	93c1                	srli	a5,a5,0x30
   13422:	00277613          	andi	a2,a4,2
   13426:	0017e593          	ori	a1,a5,1
   1342a:	d279                	beqz	a2,133f0 <eshup1+0xa>
   1342c:	0017171b          	slliw	a4,a4,0x1
   13430:	00b69023          	sh	a1,0(a3)
   13434:	1742                	slli	a4,a4,0x30
   13436:	16f9                	addi	a3,a3,-2
   13438:	9341                	srli	a4,a4,0x30
   1343a:	fcd514e3          	bne	a0,a3,13402 <eshup1+0x1c>
   1343e:	8082                	ret

0000000000013440 <m16m>:
   13440:	1101                	addi	sp,sp,-32
   13442:	6e41                	lui	t3,0x10
   13444:	00011b23          	sh	zero,22(sp)
   13448:	00011c23          	sh	zero,24(sp)
   1344c:	05e1                	addi	a1,a1,24
   1344e:	083c                	addi	a5,sp,24
   13450:	00410813          	addi	a6,sp,4
   13454:	1e7d                	addi	t3,t3,-1
   13456:	0005d703          	lhu	a4,0(a1)
   1345a:	17f9                	addi	a5,a5,-2
   1345c:	15f9                	addi	a1,a1,-2
   1345e:	e315                	bnez	a4,13482 <m16m+0x42>
   13460:	fe079f23          	sh	zero,-2(a5)
   13464:	ff0799e3          	bne	a5,a6,13456 <m16m+0x16>
   13468:	0611                	addi	a2,a2,4
   1346a:	01a10693          	addi	a3,sp,26
   1346e:	0007d703          	lhu	a4,0(a5)
   13472:	0789                	addi	a5,a5,2
   13474:	0609                	addi	a2,a2,2
   13476:	fee61f23          	sh	a4,-2(a2)
   1347a:	fed79ae3          	bne	a5,a3,1346e <m16m+0x2e>
   1347e:	6105                	addi	sp,sp,32
   13480:	8082                	ret
   13482:	02a70733          	mul	a4,a4,a0
   13486:	0027d883          	lhu	a7,2(a5)
   1348a:	0007d303          	lhu	t1,0(a5)
   1348e:	01c776b3          	and	a3,a4,t3
   13492:	96c6                	add	a3,a3,a7
   13494:	8341                	srli	a4,a4,0x10
   13496:	0106d893          	srli	a7,a3,0x10
   1349a:	971a                	add	a4,a4,t1
   1349c:	9746                	add	a4,a4,a7
   1349e:	01075893          	srli	a7,a4,0x10
   134a2:	00d79123          	sh	a3,2(a5)
   134a6:	00e79023          	sh	a4,0(a5)
   134aa:	ff179f23          	sh	a7,-2(a5)
   134ae:	fb0794e3          	bne	a5,a6,13456 <m16m+0x16>
   134b2:	bf5d                	j	13468 <m16m+0x28>

00000000000134b4 <eisnan.part.0>:
   134b4:	01250713          	addi	a4,a0,18
   134b8:	00055783          	lhu	a5,0(a0)
   134bc:	0509                	addi	a0,a0,2
   134be:	e789                	bnez	a5,134c8 <eisnan.part.0+0x14>
   134c0:	fee51ce3          	bne	a0,a4,134b8 <eisnan.part.0+0x4>
   134c4:	4501                	li	a0,0
   134c6:	8082                	ret
   134c8:	4505                	li	a0,1
   134ca:	8082                	ret

00000000000134cc <eneg>:
   134cc:	1101                	addi	sp,sp,-32
   134ce:	e426                	sd	s1,8(sp)
   134d0:	01255483          	lhu	s1,18(a0)
   134d4:	e822                	sd	s0,16(sp)
   134d6:	ec06                	sd	ra,24(sp)
   134d8:	fff4c793          	not	a5,s1
   134dc:	03179713          	slli	a4,a5,0x31
   134e0:	842a                	mv	s0,a0
   134e2:	e701                	bnez	a4,134ea <eneg+0x1e>
   134e4:	fd1ff0ef          	jal	ra,134b4 <eisnan.part.0>
   134e8:	e509                	bnez	a0,134f2 <eneg+0x26>
   134ea:	77e1                	lui	a5,0xffff8
   134ec:	8cbd                	xor	s1,s1,a5
   134ee:	00941923          	sh	s1,18(s0)
   134f2:	60e2                	ld	ra,24(sp)
   134f4:	6442                	ld	s0,16(sp)
   134f6:	64a2                	ld	s1,8(sp)
   134f8:	6105                	addi	sp,sp,32
   134fa:	8082                	ret

00000000000134fc <eisneg>:
   134fc:	1141                	addi	sp,sp,-16
   134fe:	e022                	sd	s0,0(sp)
   13500:	01255403          	lhu	s0,18(a0)
   13504:	e406                	sd	ra,8(sp)
   13506:	fff44793          	not	a5,s0
   1350a:	03179713          	slli	a4,a5,0x31
   1350e:	e711                	bnez	a4,1351a <eisneg+0x1e>
   13510:	fa5ff0ef          	jal	ra,134b4 <eisnan.part.0>
   13514:	87aa                	mv	a5,a0
   13516:	4501                	li	a0,0
   13518:	e399                	bnez	a5,1351e <eisneg+0x22>
   1351a:	00f45513          	srli	a0,s0,0xf
   1351e:	60a2                	ld	ra,8(sp)
   13520:	6402                	ld	s0,0(sp)
   13522:	0141                	addi	sp,sp,16
   13524:	8082                	ret

0000000000013526 <emovi>:
   13526:	01255783          	lhu	a5,18(a0)
   1352a:	7139                	addi	sp,sp,-64
   1352c:	f822                	sd	s0,48(sp)
   1352e:	00f7d79b          	srliw	a5,a5,0xf
   13532:	f426                	sd	s1,40(sp)
   13534:	fc06                	sd	ra,56(sp)
   13536:	f04a                	sd	s2,32(sp)
   13538:	ec4e                	sd	s3,24(sp)
   1353a:	40f007bb          	negw	a5,a5
   1353e:	00f59023          	sh	a5,0(a1)
   13542:	01255783          	lhu	a5,18(a0)
   13546:	6721                	lui	a4,0x8
   13548:	177d                	addi	a4,a4,-1
   1354a:	8ff9                	and	a5,a5,a4
   1354c:	00f59123          	sh	a5,2(a1)
   13550:	84aa                	mv	s1,a0
   13552:	01050413          	addi	s0,a0,16
   13556:	02e78863          	beq	a5,a4,13586 <emovi+0x60>
   1355a:	00658793          	addi	a5,a1,6
   1355e:	00059223          	sh	zero,4(a1)
   13562:	1579                	addi	a0,a0,-2
   13564:	00045703          	lhu	a4,0(s0)
   13568:	1479                	addi	s0,s0,-2
   1356a:	0789                	addi	a5,a5,2
   1356c:	fee79f23          	sh	a4,-2(a5) # ffffffffffff7ffe <__BSS_END__+0xfffffffffffc00fe>
   13570:	fe851ae3          	bne	a0,s0,13564 <emovi+0x3e>
   13574:	00059c23          	sh	zero,24(a1)
   13578:	70e2                	ld	ra,56(sp)
   1357a:	7442                	ld	s0,48(sp)
   1357c:	74a2                	ld	s1,40(sp)
   1357e:	7902                	ld	s2,32(sp)
   13580:	69e2                	ld	s3,24(sp)
   13582:	6121                	addi	sp,sp,64
   13584:	8082                	ret
   13586:	0007869b          	sext.w	a3,a5
   1358a:	01255783          	lhu	a5,18(a0)
   1358e:	00458913          	addi	s2,a1,4
   13592:	8ff5                	and	a5,a5,a3
   13594:	02d79663          	bne	a5,a3,135c0 <emovi+0x9a>
   13598:	e42e                	sd	a1,8(sp)
   1359a:	f1bff0ef          	jal	ra,134b4 <eisnan.part.0>
   1359e:	65a2                	ld	a1,8(sp)
   135a0:	c105                	beqz	a0,135c0 <emovi+0x9a>
   135a2:	00658793          	addi	a5,a1,6
   135a6:	00059223          	sh	zero,4(a1)
   135aa:	ffc48513          	addi	a0,s1,-4
   135ae:	00045703          	lhu	a4,0(s0)
   135b2:	1479                	addi	s0,s0,-2
   135b4:	0789                	addi	a5,a5,2
   135b6:	fee79f23          	sh	a4,-2(a5)
   135ba:	fe851ae3          	bne	a0,s0,135ae <emovi+0x88>
   135be:	bf6d                	j	13578 <emovi+0x52>
   135c0:	01a58993          	addi	s3,a1,26
   135c4:	0909                	addi	s2,s2,2
   135c6:	fe091f23          	sh	zero,-2(s2)
   135ca:	ff299de3          	bne	s3,s2,135c4 <emovi+0x9e>
   135ce:	70e2                	ld	ra,56(sp)
   135d0:	7442                	ld	s0,48(sp)
   135d2:	74a2                	ld	s1,40(sp)
   135d4:	7902                	ld	s2,32(sp)
   135d6:	69e2                	ld	s3,24(sp)
   135d8:	6121                	addi	sp,sp,64
   135da:	8082                	ret

00000000000135dc <ecmp>:
   135dc:	01255783          	lhu	a5,18(a0)
   135e0:	711d                	addi	sp,sp,-96
   135e2:	e8a2                	sd	s0,80(sp)
   135e4:	fff7c793          	not	a5,a5
   135e8:	e4a6                	sd	s1,72(sp)
   135ea:	ec86                	sd	ra,88(sp)
   135ec:	03179713          	slli	a4,a5,0x31
   135f0:	84aa                	mv	s1,a0
   135f2:	842e                	mv	s0,a1
   135f4:	e701                	bnez	a4,135fc <ecmp+0x20>
   135f6:	ebfff0ef          	jal	ra,134b4 <eisnan.part.0>
   135fa:	ed39                	bnez	a0,13658 <ecmp+0x7c>
   135fc:	01245783          	lhu	a5,18(s0)
   13600:	fff7c793          	not	a5,a5
   13604:	03179713          	slli	a4,a5,0x31
   13608:	c721                	beqz	a4,13650 <ecmp+0x74>
   1360a:	858a                	mv	a1,sp
   1360c:	8526                	mv	a0,s1
   1360e:	f19ff0ef          	jal	ra,13526 <emovi>
   13612:	100c                	addi	a1,sp,32
   13614:	8522                	mv	a0,s0
   13616:	f11ff0ef          	jal	ra,13526 <emovi>
   1361a:	00015583          	lhu	a1,0(sp)
   1361e:	02015783          	lhu	a5,32(sp)
   13622:	02b78d63          	beq	a5,a1,1365c <ecmp+0x80>
   13626:	00210793          	addi	a5,sp,2
   1362a:	02210713          	addi	a4,sp,34
   1362e:	0830                	addi	a2,sp,24
   13630:	0007d683          	lhu	a3,0(a5)
   13634:	0789                	addi	a5,a5,2
   13636:	e2ad                	bnez	a3,13698 <ecmp+0xbc>
   13638:	00075683          	lhu	a3,0(a4) # 8000 <register_fini-0x80b0>
   1363c:	0709                	addi	a4,a4,2
   1363e:	eea9                	bnez	a3,13698 <ecmp+0xbc>
   13640:	fec798e3          	bne	a5,a2,13630 <ecmp+0x54>
   13644:	4501                	li	a0,0
   13646:	60e6                	ld	ra,88(sp)
   13648:	6446                	ld	s0,80(sp)
   1364a:	64a6                	ld	s1,72(sp)
   1364c:	6125                	addi	sp,sp,96
   1364e:	8082                	ret
   13650:	8522                	mv	a0,s0
   13652:	e63ff0ef          	jal	ra,134b4 <eisnan.part.0>
   13656:	d955                	beqz	a0,1360a <ecmp+0x2e>
   13658:	5579                	li	a0,-2
   1365a:	b7f5                	j	13646 <ecmp+0x6a>
   1365c:	4505                	li	a0,1
   1365e:	e1a9                	bnez	a1,136a0 <ecmp+0xc4>
   13660:	00215603          	lhu	a2,2(sp)
   13664:	02215683          	lhu	a3,34(sp)
   13668:	00210713          	addi	a4,sp,2
   1366c:	02210793          	addi	a5,sp,34
   13670:	182c                	addi	a1,sp,56
   13672:	0789                	addi	a5,a5,2
   13674:	0709                	addi	a4,a4,2
   13676:	00d61c63          	bne	a2,a3,1368e <ecmp+0xb2>
   1367a:	fcb785e3          	beq	a5,a1,13644 <ecmp+0x68>
   1367e:	00075603          	lhu	a2,0(a4)
   13682:	0007d683          	lhu	a3,0(a5)
   13686:	0709                	addi	a4,a4,2
   13688:	0789                	addi	a5,a5,2
   1368a:	fed608e3          	beq	a2,a3,1367a <ecmp+0x9e>
   1368e:	fac6ece3          	bltu	a3,a2,13646 <ecmp+0x6a>
   13692:	40a0053b          	negw	a0,a0
   13696:	bf45                	j	13646 <ecmp+0x6a>
   13698:	4505                	li	a0,1
   1369a:	d5d5                	beqz	a1,13646 <ecmp+0x6a>
   1369c:	557d                	li	a0,-1
   1369e:	b765                	j	13646 <ecmp+0x6a>
   136a0:	557d                	li	a0,-1
   136a2:	bf7d                	j	13660 <ecmp+0x84>

00000000000136a4 <eisinf.part.0>:
   136a4:	1141                	addi	sp,sp,-16
   136a6:	e406                	sd	ra,8(sp)
   136a8:	e0dff0ef          	jal	ra,134b4 <eisnan.part.0>
   136ac:	60a2                	ld	ra,8(sp)
   136ae:	00153513          	seqz	a0,a0
   136b2:	0141                	addi	sp,sp,16
   136b4:	8082                	ret

00000000000136b6 <eshift.part.0>:
   136b6:	7179                	addi	sp,sp,-48
   136b8:	f022                	sd	s0,32(sp)
   136ba:	ec26                	sd	s1,24(sp)
   136bc:	f406                	sd	ra,40(sp)
   136be:	e84a                	sd	s2,16(sp)
   136c0:	e44e                	sd	s3,8(sp)
   136c2:	84ae                	mv	s1,a1
   136c4:	842a                	mv	s0,a0
   136c6:	0605cb63          	bltz	a1,1373c <eshift.part.0+0x86>
   136ca:	47bd                	li	a5,15
   136cc:	862e                	mv	a2,a1
   136ce:	0511                	addi	a0,a0,4
   136d0:	01840693          	addi	a3,s0,24
   136d4:	45bd                	li	a1,15
   136d6:	0297d063          	bge	a5,s1,136f6 <eshift.part.0+0x40>
   136da:	87aa                	mv	a5,a0
   136dc:	0027d703          	lhu	a4,2(a5)
   136e0:	0789                	addi	a5,a5,2
   136e2:	fee79f23          	sh	a4,-2(a5)
   136e6:	fed79be3          	bne	a5,a3,136dc <eshift.part.0+0x26>
   136ea:	00041c23          	sh	zero,24(s0)
   136ee:	3641                	addiw	a2,a2,-16
   136f0:	fec5c5e3          	blt	a1,a2,136da <eshift.part.0+0x24>
   136f4:	88bd                	andi	s1,s1,15
   136f6:	479d                	li	a5,7
   136f8:	0297d463          	bge	a5,s1,13720 <eshift.part.0+0x6a>
   136fc:	01840713          	addi	a4,s0,24
   13700:	00240593          	addi	a1,s0,2
   13704:	4781                	li	a5,0
   13706:	00075683          	lhu	a3,0(a4)
   1370a:	1779                	addi	a4,a4,-2
   1370c:	00869613          	slli	a2,a3,0x8
   13710:	8fd1                	or	a5,a5,a2
   13712:	00f71123          	sh	a5,2(a4)
   13716:	0086d793          	srli	a5,a3,0x8
   1371a:	feb716e3          	bne	a4,a1,13706 <eshift.part.0+0x50>
   1371e:	34e1                	addiw	s1,s1,-8
   13720:	c491                	beqz	s1,1372c <eshift.part.0+0x76>
   13722:	34fd                	addiw	s1,s1,-1
   13724:	8522                	mv	a0,s0
   13726:	cc1ff0ef          	jal	ra,133e6 <eshup1>
   1372a:	fce5                	bnez	s1,13722 <eshift.part.0+0x6c>
   1372c:	4501                	li	a0,0
   1372e:	70a2                	ld	ra,40(sp)
   13730:	7402                	ld	s0,32(sp)
   13732:	64e2                	ld	s1,24(sp)
   13734:	6942                	ld	s2,16(sp)
   13736:	69a2                	ld	s3,8(sp)
   13738:	6145                	addi	sp,sp,48
   1373a:	8082                	ret
   1373c:	57c5                	li	a5,-15
   1373e:	40b0093b          	negw	s2,a1
   13742:	0ef5d463          	bge	a1,a5,1382a <eshift.part.0+0x174>
   13746:	01850593          	addi	a1,a0,24
   1374a:	4981                	li	s3,0
   1374c:	00450693          	addi	a3,a0,4
   13750:	463d                	li	a2,15
   13752:	01845703          	lhu	a4,24(s0)
   13756:	87ae                	mv	a5,a1
   13758:	00e9e9b3          	or	s3,s3,a4
   1375c:	ffe7d703          	lhu	a4,-2(a5)
   13760:	17f9                	addi	a5,a5,-2
   13762:	00e79123          	sh	a4,2(a5)
   13766:	fed79be3          	bne	a5,a3,1375c <eshift.part.0+0xa6>
   1376a:	00041223          	sh	zero,4(s0)
   1376e:	3941                	addiw	s2,s2,-16
   13770:	ff2641e3          	blt	a2,s2,13752 <eshift.part.0+0x9c>
   13774:	57c1                	li	a5,-16
   13776:	5745                	li	a4,-15
   13778:	9f85                	subw	a5,a5,s1
   1377a:	4901                	li	s2,0
   1377c:	08e4c063          	blt	s1,a4,137fc <eshift.part.0+0x146>
   13780:	00f9093b          	addw	s2,s2,a5
   13784:	479d                	li	a5,7
   13786:	0327df63          	bge	a5,s2,137c4 <eshift.part.0+0x10e>
   1378a:	0109999b          	slliw	s3,s3,0x10
   1378e:	4109d99b          	sraiw	s3,s3,0x10
   13792:	01844783          	lbu	a5,24(s0)
   13796:	01a40593          	addi	a1,s0,26
   1379a:	00f9e9b3          	or	s3,s3,a5
   1379e:	19c2                	slli	s3,s3,0x30
   137a0:	0309d993          	srli	s3,s3,0x30
   137a4:	4781                	li	a5,0
   137a6:	0006d603          	lhu	a2,0(a3)
   137aa:	0689                	addi	a3,a3,2
   137ac:	0086571b          	srliw	a4,a2,0x8
   137b0:	8f5d                	or	a4,a4,a5
   137b2:	0086179b          	slliw	a5,a2,0x8
   137b6:	17c2                	slli	a5,a5,0x30
   137b8:	fee69f23          	sh	a4,-2(a3)
   137bc:	93c1                	srli	a5,a5,0x30
   137be:	feb694e3          	bne	a3,a1,137a6 <eshift.part.0+0xf0>
   137c2:	3961                	addiw	s2,s2,-8
   137c4:	04090b63          	beqz	s2,1381a <eshift.part.0+0x164>
   137c8:	01845783          	lhu	a5,24(s0)
   137cc:	397d                	addiw	s2,s2,-1
   137ce:	8522                	mv	a0,s0
   137d0:	8b85                	andi	a5,a5,1
   137d2:	0137e9b3          	or	s3,a5,s3
   137d6:	bc5ff0ef          	jal	ra,1339a <eshdn1>
   137da:	fe0917e3          	bnez	s2,137c8 <eshift.part.0+0x112>
   137de:	0109979b          	slliw	a5,s3,0x10
   137e2:	4107d79b          	sraiw	a5,a5,0x10
   137e6:	e78d                	bnez	a5,13810 <eshift.part.0+0x15a>
   137e8:	03099513          	slli	a0,s3,0x30
   137ec:	9141                	srli	a0,a0,0x30
   137ee:	70a2                	ld	ra,40(sp)
   137f0:	7402                	ld	s0,32(sp)
   137f2:	64e2                	ld	s1,24(sp)
   137f4:	6942                	ld	s2,16(sp)
   137f6:	69a2                	ld	s3,8(sp)
   137f8:	6145                	addi	sp,sp,48
   137fa:	8082                	ret
   137fc:	ff07f913          	andi	s2,a5,-16
   13800:	4120093b          	negw	s2,s2
   13804:	00f9093b          	addw	s2,s2,a5
   13808:	479d                	li	a5,7
   1380a:	fb27dde3          	bge	a5,s2,137c4 <eshift.part.0+0x10e>
   1380e:	bfb5                	j	1378a <eshift.part.0+0xd4>
   13810:	4985                	li	s3,1
   13812:	03099513          	slli	a0,s3,0x30
   13816:	9141                	srli	a0,a0,0x30
   13818:	bfd9                	j	137ee <eshift.part.0+0x138>
   1381a:	854e                	mv	a0,s3
   1381c:	00099563          	bnez	s3,13826 <eshift.part.0+0x170>
   13820:	1542                	slli	a0,a0,0x30
   13822:	9141                	srli	a0,a0,0x30
   13824:	b729                	j	1372e <eshift.part.0+0x78>
   13826:	4505                	li	a0,1
   13828:	bfe5                	j	13820 <eshift.part.0+0x16a>
   1382a:	57e5                	li	a5,-7
   1382c:	4981                	li	s3,0
   1382e:	f8f5dde3          	bge	a1,a5,137c8 <eshift.part.0+0x112>
   13832:	00440693          	addi	a3,s0,4
   13836:	bfb1                	j	13792 <eshift.part.0+0xdc>

0000000000013838 <enormlz>:
   13838:	00455783          	lhu	a5,4(a0)
   1383c:	1101                	addi	sp,sp,-32
   1383e:	e426                	sd	s1,8(sp)
   13840:	ec06                	sd	ra,24(sp)
   13842:	e822                	sd	s0,16(sp)
   13844:	e04a                	sd	s2,0(sp)
   13846:	84aa                	mv	s1,a0
   13848:	ebc5                	bnez	a5,138f8 <enormlz+0xc0>
   1384a:	00655703          	lhu	a4,6(a0)
   1384e:	4401                	li	s0,0
   13850:	0107179b          	slliw	a5,a4,0x10
   13854:	4107d79b          	sraiw	a5,a5,0x10
   13858:	02079693          	slli	a3,a5,0x20
   1385c:	0806c763          	bltz	a3,138ea <enormlz+0xb2>
   13860:	01a50693          	addi	a3,a0,26
   13864:	0a000613          	li	a2,160
   13868:	e31d                	bnez	a4,1388e <enormlz+0x56>
   1386a:	00648793          	addi	a5,s1,6
   1386e:	a019                	j	13874 <enormlz+0x3c>
   13870:	0007d703          	lhu	a4,0(a5)
   13874:	0789                	addi	a5,a5,2
   13876:	fee79e23          	sh	a4,-4(a5)
   1387a:	fef69be3          	bne	a3,a5,13870 <enormlz+0x38>
   1387e:	00049c23          	sh	zero,24(s1)
   13882:	2441                	addiw	s0,s0,16
   13884:	06c40363          	beq	s0,a2,138ea <enormlz+0xb2>
   13888:	0064d703          	lhu	a4,6(s1)
   1388c:	df79                	beqz	a4,1386a <enormlz+0x32>
   1388e:	f0077793          	andi	a5,a4,-256
   13892:	eb8d                	bnez	a5,138c4 <enormlz+0x8c>
   13894:	01848513          	addi	a0,s1,24
   13898:	00248593          	addi	a1,s1,2
   1389c:	4781                	li	a5,0
   1389e:	872a                	mv	a4,a0
   138a0:	00075683          	lhu	a3,0(a4)
   138a4:	1779                	addi	a4,a4,-2
   138a6:	00869613          	slli	a2,a3,0x8
   138aa:	8fd1                	or	a5,a5,a2
   138ac:	00f71123          	sh	a5,2(a4)
   138b0:	0086d793          	srli	a5,a3,0x8
   138b4:	fee596e3          	bne	a1,a4,138a0 <enormlz+0x68>
   138b8:	0064d703          	lhu	a4,6(s1)
   138bc:	2421                	addiw	s0,s0,8
   138be:	f0077793          	andi	a5,a4,-256
   138c2:	dfe9                	beqz	a5,1389c <enormlz+0x64>
   138c4:	0a000913          	li	s2,160
   138c8:	a801                	j	138d8 <enormlz+0xa0>
   138ca:	2405                	addiw	s0,s0,1
   138cc:	b1bff0ef          	jal	ra,133e6 <eshup1>
   138d0:	00894d63          	blt	s2,s0,138ea <enormlz+0xb2>
   138d4:	0064d703          	lhu	a4,6(s1)
   138d8:	0107171b          	slliw	a4,a4,0x10
   138dc:	4107571b          	sraiw	a4,a4,0x10
   138e0:	02071793          	slli	a5,a4,0x20
   138e4:	8526                	mv	a0,s1
   138e6:	fe07d2e3          	bgez	a5,138ca <enormlz+0x92>
   138ea:	60e2                	ld	ra,24(sp)
   138ec:	8522                	mv	a0,s0
   138ee:	6442                	ld	s0,16(sp)
   138f0:	64a2                	ld	s1,8(sp)
   138f2:	6902                	ld	s2,0(sp)
   138f4:	6105                	addi	sp,sp,32
   138f6:	8082                	ret
   138f8:	f007f713          	andi	a4,a5,-256
   138fc:	4401                	li	s0,0
   138fe:	e705                	bnez	a4,13926 <enormlz+0xee>
   13900:	f6f00913          	li	s2,-145
   13904:	a801                	j	13914 <enormlz+0xdc>
   13906:	347d                	addiw	s0,s0,-1
   13908:	a93ff0ef          	jal	ra,1339a <eshdn1>
   1390c:	fd240fe3          	beq	s0,s2,138ea <enormlz+0xb2>
   13910:	0044d783          	lhu	a5,4(s1)
   13914:	8526                	mv	a0,s1
   13916:	fbe5                	bnez	a5,13906 <enormlz+0xce>
   13918:	60e2                	ld	ra,24(sp)
   1391a:	8522                	mv	a0,s0
   1391c:	6442                	ld	s0,16(sp)
   1391e:	64a2                	ld	s1,8(sp)
   13920:	6902                	ld	s2,0(sp)
   13922:	6105                	addi	sp,sp,32
   13924:	8082                	ret
   13926:	00450693          	addi	a3,a0,4
   1392a:	01a50593          	addi	a1,a0,26
   1392e:	4701                	li	a4,0
   13930:	a019                	j	13936 <enormlz+0xfe>
   13932:	0006d783          	lhu	a5,0(a3)
   13936:	0087d61b          	srliw	a2,a5,0x8
   1393a:	8f51                	or	a4,a4,a2
   1393c:	0087979b          	slliw	a5,a5,0x8
   13940:	00e69023          	sh	a4,0(a3)
   13944:	03079713          	slli	a4,a5,0x30
   13948:	0689                	addi	a3,a3,2
   1394a:	9341                	srli	a4,a4,0x30
   1394c:	feb693e3          	bne	a3,a1,13932 <enormlz+0xfa>
   13950:	0044d783          	lhu	a5,4(s1)
   13954:	5461                	li	s0,-8
   13956:	b76d                	j	13900 <enormlz+0xc8>

0000000000013958 <emdnorm>:
   13958:	7139                	addi	sp,sp,-64
   1395a:	f822                	sd	s0,48(sp)
   1395c:	f426                	sd	s1,40(sp)
   1395e:	f04a                	sd	s2,32(sp)
   13960:	ec4e                	sd	s3,24(sp)
   13962:	e852                	sd	s4,16(sp)
   13964:	e456                	sd	s5,8(sp)
   13966:	8936                	mv	s2,a3
   13968:	84be                	mv	s1,a5
   1396a:	fc06                	sd	ra,56(sp)
   1396c:	842a                	mv	s0,a0
   1396e:	89ae                	mv	s3,a1
   13970:	8a32                	mv	s4,a2
   13972:	8aba                	mv	s5,a4
   13974:	ec5ff0ef          	jal	ra,13838 <enormlz>
   13978:	09000793          	li	a5,144
   1397c:	40a90933          	sub	s2,s2,a0
   13980:	12a7db63          	bge	a5,a0,13ab6 <emdnorm+0x15e>
   13984:	67a1                	lui	a5,0x8
   13986:	17f9                	addi	a5,a5,-2
   13988:	1927dd63          	bge	a5,s2,13b22 <emdnorm+0x1ca>
   1398c:	160a8b63          	beqz	s5,13b02 <emdnorm+0x1aa>
   13990:	40c8                	lw	a0,4(s1)
   13992:	409c                	lw	a5,0(s1)
   13994:	04a78e63          	beq	a5,a0,139f0 <emdnorm+0x98>
   13998:	01a48713          	addi	a4,s1,26
   1399c:	03448793          	addi	a5,s1,52
   139a0:	0709                	addi	a4,a4,2
   139a2:	fe071f23          	sh	zero,-2(a4)
   139a6:	fef71de3          	bne	a4,a5,139a0 <emdnorm+0x48>
   139aa:	03800793          	li	a5,56
   139ae:	28f50263          	beq	a0,a5,13c32 <emdnorm+0x2da>
   139b2:	12a7d163          	bge	a5,a0,13ad4 <emdnorm+0x17c>
   139b6:	04000793          	li	a5,64
   139ba:	24f50c63          	beq	a0,a5,13c12 <emdnorm+0x2ba>
   139be:	07100793          	li	a5,113
   139c2:	28f51163          	bne	a0,a5,13c44 <emdnorm+0x2ec>
   139c6:	47a9                	li	a5,10
   139c8:	40008737          	lui	a4,0x40008
   139cc:	177d                	addi	a4,a4,-1
   139ce:	1782                	slli	a5,a5,0x20
   139d0:	07a9                	addi	a5,a5,10
   139d2:	c8d8                	sw	a4,20(s1)
   139d4:	7761                	lui	a4,0xffff8
   139d6:	00e49c23          	sh	a4,24(s1)
   139da:	e49c                	sd	a5,8(s1)
   139dc:	6721                	lui	a4,0x8
   139de:	47a9                	li	a5,10
   139e0:	07a1                	addi	a5,a5,8
   139e2:	0786                	slli	a5,a5,0x1
   139e4:	97a6                	add	a5,a5,s1
   139e6:	00e79523          	sh	a4,10(a5) # 800a <register_fini-0x80a6>
   139ea:	c088                	sw	a0,0(s1)
   139ec:	17205163          	blez	s2,13b4e <emdnorm+0x1f6>
   139f0:	4494                	lw	a3,8(s1)
   139f2:	0144d603          	lhu	a2,20(s1)
   139f6:	08f00793          	li	a5,143
   139fa:	00169713          	slli	a4,a3,0x1
   139fe:	00e40833          	add	a6,s0,a4
   13a02:	00085883          	lhu	a7,0(a6) # ffffffffffff8000 <__BSS_END__+0xfffffffffffc0100>
   13a06:	00c8f5b3          	and	a1,a7,a2
   13a0a:	02a7ce63          	blt	a5,a0,13a46 <emdnorm+0xee>
   13a0e:	47ad                	li	a5,11
   13a10:	02d7cb63          	blt	a5,a3,13a46 <emdnorm+0xee>
   13a14:	9f95                	subw	a5,a5,a3
   13a16:	1782                	slli	a5,a5,0x20
   13a18:	9381                	srli	a5,a5,0x20
   13a1a:	97b6                	add	a5,a5,a3
   13a1c:	00179693          	slli	a3,a5,0x1
   13a20:	0709                	addi	a4,a4,2
   13a22:	00440793          	addi	a5,s0,4
   13a26:	9722                	add	a4,a4,s0
   13a28:	97b6                	add	a5,a5,a3
   13a2a:	00075683          	lhu	a3,0(a4) # 8000 <register_fini-0x80b0>
   13a2e:	c299                	beqz	a3,13a34 <emdnorm+0xdc>
   13a30:	0015e593          	ori	a1,a1,1
   13a34:	00071023          	sh	zero,0(a4)
   13a38:	0709                	addi	a4,a4,2
   13a3a:	fee798e3          	bne	a5,a4,13a2a <emdnorm+0xd2>
   13a3e:	00085883          	lhu	a7,0(a6)
   13a42:	0144d603          	lhu	a2,20(s1)
   13a46:	fff64613          	not	a2,a2
   13a4a:	01167633          	and	a2,a2,a7
   13a4e:	00c81023          	sh	a2,0(a6)
   13a52:	0164d783          	lhu	a5,22(s1)
   13a56:	00b7f733          	and	a4,a5,a1
   13a5a:	cb05                	beqz	a4,13a8a <emdnorm+0x132>
   13a5c:	12b78f63          	beq	a5,a1,13b9a <emdnorm+0x242>
   13a60:	03248613          	addi	a2,s1,50
   13a64:	01840693          	addi	a3,s0,24
   13a68:	04f1                	addi	s1,s1,28
   13a6a:	4701                	li	a4,0
   13a6c:	00065783          	lhu	a5,0(a2)
   13a70:	0006d583          	lhu	a1,0(a3)
   13a74:	16f9                	addi	a3,a3,-2
   13a76:	1679                	addi	a2,a2,-2
   13a78:	97ae                	add	a5,a5,a1
   13a7a:	97ba                	add	a5,a5,a4
   13a7c:	0107d713          	srli	a4,a5,0x10
   13a80:	00f69123          	sh	a5,2(a3)
   13a84:	8b05                	andi	a4,a4,1
   13a86:	fe9613e3          	bne	a2,s1,13a6c <emdnorm+0x114>
   13a8a:	13205663          	blez	s2,13bb6 <emdnorm+0x25e>
   13a8e:	00445783          	lhu	a5,4(s0)
   13a92:	e7ed                	bnez	a5,13b7c <emdnorm+0x224>
   13a94:	67a1                	lui	a5,0x8
   13a96:	00041c23          	sh	zero,24(s0)
   13a9a:	17f9                	addi	a5,a5,-2
   13a9c:	0727c563          	blt	a5,s2,13b06 <emdnorm+0x1ae>
   13aa0:	01241123          	sh	s2,2(s0)
   13aa4:	70e2                	ld	ra,56(sp)
   13aa6:	7442                	ld	s0,48(sp)
   13aa8:	74a2                	ld	s1,40(sp)
   13aaa:	7902                	ld	s2,32(sp)
   13aac:	69e2                	ld	s3,24(sp)
   13aae:	6a42                	ld	s4,16(sp)
   13ab0:	6aa2                	ld	s5,8(sp)
   13ab2:	6121                	addi	sp,sp,64
   13ab4:	8082                	ret
   13ab6:	0a095a63          	bgez	s2,13b6a <emdnorm+0x212>
   13aba:	f7000793          	li	a5,-144
   13abe:	06f95b63          	bge	s2,a5,13b34 <emdnorm+0x1dc>
   13ac2:	00240793          	addi	a5,s0,2
   13ac6:	0469                	addi	s0,s0,26
   13ac8:	0789                	addi	a5,a5,2
   13aca:	fe079f23          	sh	zero,-2(a5) # 7ffe <register_fini-0x80b2>
   13ace:	fe879de3          	bne	a5,s0,13ac8 <emdnorm+0x170>
   13ad2:	bfc9                	j	13aa4 <emdnorm+0x14c>
   13ad4:	47e1                	li	a5,24
   13ad6:	10f50f63          	beq	a0,a5,13bf4 <emdnorm+0x29c>
   13ada:	03500793          	li	a5,53
   13ade:	16f51363          	bne	a0,a5,13c44 <emdnorm+0x2ec>
   13ae2:	040006b7          	lui	a3,0x4000
   13ae6:	6705                	lui	a4,0x1
   13ae8:	7ff68693          	addi	a3,a3,2047 # 40007ff <__BSS_END__+0x3fc88ff>
   13aec:	4799                	li	a5,6
   13aee:	80070713          	addi	a4,a4,-2048 # 800 <register_fini-0xf8b0>
   13af2:	c8d4                	sw	a3,20(s1)
   13af4:	1782                	slli	a5,a5,0x20
   13af6:	0799                	addi	a5,a5,6
   13af8:	e49c                	sd	a5,8(s1)
   13afa:	00e49c23          	sh	a4,24(s1)
   13afe:	4799                	li	a5,6
   13b00:	b5c5                	j	139e0 <emdnorm+0x88>
   13b02:	00041c23          	sh	zero,24(s0)
   13b06:	77e1                	lui	a5,0xffff8
   13b08:	fff7c793          	not	a5,a5
   13b0c:	00f41123          	sh	a5,2(s0)
   13b10:	00440793          	addi	a5,s0,4
   13b14:	0461                	addi	s0,s0,24
   13b16:	00079023          	sh	zero,0(a5) # ffffffffffff8000 <__BSS_END__+0xfffffffffffc0100>
   13b1a:	0789                	addi	a5,a5,2
   13b1c:	fef41de3          	bne	s0,a5,13b16 <emdnorm+0x1be>
   13b20:	b751                	j	13aa4 <emdnorm+0x14c>
   13b22:	00240793          	addi	a5,s0,2
   13b26:	0469                	addi	s0,s0,26
   13b28:	0789                	addi	a5,a5,2
   13b2a:	fe079f23          	sh	zero,-2(a5)
   13b2e:	fe879de3          	bne	a5,s0,13b28 <emdnorm+0x1d0>
   13b32:	bf8d                	j	13aa4 <emdnorm+0x14c>
   13b34:	0009059b          	sext.w	a1,s2
   13b38:	8522                	mv	a0,s0
   13b3a:	b7dff0ef          	jal	ra,136b6 <eshift.part.0>
   13b3e:	c111                	beqz	a0,13b42 <emdnorm+0x1ea>
   13b40:	4985                	li	s3,1
   13b42:	0a0a8463          	beqz	s5,13bea <emdnorm+0x292>
   13b46:	40c8                	lw	a0,4(s1)
   13b48:	409c                	lw	a5,0(s1)
   13b4a:	e4a797e3          	bne	a5,a0,13998 <emdnorm+0x40>
   13b4e:	09000793          	li	a5,144
   13b52:	08f50163          	beq	a0,a5,13bd4 <emdnorm+0x27c>
   13b56:	01845783          	lhu	a5,24(s0)
   13b5a:	8522                	mv	a0,s0
   13b5c:	8b85                	andi	a5,a5,1
   13b5e:	00f9e9b3          	or	s3,s3,a5
   13b62:	839ff0ef          	jal	ra,1339a <eshdn1>
   13b66:	40c8                	lw	a0,4(s1)
   13b68:	b561                	j	139f0 <emdnorm+0x98>
   13b6a:	f20a85e3          	beqz	s5,13a94 <emdnorm+0x13c>
   13b6e:	40c8                	lw	a0,4(s1)
   13b70:	409c                	lw	a5,0(s1)
   13b72:	e2a793e3          	bne	a5,a0,13998 <emdnorm+0x40>
   13b76:	e7204de3          	bgtz	s2,139f0 <emdnorm+0x98>
   13b7a:	bfd1                	j	13b4e <emdnorm+0x1f6>
   13b7c:	8522                	mv	a0,s0
   13b7e:	81dff0ef          	jal	ra,1339a <eshdn1>
   13b82:	67a1                	lui	a5,0x8
   13b84:	0905                	addi	s2,s2,1
   13b86:	00041c23          	sh	zero,24(s0)
   13b8a:	17f9                	addi	a5,a5,-2
   13b8c:	f727cde3          	blt	a5,s2,13b06 <emdnorm+0x1ae>
   13b90:	f00958e3          	bgez	s2,13aa0 <emdnorm+0x148>
   13b94:	00041123          	sh	zero,2(s0)
   13b98:	b731                	j	13aa4 <emdnorm+0x14c>
   13b9a:	08099963          	bnez	s3,13c2c <emdnorm+0x2d4>
   13b9e:	44dc                	lw	a5,12(s1)
   13ba0:	0184d703          	lhu	a4,24(s1)
   13ba4:	0786                	slli	a5,a5,0x1
   13ba6:	97a2                	add	a5,a5,s0
   13ba8:	0007d783          	lhu	a5,0(a5) # 8000 <register_fini-0x80b0>
   13bac:	8ff9                	and	a5,a5,a4
   13bae:	ea0799e3          	bnez	a5,13a60 <emdnorm+0x108>
   13bb2:	ed204ee3          	bgtz	s2,13a8e <emdnorm+0x136>
   13bb6:	09000793          	li	a5,144
   13bba:	00f50563          	beq	a0,a5,13bc4 <emdnorm+0x26c>
   13bbe:	8522                	mv	a0,s0
   13bc0:	827ff0ef          	jal	ra,133e6 <eshup1>
   13bc4:	00445783          	lhu	a5,4(s0)
   13bc8:	fbd5                	bnez	a5,13b7c <emdnorm+0x224>
   13bca:	00041c23          	sh	zero,24(s0)
   13bce:	fc0943e3          	bltz	s2,13b94 <emdnorm+0x23c>
   13bd2:	b5f9                	j	13aa0 <emdnorm+0x148>
   13bd4:	0084a803          	lw	a6,8(s1)
   13bd8:	0144d603          	lhu	a2,20(s1)
   13bdc:	0806                	slli	a6,a6,0x1
   13bde:	9822                	add	a6,a6,s0
   13be0:	00085883          	lhu	a7,0(a6)
   13be4:	011675b3          	and	a1,a2,a7
   13be8:	bdb9                	j	13a46 <emdnorm+0xee>
   13bea:	00041c23          	sh	zero,24(s0)
   13bee:	00041123          	sh	zero,2(s0)
   13bf2:	bd4d                	j	13aa4 <emdnorm+0x14c>
   13bf4:	4791                	li	a5,4
   13bf6:	00800737          	lui	a4,0x800
   13bfa:	0ff70713          	addi	a4,a4,255 # 8000ff <__BSS_END__+0x7c81ff>
   13bfe:	1782                	slli	a5,a5,0x20
   13c00:	0791                	addi	a5,a5,4
   13c02:	c8d8                	sw	a4,20(s1)
   13c04:	10000713          	li	a4,256
   13c08:	e49c                	sd	a5,8(s1)
   13c0a:	00e49c23          	sh	a4,24(s1)
   13c0e:	4791                	li	a5,4
   13c10:	bbc1                	j	139e0 <emdnorm+0x88>
   13c12:	478d                	li	a5,3
   13c14:	80010737          	lui	a4,0x80010
   13c18:	177d                	addi	a4,a4,-1
   13c1a:	1786                	slli	a5,a5,0x21
   13c1c:	079d                	addi	a5,a5,7
   13c1e:	c8d8                	sw	a4,20(s1)
   13c20:	4705                	li	a4,1
   13c22:	e49c                	sd	a5,8(s1)
   13c24:	00e49c23          	sh	a4,24(s1)
   13c28:	4799                	li	a5,6
   13c2a:	bb5d                	j	139e0 <emdnorm+0x88>
   13c2c:	e20a0ae3          	beqz	s4,13a60 <emdnorm+0x108>
   13c30:	bda9                	j	13a8a <emdnorm+0x132>
   13c32:	00800737          	lui	a4,0x800
   13c36:	0ff70713          	addi	a4,a4,255 # 8000ff <__BSS_END__+0x7c81ff>
   13c3a:	c8d8                	sw	a4,20(s1)
   13c3c:	4799                	li	a5,6
   13c3e:	10000713          	li	a4,256
   13c42:	bd4d                	j	13af4 <emdnorm+0x19c>
   13c44:	47ad                	li	a5,11
   13c46:	80010737          	lui	a4,0x80010
   13c4a:	177d                	addi	a4,a4,-1
   13c4c:	1782                	slli	a5,a5,0x20
   13c4e:	07b1                	addi	a5,a5,12
   13c50:	c8d8                	sw	a4,20(s1)
   13c52:	4705                	li	a4,1
   13c54:	e49c                	sd	a5,8(s1)
   13c56:	00e49c23          	sh	a4,24(s1)
   13c5a:	47ad                	li	a5,11
   13c5c:	b351                	j	139e0 <emdnorm+0x88>

0000000000013c5e <eiremain>:
   13c5e:	711d                	addi	sp,sp,-96
   13c60:	e4a6                	sd	s1,72(sp)
   13c62:	fc4e                	sd	s3,56(sp)
   13c64:	84ae                	mv	s1,a1
   13c66:	00255983          	lhu	s3,2(a0)
   13c6a:	ec86                	sd	ra,88(sp)
   13c6c:	e8a2                	sd	s0,80(sp)
   13c6e:	e0ca                	sd	s2,64(sp)
   13c70:	f852                	sd	s4,48(sp)
   13c72:	8932                	mv	s2,a2
   13c74:	f456                	sd	s5,40(sp)
   13c76:	f05a                	sd	s6,32(sp)
   13c78:	ec5e                	sd	s7,24(sp)
   13c7a:	e862                	sd	s8,16(sp)
   13c7c:	e466                	sd	s9,8(sp)
   13c7e:	e06a                	sd	s10,0(sp)
   13c80:	8a2a                	mv	s4,a0
   13c82:	bb7ff0ef          	jal	ra,13838 <enormlz>
   13c86:	0024d403          	lhu	s0,2(s1)
   13c8a:	87aa                	mv	a5,a0
   13c8c:	8526                	mv	a0,s1
   13c8e:	40f989b3          	sub	s3,s3,a5
   13c92:	03490a93          	addi	s5,s2,52
   13c96:	ba3ff0ef          	jal	ra,13838 <enormlz>
   13c9a:	8c09                	sub	s0,s0,a0
   13c9c:	04e90713          	addi	a4,s2,78
   13ca0:	87d6                	mv	a5,s5
   13ca2:	0789                	addi	a5,a5,2
   13ca4:	fe079f23          	sh	zero,-2(a5)
   13ca8:	fee79de3          	bne	a5,a4,13ca2 <eiremain+0x44>
   13cac:	07344b63          	blt	s0,s3,13d22 <eiremain+0xc4>
   13cb0:	004a0b93          	addi	s7,s4,4
   13cb4:	00448b13          	addi	s6,s1,4
   13cb8:	19fd                	addi	s3,s3,-1
   13cba:	01aa0c93          	addi	s9,s4,26
   13cbe:	00248c13          	addi	s8,s1,2
